CCS PCH C Compiler, Version 5.015, 5967               03-jul.-16 12:02

               Filename:   C:\Users\Personal\Desktop\SistemaEconomizador.X\Principal.lst

               ROM used:   34142 bytes (52%)
                           Largest free fragment is 31390
               RAM used:   2857 (72%) at main() level
                           2890 (73%) worst case
               Stack used: 6 locations (5 in main + 1 for interrupts)
               Stack size: 31

*
00000:  GOTO   4F10
*
00008:  MOVWF  04
0000A:  MOVFF  FD8,05
0000E:  MOVFF  FE0,06
00012:  MOVLB  0
00014:  MOVFF  FE9,0C
00018:  MOVFF  FEA,07
0001C:  MOVFF  FE1,08
00020:  MOVFF  FE2,09
00024:  MOVFF  FD9,0A
00028:  MOVFF  FDA,0B
0002C:  MOVFF  FF3,12
00030:  MOVFF  FF4,13
00034:  MOVFF  FFA,14
00038:  MOVFF  00,0E
0003C:  MOVFF  01,0F
00040:  MOVFF  02,10
00044:  MOVFF  03,11
00048:  BTFSS  FF2.5
0004A:  GOTO   0054
0004E:  BTFSC  FF2.2
00050:  GOTO   1B7C
00054:  BTFSS  F9D.0
00056:  GOTO   0060
0005A:  BTFSC  F9E.0
0005C:  GOTO   1B86
00060:  BTFSS  FF2.4
00062:  GOTO   006C
00066:  BTFSC  FF2.1
00068:  GOTO   1B66
0006C:  BTFSS  FF0.3
0006E:  GOTO   0078
00072:  BTFSC  FF0.0
00074:  GOTO   1B6E
00078:  BTFSS  FF0.4
0007A:  GOTO   0084
0007E:  BTFSC  FF0.1
00080:  GOTO   1B76
00084:  MOVFF  0E,00
00088:  MOVFF  0F,01
0008C:  MOVFF  10,02
00090:  MOVFF  11,03
00094:  MOVFF  0C,FE9
00098:  MOVFF  07,FEA
0009C:  BSF    07.7
0009E:  MOVFF  08,FE1
000A2:  MOVFF  09,FE2
000A6:  MOVFF  0A,FD9
000AA:  MOVFF  0B,FDA
000AE:  MOVFF  12,FF3
000B2:  MOVFF  13,FF4
000B6:  MOVFF  14,FFA
000BA:  MOVF   04,W
000BC:  MOVFF  06,FE0
000C0:  MOVFF  05,FD8
000C4:  RETFIE 0
.................... /*  
....................  * File:   Principal.c 
....................  * Author: Grupo5 
....................  * 
....................  * Created on 29 de mayo de 2016, 10:44 PM 
....................  */ 
....................  
.................... #include <Principal.h> 
.................... #include <18F4620.h> 
.................... //////////// Standard Header file for the PIC18F4620 device //////////////// 
.................... /////////////////////////////////////////////////////////////////////////// 
.................... ////        (C) Copyright 1996, 2013 Custom Computer Services          //// 
.................... //// This source code may only be used by licensed users of the CCS C  //// 
.................... //// compiler.  This source code may only be distributed to other      //// 
.................... //// licensed users of the CCS C compiler.  No other use, reproduction //// 
.................... //// or distribution is permitted without written permission.          //// 
.................... //// Derivative programs created using this software in object code    //// 
.................... //// form are not restricted in any way.                               //// 
.................... /////////////////////////////////////////////////////////////////////////// 
.................... #device PIC18F4620 
000C6:  MOVFF  FF2,0D
000CA:  BCF    FF2.7
000CC:  CLRF   FF7
000CE:  ADDLW  E0
000D0:  MOVWF  FF6
000D2:  MOVLW  00
000D4:  ADDWFC FF7,F
000D6:  TBLRD*+
000D8:  MOVF   FF5,W
000DA:  BTFSC  0D.7
000DC:  BSF    FF2.7
000DE:  RETURN 0
000E0:  DATA 00,00
000E2:  DATA 00,00
000E4:  DATA 00,00
000E6:  DATA 00,5F
000E8:  DATA 00,00
000EA:  DATA 00,03
000EC:  DATA 00,03
000EE:  DATA 00,14
000F0:  DATA 3E,14
000F2:  DATA 3E,14
000F4:  DATA 24,2A
000F6:  DATA 7F,2A
000F8:  DATA 12,43
000FA:  DATA 33,08
000FC:  DATA 66,61
000FE:  DATA 36,49
00100:  DATA 55,22
00102:  DATA 50,00
00104:  DATA 05,03
00106:  DATA 00,00
00108:  DATA 00,1C
0010A:  DATA 22,41
0010C:  DATA 00,00
0010E:  DATA 41,22
00110:  DATA 1C,00
00112:  DATA 14,08
00114:  DATA 3E,08
00116:  DATA 14,08
00118:  DATA 08,3E
0011A:  DATA 08,08
0011C:  DATA 00,50
0011E:  DATA 30,00
00120:  DATA 00,08
00122:  DATA 08,08
00124:  DATA 08,08
00126:  DATA 00,60
00128:  DATA 60,00
0012A:  DATA 00,20
0012C:  DATA 10,08
0012E:  DATA 04,02
00130:  DATA 3E,51
00132:  DATA 49,45
00134:  DATA 3E,00
00136:  DATA 04,02
00138:  DATA 7F,00
0013A:  DATA 42,61
0013C:  DATA 51,49
0013E:  DATA 46,22
00140:  DATA 41,49
00142:  DATA 49,36
00144:  DATA 18,14
00146:  DATA 12,7F
00148:  DATA 10,27
0014A:  DATA 45,45
0014C:  DATA 45,39
0014E:  DATA 3E,49
00150:  DATA 49,49
00152:  DATA 32,01
00154:  DATA 01,71
00156:  DATA 09,07
00158:  DATA 36,49
0015A:  DATA 49,49
0015C:  DATA 36,26
0015E:  DATA 49,49
00160:  DATA 49,3E
00162:  DATA 00,36
00164:  DATA 36,00
00166:  DATA 00,00
00168:  DATA 56,36
0016A:  DATA 00,00
0016C:  DATA 08,14
0016E:  DATA 22,41
00170:  DATA 00,14
00172:  DATA 14,14
00174:  DATA 14,14
00176:  DATA 00,41
00178:  DATA 22,14
0017A:  DATA 08,02
0017C:  DATA 01,51
0017E:  DATA 09,06
00180:  DATA 3E,41
00182:  DATA 59,55
00184:  DATA 5E,7E
00186:  DATA 09,09
00188:  DATA 09,7E
0018A:  DATA 7F,49
0018C:  DATA 49,49
0018E:  DATA 36,3E
00190:  DATA 41,41
00192:  DATA 41,22
00194:  DATA 7F,41
00196:  DATA 41,41
00198:  DATA 3E,7F
0019A:  DATA 49,49
0019C:  DATA 49,41
0019E:  DATA 7F,09
001A0:  DATA 09,09
001A2:  DATA 01,3E
001A4:  DATA 41,41
001A6:  DATA 49,3A
001A8:  DATA 7F,08
001AA:  DATA 08,08
001AC:  DATA 7F,00
001AE:  DATA 41,7F
001B0:  DATA 41,00
001B2:  DATA 30,40
001B4:  DATA 40,40
001B6:  DATA 3F,7F
001B8:  DATA 08,14
001BA:  DATA 22,41
001BC:  DATA 7F,40
001BE:  DATA 40,40
001C0:  DATA 40,7F
001C2:  DATA 02,0C
001C4:  DATA 02,7F
001C6:  DATA 7F,02
001C8:  DATA 04,08
001CA:  DATA 7F,3E
001CC:  DATA 41,41
001CE:  DATA 41,3E
001D0:  DATA 7F,09
001D2:  DATA 09,09
001D4:  DATA 06,1E
001D6:  DATA 21,21
001D8:  DATA 21,5E
001DA:  DATA 7F,09
001DC:  DATA 09,09
001DE:  DATA 76,00
001E0:  MOVFF  FF2,0D
001E4:  BCF    FF2.7
001E6:  CLRF   FF7
001E8:  ADDLW  FA
001EA:  MOVWF  FF6
001EC:  MOVLW  01
001EE:  ADDWFC FF7,F
001F0:  TBLRD*+
001F2:  MOVF   FF5,W
001F4:  BTFSC  0D.7
001F6:  BSF    FF2.7
001F8:  RETURN 0
001FA:  DATA 26,49
001FC:  DATA 49,49
001FE:  DATA 32,01
00200:  DATA 01,7F
00202:  DATA 01,01
00204:  DATA 3F,40
00206:  DATA 40,40
00208:  DATA 3F,1F
0020A:  DATA 20,40
0020C:  DATA 20,1F
0020E:  DATA 7F,20
00210:  DATA 10,20
00212:  DATA 7F,41
00214:  DATA 22,1C
00216:  DATA 22,41
00218:  DATA 07,08
0021A:  DATA 70,08
0021C:  DATA 07,61
0021E:  DATA 51,49
00220:  DATA 45,43
00222:  DATA 00,7F
00224:  DATA 41,00
00226:  DATA 00,02
00228:  DATA 04,08
0022A:  DATA 10,20
0022C:  DATA 00,00
0022E:  DATA 41,7F
00230:  DATA 00,04
00232:  DATA 02,01
00234:  DATA 02,04
00236:  DATA 40,40
00238:  DATA 40,40
0023A:  DATA 40,00
0023C:  DATA 01,02
0023E:  DATA 04,00
00240:  DATA 20,54
00242:  DATA 54,54
00244:  DATA 78,7F
00246:  DATA 44,44
00248:  DATA 44,38
0024A:  DATA 38,44
0024C:  DATA 44,44
0024E:  DATA 44,38
00250:  DATA 44,44
00252:  DATA 44,7F
00254:  DATA 38,54
00256:  DATA 54,54
00258:  DATA 18,04
0025A:  DATA 04,7E
0025C:  DATA 05,05
0025E:  DATA 08,54
00260:  DATA 54,54
00262:  DATA 3C,7F
00264:  DATA 08,04
00266:  DATA 04,78
00268:  DATA 00,44
0026A:  DATA 7D,40
0026C:  DATA 00,20
0026E:  DATA 40,44
00270:  DATA 3D,00
00272:  DATA 7F,10
00274:  DATA 28,44
00276:  DATA 00,00
00278:  DATA 41,7F
0027A:  DATA 40,00
0027C:  DATA 7C,04
0027E:  DATA 78,04
00280:  DATA 78,7C
00282:  DATA 08,04
00284:  DATA 04,78
00286:  DATA 38,44
00288:  DATA 44,44
0028A:  DATA 38,7C
0028C:  DATA 14,14
0028E:  DATA 14,08
00290:  DATA 08,14
00292:  DATA 14,14
00294:  DATA 7C,00
00296:  DATA 7C,08
00298:  DATA 04,04
0029A:  DATA 48,54
0029C:  DATA 54,54
0029E:  DATA 20,04
002A0:  DATA 04,3F
002A2:  DATA 44,44
002A4:  DATA 3C,40
002A6:  DATA 40,20
002A8:  DATA 7C,1C
002AA:  DATA 20,40
002AC:  DATA 20,1C
002AE:  DATA 3C,40
002B0:  DATA 30,40
002B2:  DATA 3C,44
002B4:  DATA 28,10
002B6:  DATA 28,44
002B8:  DATA 0C,50
002BA:  DATA 50,50
002BC:  DATA 3C,44
002BE:  DATA 64,54
002C0:  DATA 4C,44
002C2:  DATA 00,08
002C4:  DATA 36,41
002C6:  DATA 41,00
002C8:  DATA 00,7F
002CA:  DATA 00,00
002CC:  DATA 41,41
002CE:  DATA 36,08
002D0:  DATA 00,02
002D2:  DATA 01,02
002D4:  DATA 04,02
002D6:  MOVFF  FF2,0D
002DA:  BCF    FF2.7
002DC:  ADDLW  EE
002DE:  MOVWF  FF6
002E0:  MOVLW  02
002E2:  ADDWFC FF7,F
002E4:  TBLRD*+
002E6:  MOVF   FF5,W
002E8:  BTFSC  0D.7
002EA:  BSF    FF2.7
002EC:  RETURN 0
002EE:  DATA 00,00
002F0:  DATA 00,00
002F2:  DATA 00,00
002F4:  DATA 00,00
002F6:  DATA 00,00
002F8:  DATA 00,00
002FA:  DATA 00,00
002FC:  DATA 00,00
002FE:  DATA 00,00
00300:  DATA 00,00
00302:  DATA 00,00
00304:  DATA 00,00
00306:  DATA 00,00
00308:  DATA 00,00
0030A:  DATA 00,00
0030C:  DATA 00,00
0030E:  DATA 00,00
00310:  DATA 00,00
00312:  DATA 00,00
00314:  DATA 00,00
00316:  DATA 00,00
00318:  DATA 00,00
0031A:  DATA 00,00
0031C:  DATA 00,00
0031E:  DATA 00,00
00320:  DATA 00,00
00322:  DATA 00,00
00324:  DATA 00,00
00326:  DATA 00,00
00328:  DATA 00,00
0032A:  DATA 00,00
0032C:  DATA 00,00
0032E:  DATA 00,00
00330:  DATA 00,00
00332:  DATA 00,00
00334:  DATA 00,00
00336:  DATA 00,00
00338:  DATA 00,00
0033A:  DATA 00,00
0033C:  DATA 00,00
0033E:  DATA 00,00
00340:  DATA 00,00
00342:  DATA 00,00
00344:  DATA 00,00
00346:  DATA 00,00
00348:  DATA 00,00
0034A:  DATA 00,00
0034C:  DATA 00,00
0034E:  DATA 00,00
00350:  DATA 00,00
00352:  DATA 00,00
00354:  DATA 00,00
00356:  DATA 00,00
00358:  DATA 00,00
0035A:  DATA 00,00
0035C:  DATA 00,00
0035E:  DATA 00,00
00360:  DATA 00,00
00362:  DATA 00,00
00364:  DATA 00,00
00366:  DATA 00,00
00368:  DATA 00,00
0036A:  DATA 00,00
0036C:  DATA 00,00
0036E:  DATA 00,00
00370:  DATA 00,00
00372:  DATA 00,00
00374:  DATA 00,00
00376:  DATA 00,00
00378:  DATA 00,00
0037A:  DATA 00,00
0037C:  DATA 00,00
0037E:  DATA 00,00
00380:  DATA 00,00
00382:  DATA 00,00
00384:  DATA 00,00
00386:  DATA 00,00
00388:  DATA 00,00
0038A:  DATA 00,00
0038C:  DATA 00,00
0038E:  DATA 00,00
00390:  DATA 00,00
00392:  DATA 00,00
00394:  DATA 00,00
00396:  DATA 00,00
00398:  DATA 00,00
0039A:  DATA 00,00
0039C:  DATA 00,00
0039E:  DATA 00,00
003A0:  DATA 00,00
003A2:  DATA 00,00
003A4:  DATA 00,00
003A6:  DATA 00,00
003A8:  DATA 00,00
003AA:  DATA 00,00
003AC:  DATA 00,00
003AE:  DATA 00,00
003B0:  DATA 00,00
003B2:  DATA 00,00
003B4:  DATA 00,00
003B6:  DATA 00,00
003B8:  DATA 00,00
003BA:  DATA 00,00
003BC:  DATA 00,00
003BE:  DATA 00,00
003C0:  DATA 00,00
003C2:  DATA 00,00
003C4:  DATA 00,00
003C6:  DATA 00,00
003C8:  DATA 00,00
003CA:  DATA 00,00
003CC:  DATA 00,00
003CE:  DATA 00,00
003D0:  DATA 00,00
003D2:  DATA 00,00
003D4:  DATA 00,00
003D6:  DATA 00,00
003D8:  DATA 00,00
003DA:  DATA 00,00
003DC:  DATA 00,00
003DE:  DATA 00,01
003E0:  DATA FF,00
003E2:  DATA 00,00
003E4:  DATA 00,00
003E6:  DATA 00,00
003E8:  DATA 00,00
003EA:  DATA 00,00
003EC:  DATA 00,00
003EE:  DATA 00,0F
003F0:  DATA FF,E0
003F2:  DATA 00,00
003F4:  DATA 00,00
003F6:  DATA 00,00
003F8:  DATA 00,00
003FA:  DATA 00,00
003FC:  DATA 00,00
003FE:  DATA 00,3F
00400:  DATA FF,F8
00402:  DATA 00,00
00404:  DATA 00,00
00406:  DATA 00,00
00408:  DATA 00,00
0040A:  DATA 00,00
0040C:  DATA 00,00
0040E:  DATA 00,FF
00410:  DATA 01,FE
00412:  DATA 00,00
00414:  DATA 00,00
00416:  DATA 00,00
00418:  DATA 00,00
0041A:  DATA 00,00
0041C:  DATA 00,00
0041E:  DATA 01,F8
00420:  DATA 00,1F
00422:  DATA 00,00
00424:  DATA 00,00
00426:  DATA 00,00
00428:  DATA 00,00
0042A:  DATA 00,00
0042C:  DATA 00,00
0042E:  DATA 03,E0
00430:  DATA 00,07
00432:  DATA 80,00
00434:  DATA 00,00
00436:  DATA 00,00
00438:  DATA 00,00
0043A:  DATA 00,00
0043C:  DATA 00,00
0043E:  DATA 07,80
00440:  DATA 00,03
00442:  DATA C0,00
00444:  DATA 00,00
00446:  DATA 00,00
00448:  DATA 00,00
0044A:  DATA 00,00
0044C:  DATA 00,00
0044E:  DATA 0F,00
00450:  DATA 00,01
00452:  DATA E0,00
00454:  DATA 00,00
00456:  DATA 00,00
00458:  DATA 00,00
0045A:  DATA 00,00
0045C:  DATA 00,00
0045E:  DATA 1E,00
00460:  DATA 00,00
00462:  DATA F0,00
00464:  DATA 00,00
00466:  DATA 00,00
00468:  DATA 00,00
0046A:  DATA 00,00
0046C:  DATA 00,00
0046E:  DATA 1C,00
00470:  DATA 00,07
00472:  DATA 70,00
00474:  DATA 00,00
00476:  DATA 00,00
00478:  DATA 00,00
0047A:  DATA 00,00
0047C:  DATA 00,00
0047E:  DATA 3C,00
00480:  DATA 00,1E
00482:  DATA 38,00
00484:  DATA 00,00
00486:  DATA 00,00
00488:  DATA 00,00
0048A:  DATA 00,00
0048C:  DATA 00,00
0048E:  DATA 38,00
00490:  DATA 00,78
00492:  DATA 38,00
00494:  DATA 00,00
00496:  DATA 00,00
00498:  DATA 00,00
0049A:  DATA 00,00
0049C:  DATA 00,00
0049E:  DATA 38,00
004A0:  DATA 01,F0
004A2:  DATA 3C,00
004A4:  DATA 00,00
004A6:  DATA 00,00
004A8:  DATA 00,00
004AA:  DATA 00,00
004AC:  DATA 00,00
004AE:  DATA 70,00
004B0:  DATA 07,C0
004B2:  DATA 1C,00
004B4:  DATA 00,00
004B6:  DATA 00,00
004B8:  DATA 00,00
004BA:  DATA 00,00
004BC:  DATA 00,00
004BE:  DATA 70,00
004C0:  DATA 1F,80
004C2:  DATA 1C,00
004C4:  DATA 00,00
004C6:  DATA 00,00
004C8:  DATA 00,00
004CA:  DATA 00,00
004CC:  DATA 00,00
004CE:  DATA 70,60
004D0:  DATA 3F,00
004D2:  DATA 1C,00
004D4:  DATA 00,00
004D6:  DATA 00,00
004D8:  DATA 00,00
004DA:  DATA 00,00
004DC:  DATA 00,00
004DE:  DATA 70,78
004E0:  DATA 7E,00
004E2:  DATA 1C,00
004E4:  DATA 00,00
004E6:  DATA 00,00
004E8:  DATA 00,00
004EA:  DATA 00,00
004EC:  DATA 00,00
004EE:  DATA 70,3C
004F0:  DATA FC,00
004F2:  DATA 1C,00
004F4:  DATA 00,00
004F6:  DATA 00,00
004F8:  DATA 00,00
004FA:  DATA 00,00
004FC:  DATA 00,00
004FE:  DATA 70,1F
00500:  DATA F8,00
00502:  DATA 1C,00
00504:  DATA 00,00
00506:  DATA 00,00
00508:  DATA 00,00
0050A:  DATA 00,00
0050C:  DATA 00,00
0050E:  DATA 38,0F
00510:  DATA F0,00
00512:  DATA 3C,00
00514:  DATA 00,00
00516:  DATA 00,00
00518:  DATA 00,00
0051A:  DATA 00,00
0051C:  DATA 00,00
0051E:  DATA 38,07
00520:  DATA F0,00
00522:  DATA 38,00
00524:  DATA 00,00
00526:  DATA 00,00
00528:  DATA 00,00
0052A:  DATA 00,00
0052C:  DATA 00,00
0052E:  DATA 38,07
00530:  DATA E0,00
00532:  DATA 38,00
00534:  DATA 00,00
00536:  DATA 00,00
00538:  DATA 00,00
0053A:  DATA 00,00
0053C:  DATA 00,00
0053E:  DATA 1C,03
00540:  DATA C0,00
00542:  DATA 70,00
00544:  DATA 00,00
00546:  DATA 00,00
00548:  DATA 00,00
0054A:  DATA 00,00
0054C:  DATA 00,00
0054E:  DATA 1E,01
00550:  DATA 80,00
00552:  DATA F0,00
00554:  DATA 00,00
00556:  DATA 00,00
00558:  DATA 00,00
0055A:  DATA 00,00
0055C:  DATA 00,00
0055E:  DATA 0F,00
00560:  DATA 00,01
00562:  DATA E0,00
00564:  DATA 00,00
00566:  DATA 00,00
00568:  DATA 00,00
0056A:  DATA 00,00
0056C:  DATA 00,00
0056E:  DATA 07,80
00570:  DATA 00,03
00572:  DATA C0,00
00574:  DATA 00,00
00576:  DATA 00,00
00578:  DATA 00,00
0057A:  DATA 00,00
0057C:  DATA 00,00
0057E:  DATA 03,C0
00580:  DATA 00,07
00582:  DATA 80,00
00584:  DATA 00,00
00586:  DATA 00,00
00588:  DATA 00,00
0058A:  DATA 00,00
0058C:  DATA 00,00
0058E:  DATA 01,F0
00590:  DATA 00,1F
00592:  DATA 00,00
00594:  DATA 00,00
00596:  DATA 00,00
00598:  DATA 00,00
0059A:  DATA 00,00
0059C:  DATA 00,00
0059E:  DATA 00,FE
005A0:  DATA 00,FE
005A2:  DATA 00,00
005A4:  DATA 00,00
005A6:  DATA 00,00
005A8:  DATA 00,00
005AA:  DATA 00,00
005AC:  DATA 00,00
005AE:  DATA 00,3F
005B0:  DATA FF,F8
005B2:  DATA 00,00
005B4:  DATA 00,00
005B6:  DATA 00,00
005B8:  DATA 00,00
005BA:  DATA 00,00
005BC:  DATA 00,00
005BE:  DATA 00,0F
005C0:  DATA FF,E0
005C2:  DATA 00,00
005C4:  DATA 00,00
005C6:  DATA 00,00
005C8:  DATA 00,00
005CA:  DATA 00,00
005CC:  DATA 00,00
005CE:  DATA 00,01
005D0:  DATA FF,00
005D2:  DATA 00,00
005D4:  DATA 00,00
005D6:  DATA 00,00
005D8:  DATA 00,00
005DA:  DATA 00,00
005DC:  DATA 00,00
005DE:  DATA 00,00
005E0:  DATA 00,00
005E2:  DATA 00,00
005E4:  DATA 00,00
005E6:  DATA 00,00
005E8:  DATA 00,00
005EA:  DATA 00,00
005EC:  DATA 00,00
005EE:  DATA 00,00
005F0:  DATA 00,00
005F2:  DATA 00,00
005F4:  DATA 00,00
005F6:  DATA 00,00
005F8:  DATA 00,00
005FA:  DATA 00,00
005FC:  DATA 00,00
005FE:  DATA 00,00
00600:  DATA 00,00
00602:  DATA 00,00
00604:  DATA 00,00
00606:  DATA 00,00
00608:  DATA 00,00
0060A:  DATA 00,00
0060C:  DATA 00,00
0060E:  DATA 00,00
00610:  DATA 00,00
00612:  DATA 00,00
00614:  DATA 00,00
00616:  DATA 00,00
00618:  DATA 00,00
0061A:  DATA 00,00
0061C:  DATA 00,00
0061E:  DATA 00,00
00620:  DATA 00,00
00622:  DATA 00,00
00624:  DATA 00,00
00626:  DATA 00,00
00628:  DATA 00,00
0062A:  DATA 00,00
0062C:  DATA 00,00
0062E:  DATA 00,00
00630:  DATA 00,00
00632:  DATA 00,00
00634:  DATA 00,00
00636:  DATA 00,00
00638:  DATA 00,00
0063A:  DATA 00,00
0063C:  DATA 00,00
0063E:  DATA 00,00
00640:  DATA 00,00
00642:  DATA 00,00
00644:  DATA 00,00
00646:  DATA 00,00
00648:  DATA 00,00
0064A:  DATA 00,00
0064C:  DATA 00,00
0064E:  DATA 00,00
00650:  DATA 00,00
00652:  DATA 00,00
00654:  DATA 00,00
00656:  DATA 00,00
00658:  DATA 00,00
0065A:  DATA 00,00
0065C:  DATA 00,00
0065E:  DATA 00,00
00660:  DATA 00,00
00662:  DATA 00,00
00664:  DATA 00,00
00666:  DATA 00,00
00668:  DATA 00,00
0066A:  DATA 00,00
0066C:  DATA 00,00
0066E:  DATA 00,00
00670:  DATA 00,00
00672:  DATA 00,00
00674:  DATA 00,00
00676:  DATA 00,00
00678:  DATA 00,00
0067A:  DATA 00,00
0067C:  DATA 00,00
0067E:  DATA 00,00
00680:  DATA 00,00
00682:  DATA 00,00
00684:  DATA 00,00
00686:  DATA 00,00
00688:  DATA 00,00
0068A:  DATA 00,00
0068C:  DATA 00,00
0068E:  DATA 00,00
00690:  DATA 00,00
00692:  DATA 00,00
00694:  DATA 00,00
00696:  DATA 00,00
00698:  DATA 00,00
0069A:  DATA 00,00
0069C:  DATA 00,00
0069E:  DATA 00,00
006A0:  DATA 00,00
006A2:  DATA 00,00
006A4:  DATA 00,00
006A6:  DATA 00,00
006A8:  DATA 00,00
006AA:  DATA 00,00
006AC:  DATA 00,00
006AE:  DATA 00,00
006B0:  DATA 00,00
006B2:  DATA 00,00
006B4:  DATA 00,00
006B6:  DATA 00,00
006B8:  DATA 00,00
006BA:  DATA 00,00
006BC:  DATA 00,00
006BE:  DATA 00,00
006C0:  DATA 00,00
006C2:  DATA 00,00
006C4:  DATA 00,00
006C6:  DATA 00,00
006C8:  DATA 00,00
006CA:  DATA 00,00
006CC:  DATA 00,00
006CE:  DATA 00,00
006D0:  DATA 00,00
006D2:  DATA 00,00
006D4:  DATA 00,00
006D6:  DATA 00,00
006D8:  DATA 00,00
006DA:  DATA 00,00
006DC:  DATA 00,00
006DE:  DATA 00,00
006E0:  DATA 00,00
006E2:  DATA 00,00
006E4:  DATA 00,00
006E6:  DATA 00,00
006E8:  DATA 00,00
006EA:  DATA 00,00
006EC:  DATA 00,00
006EE:  MOVFF  FF2,0D
006F2:  BCF    FF2.7
006F4:  ADDLW  06
006F6:  MOVWF  FF6
006F8:  MOVLW  07
006FA:  ADDWFC FF7,F
006FC:  TBLRD*+
006FE:  MOVF   FF5,W
00700:  BTFSC  0D.7
00702:  BSF    FF2.7
00704:  RETURN 0
00706:  DATA FF,FF
00708:  DATA FF,FF
0070A:  DATA FF,FF
0070C:  DATA FF,FF
0070E:  DATA FF,FF
00710:  DATA FF,FF
00712:  DATA FF,FF
00714:  DATA FF,FF
00716:  DATA FF,FF
00718:  DATA FF,FF
0071A:  DATA FF,FF
0071C:  DATA FF,FF
0071E:  DATA FF,FF
00720:  DATA FF,FF
00722:  DATA FF,FF
00724:  DATA FF,FF
00726:  DATA FF,FF
00728:  DATA E0,00
0072A:  DATA 00,00
0072C:  DATA 00,00
0072E:  DATA 00,00
00730:  DATA 00,00
00732:  DATA 00,07
00734:  DATA FF,FF
00736:  DATA FF,FF
00738:  DATA 80,00
0073A:  DATA 00,00
0073C:  DATA 00,00
0073E:  DATA 00,00
00740:  DATA 00,00
00742:  DATA 00,01
00744:  DATA FF,FF
00746:  DATA FF,FF
00748:  DATA 00,00
0074A:  DATA 00,00
0074C:  DATA 00,00
0074E:  DATA 00,00
00750:  DATA 00,00
00752:  DATA 00,00
00754:  DATA FF,FF
00756:  DATA FF,FF
00758:  DATA 00,00
0075A:  DATA 00,00
0075C:  DATA 00,00
0075E:  DATA 00,00
00760:  DATA 00,00
00762:  DATA 00,00
00764:  DATA FF,FF
00766:  DATA FF,FE
00768:  DATA 00,00
0076A:  DATA 00,00
0076C:  DATA 00,00
0076E:  DATA 00,00
00770:  DATA 00,00
00772:  DATA 00,00
00774:  DATA 7F,FF
00776:  DATA FF,FE
00778:  DATA 0C,19
0077A:  DATA F3,1B
0077C:  DATA 7E,F9
0077E:  DATA F3,7C
00780:  DATA 63,1B
00782:  DATA E1,F0
00784:  DATA 7F,FF
00786:  DATA FF,FE
00788:  DATA 0E,3B
0078A:  DATA 1B,9B
0078C:  DATA 19,8D
0078E:  DATA 9B,0C
00790:  DATA 63,9B
00792:  DATA 33,18
00794:  DATA 7F,FF
00796:  DATA FF,FE
00798:  DATA 0E,3B
0079A:  DATA 1B,9B
0079C:  DATA 19,8D
0079E:  DATA 9B,18
007A0:  DATA F3,9B
007A2:  DATA 1B,18
007A4:  DATA 7F,FF
007A6:  DATA FF,FE
007A8:  DATA 0F,7B
007AA:  DATA 1B,5B
007AC:  DATA 19,8D
007AE:  DATA F3,18
007B0:  DATA 93,5B
007B2:  DATA 1B,18
007B4:  DATA 7F,FF
007B6:  DATA FF,FE
007B8:  DATA 0D,5B
007BA:  DATA 1B,5B
007BC:  DATA 19,8D
007BE:  DATA B3,31
007C0:  DATA 9B,5B
007C2:  DATA 1B,18
007C4:  DATA 7F,FF
007C6:  DATA FF,FE
007C8:  DATA 0D,DB
007CA:  DATA 1B,3B
007CC:  DATA 19,8D
007CE:  DATA 9B,31
007D0:  DATA FB,3B
007D2:  DATA 1B,18
007D4:  DATA 7F,FF
007D6:  DATA FF,FE
007D8:  DATA 0C,9B
007DA:  DATA 1B,3B
007DC:  DATA 19,8D
007DE:  DATA 9B,61
007E0:  DATA 9B,3B
007E2:  DATA 33,18
007E4:  DATA 7F,FF
007E6:  DATA FF,FE
007E8:  DATA 0C,99
007EA:  DATA F3,1B
007EC:  DATA 18,F9
007EE:  DATA 9B,7D
007F0:  DATA 9B,1B
007F2:  DATA E1,F0
007F4:  DATA 7F,FF
007F6:  DATA FF,FE
007F8:  DATA 00,00
007FA:  DATA 00,00
007FC:  DATA 00,00
007FE:  DATA 00,00
00800:  DATA 00,00
00802:  DATA 00,00
00804:  DATA 7F,FF
00806:  DATA FF,FF
00808:  DATA 00,00
0080A:  DATA 00,00
0080C:  DATA 00,00
0080E:  DATA 00,00
00810:  DATA 00,00
00812:  DATA 00,00
00814:  DATA FF,FF
00816:  DATA FF,FF
00818:  DATA 00,00
0081A:  DATA 00,00
0081C:  DATA 00,00
0081E:  DATA 00,00
00820:  DATA 00,00
00822:  DATA 00,00
00824:  DATA FF,FF
00826:  DATA FF,FF
00828:  DATA 80,00
0082A:  DATA 00,00
0082C:  DATA 00,00
0082E:  DATA 00,00
00830:  DATA 00,00
00832:  DATA 00,01
00834:  DATA FF,FF
00836:  DATA FF,FF
00838:  DATA E0,00
0083A:  DATA 00,00
0083C:  DATA 00,00
0083E:  DATA 00,00
00840:  DATA 00,00
00842:  DATA 00,07
00844:  DATA FF,FF
00846:  DATA FF,FF
00848:  DATA FF,FF
0084A:  DATA FF,FF
0084C:  DATA FF,FF
0084E:  DATA FF,FF
00850:  DATA FF,FF
00852:  DATA FF,FF
00854:  DATA FF,FF
00856:  DATA FF,FF
00858:  DATA FF,FF
0085A:  DATA FF,FF
0085C:  DATA FF,FF
0085E:  DATA FF,FF
00860:  DATA FF,FF
00862:  DATA FF,FF
00864:  DATA FF,FF
00866:  DATA F8,00
00868:  DATA 00,00
0086A:  DATA 00,00
0086C:  DATA 00,7F
0086E:  DATA C0,00
00870:  DATA 00,00
00872:  DATA 00,00
00874:  DATA 00,3F
00876:  DATA F0,FE
00878:  DATA 00,00
0087A:  DATA 00,00
0087C:  DATA 00,1F
0087E:  DATA 00,00
00880:  DATA 00,00
00882:  DATA 00,00
00884:  DATA 00,0F
00886:  DATA E1,FF
00888:  DATA 00,00
0088A:  DATA 00,00
0088C:  DATA 00,0E
0088E:  DATA 00,00
00890:  DATA 00,00
00892:  DATA 00,00
00894:  DATA 00,07
00896:  DATA C1,FF
00898:  DATA 00,00
0089A:  DATA 00,00
0089C:  DATA 00,0E
0089E:  DATA 7F,00
008A0:  DATA 00,00
008A2:  DATA 00,00
008A4:  DATA 00,07
008A6:  DATA FF,FF
008A8:  DATA 00,00
008AA:  DATA 00,00
008AC:  DATA 00,04
008AE:  DATA 21,40
008B0:  DATA 00,00
008B2:  DATA 00,00
008B4:  DATA 00,03
008B6:  DATA FF,FF
008B8:  DATA 00,00
008BA:  DATA 00,00
008BC:  DATA 00,04
008BE:  DATA 10,00
008C0:  DATA 00,00
008C2:  DATA 00,00
008C4:  DATA 00,03
008C6:  DATA FF,FF
008C8:  DATA 00,00
008CA:  DATA 00,00
008CC:  DATA 00,04
008CE:  DATA 08,00
008D0:  DATA 00,00
008D2:  DATA 00,00
008D4:  DATA 00,03
008D6:  DATA FF,FF
008D8:  DATA 00,00
008DA:  DATA 00,00
008DC:  DATA 00,04
008DE:  DATA 10,00
008E0:  DATA 00,00
008E2:  DATA 00,00
008E4:  DATA 00,03
008E6:  DATA C1,FF
008E8:  DATA 00,00
008EA:  DATA 00,00
008EC:  DATA 00,04
008EE:  DATA 21,40
008F0:  DATA 00,00
008F2:  DATA 00,00
008F4:  DATA 00,03
008F6:  DATA E0,AA
008F8:  DATA 00,00
008FA:  DATA 00,00
008FC:  DATA 00,0E
008FE:  DATA 7F,00
00900:  DATA 00,00
00902:  DATA 00,00
00904:  DATA 00,07
00906:  DATA E0,00
00908:  DATA 00,00
0090A:  DATA 00,00
0090C:  DATA 00,0E
0090E:  DATA 00,00
00910:  DATA 00,00
00912:  DATA 00,00
00914:  DATA 00,07
00916:  DATA F0,AA
00918:  DATA 00,00
0091A:  DATA 00,00
0091C:  DATA 00,1F
0091E:  DATA 00,00
00920:  DATA 00,00
00922:  DATA 00,00
00924:  DATA 00,0F
00926:  DATA FC,00
00928:  DATA 00,00
0092A:  DATA 00,00
0092C:  DATA 00,7F
0092E:  DATA C0,00
00930:  DATA 00,00
00932:  DATA 00,00
00934:  DATA 00,3F
00936:  DATA FF,FF
00938:  DATA FF,FF
0093A:  DATA FF,FF
0093C:  DATA FF,FF
0093E:  DATA FF,FF
00940:  DATA FF,FF
00942:  DATA FF,FF
00944:  DATA FF,FF
00946:  DATA FC,00
00948:  DATA 00,00
0094A:  DATA 00,00
0094C:  DATA 00,7F
0094E:  DATA C0,00
00950:  DATA 00,10
00952:  DATA 00,00
00954:  DATA 00,3F
00956:  DATA F0,70
00958:  DATA 00,00
0095A:  DATA 00,00
0095C:  DATA 00,1F
0095E:  DATA 1C,00
00960:  DATA 00,10
00962:  DATA 00,00
00964:  DATA 00,0F
00966:  DATA E0,F8
00968:  DATA 00,00
0096A:  DATA 00,00
0096C:  DATA 00,0E
0096E:  DATA 7F,00
00970:  DATA 00,10
00972:  DATA 00,00
00974:  DATA 00,07
00976:  DATA E0,F8
00978:  DATA 00,00
0097A:  DATA 00,00
0097C:  DATA 00,0E
0097E:  DATA 5F,00
00980:  DATA 00,10
00982:  DATA E0,00
00984:  DATA 00,07
00986:  DATA C0,F8
00988:  DATA 00,00
0098A:  DATA 00,00
0098C:  DATA 00,04
0098E:  DATA 7F,00
00990:  DATA 00,11
00992:  DATA F0,00
00994:  DATA 00,03
00996:  DATA C0,70
00998:  DATA 00,00
0099A:  DATA 00,00
0099C:  DATA 00,04
0099E:  DATA 7F,20
009A0:  DATA 00,11
009A2:  DATA B1,10
009A4:  DATA 00,03
009A6:  DATA C7,77
009A8:  DATA 00,00
009AA:  DATA 00,00
009AC:  DATA 00,04
009AE:  DATA 1C,00
009B0:  DATA 00,11
009B2:  DATA 84,80
009B4:  DATA 00,03
009B6:  DATA C2,72
009B8:  DATA 00,00
009BA:  DATA 00,00
009BC:  DATA 00,04
009BE:  DATA 7F,00
009C0:  DATA 00,11
009C2:  DATA 92,80
009C4:  DATA 00,03
009C6:  DATA CF,FF
009C8:  DATA 80,00
009CA:  DATA 00,00
009CC:  DATA 00,04
009CE:  DATA 7F,00
009D0:  DATA 00,11
009D2:  DATA 84,80
009D4:  DATA 00,03
009D6:  DATA EF,FF
009D8:  DATA 80,00
009DA:  DATA 00,00
009DC:  DATA 00,0E
009DE:  DATA 3E,20
009E0:  DATA 00,13
009E2:  DATA F1,10
009E4:  DATA 00,07
009E6:  DATA E0,00
009E8:  DATA 00,00
009EA:  DATA 00,00
009EC:  DATA 00,0E
009EE:  DATA 1C,00
009F0:  DATA 00,10
009F2:  DATA 00,00
009F4:  DATA 00,07
009F6:  DATA F0,00
009F8:  DATA 00,00
009FA:  DATA 00,00
009FC:  DATA 00,1F
009FE:  DATA 00,00
00A00:  DATA 00,10
00A02:  DATA 00,00
00A04:  DATA 00,0F
00A06:  DATA FC,00
00A08:  DATA 00,00
00A0A:  DATA 00,00
00A0C:  DATA 00,7F
00A0E:  DATA C0,00
00A10:  DATA 00,10
00A12:  DATA 00,00
00A14:  DATA 00,3F
00A16:  DATA FF,FF
00A18:  DATA FF,FF
00A1A:  DATA FF,FF
00A1C:  DATA FF,FF
00A1E:  DATA FF,FF
00A20:  DATA FF,FF
00A22:  DATA FF,FF
00A24:  DATA FF,FF
00A26:  DATA FC,00
00A28:  DATA 00,00
00A2A:  DATA 00,00
00A2C:  DATA 00,7F
00A2E:  DATA C0,00
00A30:  DATA 00,00
00A32:  DATA 00,00
00A34:  DATA 00,3F
00A36:  DATA F0,38
00A38:  DATA 00,00
00A3A:  DATA 00,00
00A3C:  DATA 00,1F
00A3E:  DATA 36,C0
00A40:  DATA 00,00
00A42:  DATA 00,00
00A44:  DATA 00,0F
00A46:  DATA E2,10
00A48:  DATA 00,00
00A4A:  DATA 00,00
00A4C:  DATA 00,0E
00A4E:  DATA 7F,E0
00A50:  DATA 00,00
00A52:  DATA 00,00
00A54:  DATA 00,07
00A56:  DATA E3,18
00A58:  DATA 00,00
00A5A:  DATA 00,00
00A5C:  DATA 00,0E
00A5E:  DATA 7F,E0
00A60:  DATA 00,00
00A62:  DATA 00,00
00A64:  DATA 00,07
00A66:  DATA C7,90
00A68:  DATA 00,00
00A6A:  DATA 00,00
00A6C:  DATA 00,04
00A6E:  DATA 60,20
00A70:  DATA 00,00
00A72:  DATA 00,00
00A74:  DATA 00,03
00A76:  DATA CF,D8
00A78:  DATA 00,00
00A7A:  DATA 00,00
00A7C:  DATA 00,04
00A7E:  DATA 62,A0
00A80:  DATA 00,00
00A82:  DATA 00,00
00A84:  DATA 00,03
00A86:  DATA CF,D0
00A88:  DATA 00,00
00A8A:  DATA 00,00
00A8C:  DATA 00,04
00A8E:  DATA 60,20
00A90:  DATA 00,00
00A92:  DATA 00,00
00A94:  DATA 00,03
00A96:  DATA CF,D8
00A98:  DATA 00,00
00A9A:  DATA 00,00
00A9C:  DATA 00,04
00A9E:  DATA 6A,A0
00AA0:  DATA 00,00
00AA2:  DATA 00,00
00AA4:  DATA 00,03
00AA6:  DATA ED,D0
00AA8:  DATA 00,00
00AAA:  DATA 00,00
00AAC:  DATA 00,0E
00AAE:  DATA 60,20
00AB0:  DATA 00,00
00AB2:  DATA 00,00
00AB4:  DATA 00,07
00AB6:  DATA E7,B8
00AB8:  DATA 00,00
00ABA:  DATA 00,00
00ABC:  DATA 00,0E
00ABE:  DATA 7F,E0
00AC0:  DATA 00,00
00AC2:  DATA 00,00
00AC4:  DATA 00,07
00AC6:  DATA F0,00
00AC8:  DATA 00,00
00ACA:  DATA 00,00
00ACC:  DATA 00,1F
00ACE:  DATA 00,00
00AD0:  DATA 00,00
00AD2:  DATA 00,00
00AD4:  DATA 00,0F
00AD6:  DATA FC,00
00AD8:  DATA 00,00
00ADA:  DATA 00,00
00ADC:  DATA 00,7F
00ADE:  DATA C0,00
00AE0:  DATA 00,00
00AE2:  DATA 00,00
00AE4:  DATA 00,3F
00AE6:  DATA FF,FF
00AE8:  DATA FF,FF
00AEA:  DATA FF,FF
00AEC:  DATA FF,FF
00AEE:  DATA FF,FF
00AF0:  DATA FF,FF
00AF2:  DATA FF,FF
00AF4:  DATA FF,FF
00AF6:  DATA FF,FF
00AF8:  DATA FF,FF
00AFA:  DATA FF,FF
00AFC:  DATA FF,FF
00AFE:  DATA FF,FF
00B00:  DATA FF,FF
00B02:  DATA FF,FF
00B04:  DATA FF,FF
00B06:  MOVFF  FF2,0D
00B0A:  BCF    FF2.7
00B0C:  ADDLW  1E
00B0E:  MOVWF  FF6
00B10:  MOVLW  0B
00B12:  ADDWFC FF7,F
00B14:  TBLRD*+
00B16:  MOVF   FF5,W
00B18:  BTFSC  0D.7
00B1A:  BSF    FF2.7
00B1C:  RETURN 0
00B1E:  DATA FF,FF
00B20:  DATA FF,FF
00B22:  DATA FF,FF
00B24:  DATA FF,FF
00B26:  DATA FF,FF
00B28:  DATA FF,FF
00B2A:  DATA FF,FF
00B2C:  DATA FF,FF
00B2E:  DATA FF,FF
00B30:  DATA FF,FF
00B32:  DATA FF,FF
00B34:  DATA FF,FF
00B36:  DATA FF,FF
00B38:  DATA FF,FF
00B3A:  DATA FF,FF
00B3C:  DATA FF,FF
00B3E:  DATA FF,FF
00B40:  DATA FF,FF
00B42:  DATA FF,FF
00B44:  DATA FF,FF
00B46:  DATA FF,FF
00B48:  DATA FF,FF
00B4A:  DATA FF,FF
00B4C:  DATA FF,FF
00B4E:  DATA E0,00
00B50:  DATA 00,00
00B52:  DATA 00,00
00B54:  DATA 00,00
00B56:  DATA 00,00
00B58:  DATA 00,00
00B5A:  DATA 00,00
00B5C:  DATA 00,07
00B5E:  DATA E0,00
00B60:  DATA 00,00
00B62:  DATA 00,00
00B64:  DATA 00,00
00B66:  DATA 00,00
00B68:  DATA 00,00
00B6A:  DATA 00,00
00B6C:  DATA 00,07
00B6E:  DATA E0,00
00B70:  DATA 00,00
00B72:  DATA 00,00
00B74:  DATA 00,00
00B76:  DATA 00,00
00B78:  DATA 00,00
00B7A:  DATA 00,00
00B7C:  DATA 00,07
00B7E:  DATA E0,00
00B80:  DATA 00,00
00B82:  DATA 00,00
00B84:  DATA 00,00
00B86:  DATA 00,00
00B88:  DATA 00,00
00B8A:  DATA 00,00
00B8C:  DATA 00,07
00B8E:  DATA E0,00
00B90:  DATA 00,00
00B92:  DATA 00,00
00B94:  DATA 00,00
00B96:  DATA 00,00
00B98:  DATA 00,00
00B9A:  DATA 00,00
00B9C:  DATA 00,07
00B9E:  DATA E0,00
00BA0:  DATA 00,00
00BA2:  DATA 00,00
00BA4:  DATA 00,00
00BA6:  DATA 00,00
00BA8:  DATA 00,00
00BAA:  DATA 00,00
00BAC:  DATA 00,07
00BAE:  DATA E0,00
00BB0:  DATA 00,00
00BB2:  DATA 00,00
00BB4:  DATA 00,00
00BB6:  DATA 00,00
00BB8:  DATA 00,7F
00BBA:  DATA FF,FF
00BBC:  DATA FF,FF
00BBE:  DATA E0,00
00BC0:  DATA 00,00
00BC2:  DATA 00,00
00BC4:  DATA 00,00
00BC6:  DATA 00,00
00BC8:  DATA 00,80
00BCA:  DATA 00,00
00BCC:  DATA 00,0F
00BCE:  DATA E0,00
00BD0:  DATA 00,00
00BD2:  DATA 00,00
00BD4:  DATA 00,00
00BD6:  DATA 00,00
00BD8:  DATA 01,1F
00BDA:  DATA 8F,00
00BDC:  DATA 00,17
00BDE:  DATA E0,00
00BE0:  DATA 00,00
00BE2:  DATA 00,00
00BE4:  DATA 00,00
00BE6:  DATA 00,00
00BE8:  DATA 02,00
00BEA:  DATA 1F,3F
00BEC:  DATA FE,27
00BEE:  DATA E0,00
00BF0:  DATA 00,00
00BF2:  DATA 00,00
00BF4:  DATA 00,00
00BF6:  DATA 00,00
00BF8:  DATA 05,FF
00BFA:  DATA DE,40
00BFC:  DATA 00,47
00BFE:  DATA E0,04
00C00:  DATA 00,00
00C02:  DATA 00,00
00C04:  DATA 00,00
00C06:  DATA 00,00
00C08:  DATA 0B,7F
00C0A:  DATA C0,87
00C0C:  DATA F0,87
00C0E:  DATA E0,06
00C10:  DATA 00,0E
00C12:  DATA 67,3F
00C14:  DATA 7D,83
00C16:  DATA 1C,00
00C18:  DATA 17,FF
00C1A:  DATA E1,08
00C1C:  DATA 01,07
00C1E:  DATA E0,07
00C20:  DATA 00,19
00C22:  DATA 6C,8C
00C24:  DATA 61,C7
00C26:  DATA 1C,00
00C28:  DATA 2F,FF
00C2A:  DATA 3E,10
00C2C:  DATA 02,07
00C2E:  DATA E0,07
00C30:  DATA 80,18
00C32:  DATA 6C,0C
00C34:  DATA 61,C7
00C36:  DATA 36,00
00C38:  DATA 5F,FF
00C3A:  DATA 80,21
00C3C:  DATA 84,07
00C3E:  DATA E0,07
00C40:  DATA 80,1E
00C42:  DATA 6F,0C
00C44:  DATA 7D,EF
00C46:  DATA 36,00
00C48:  DATA BF,FC
00C4A:  DATA FF,C2
00C4C:  DATA 08,07
00C4E:  DATA E0,07
00C50:  DATA C0,0F
00C52:  DATA 67,8C
00C54:  DATA 61,AB
00C56:  DATA 36,01
00C58:  DATA 7F,FE
00C5A:  DATA 00,04
00C5C:  DATA 10,07
00C5E:  DATA E0,0F
00C60:  DATA E0,03
00C62:  DATA 61,8C
00C64:  DATA 61,BB
00C66:  DATA 7F,02
00C68:  DATA FF,F3
00C6A:  DATA FF,F8
00C6C:  DATA 20,07
00C6E:  DATA E0,0F
00C70:  DATA E0,13
00C72:  DATA 69,8C
00C74:  DATA 61,93
00C76:  DATA 63,05
00C78:  DATA FF,F8
00C7A:  DATA 00,00
00C7C:  DATA 40,07
00C7E:  DATA E0,0F
00C80:  DATA F0,0E
00C82:  DATA 67,0C
00C84:  DATA 7D,93
00C86:  DATA 63,09
00C88:  DATA FF,CF
00C8A:  DATA FF,F8
00C8C:  DATA 80,07
00C8E:  DATA E0,1F
00C90:  DATA F8,00
00C92:  DATA 00,00
00C94:  DATA 00,00
00C96:  DATA 00,10
00C98:  DATA 00,00
00C9A:  DATA 00,01
00C9C:  DATA 00,07
00C9E:  DATA E0,1F
00CA0:  DATA F8,00
00CA2:  DATA 00,00
00CA4:  DATA 00,00
00CA6:  DATA 00,3F
00CA8:  DATA FF,FF
00CAA:  DATA FF,FE
00CAC:  DATA 00,07
00CAE:  DATA E0,3F
00CB0:  DATA FC,00
00CB2:  DATA 00,00
00CB4:  DATA 00,00
00CB6:  DATA 00,00
00CB8:  DATA 00,00
00CBA:  DATA 00,00
00CBC:  DATA 00,07
00CBE:  DATA E0,7F
00CC0:  DATA FC,00
00CC2:  DATA 00,00
00CC4:  DATA 00,00
00CC6:  DATA 00,00
00CC8:  DATA 00,00
00CCA:  DATA 00,00
00CCC:  DATA 00,07
00CCE:  DATA E0,FF
00CD0:  DATA FE,00
00CD2:  DATA 00,00
00CD4:  DATA 00,00
00CD6:  DATA 00,00
00CD8:  DATA 00,00
00CDA:  DATA 00,00
00CDC:  DATA 00,07
00CDE:  DATA E0,FF
00CE0:  DATA FE,00
00CE2:  DATA 00,00
00CE4:  DATA 00,00
00CE6:  DATA 00,00
00CE8:  DATA 00,00
00CEA:  DATA 00,00
00CEC:  DATA 00,07
00CEE:  DATA E1,FF
00CF0:  DATA FF,00
00CF2:  DATA 00,00
00CF4:  DATA 00,00
00CF6:  DATA 00,00
00CF8:  DATA 00,00
00CFA:  DATA 00,00
00CFC:  DATA 00,07
00CFE:  DATA E1,FF
00D00:  DATA FF,0F
00D02:  DATA 9E,3E
00D04:  DATA 31,8F
00D06:  DATA 8C,1B
00D08:  DATA 7E,70
00D0A:  DATA F8,7C
00D0C:  DATA 7C,07
00D0E:  DATA E1,FF
00D10:  DATA FF,0C
00D12:  DATA 31,63
00D14:  DATA 39,98
00D16:  DATA CE,3B
00D18:  DATA 06,70
00D1A:  DATA CC,C6
00D1C:  DATA 66,07
00D1E:  DATA E1,FF
00D20:  DATA FF,0C
00D22:  DATA 30,63
00D24:  DATA 39,98
00D26:  DATA CE,3B
00D28:  DATA 0C,D8
00D2A:  DATA CC,C6
00D2C:  DATA 66,07
00D2E:  DATA E1,FF
00D30:  DATA FF,0F
00D32:  DATA B0,63
00D34:  DATA 35,98
00D36:  DATA CF,7B
00D38:  DATA 18,D8
00D3A:  DATA CC,C6
00D3C:  DATA 7C,07
00D3E:  DATA E0,EF
00D40:  DATA FE,0C
00D42:  DATA 30,63
00D44:  DATA 35,98
00D46:  DATA CD,5B
00D48:  DATA 18,D8
00D4A:  DATA CC,C6
00D4C:  DATA 6C,07
00D4E:  DATA E0,E7
00D50:  DATA FE,0C
00D52:  DATA 30,63
00D54:  DATA 33,98
00D56:  DATA CD,DB
00D58:  DATA 31,FC
00D5A:  DATA CC,C6
00D5C:  DATA 66,07
00D5E:  DATA E0,7F
00D60:  DATA FC,0C
00D62:  DATA 31,63
00D64:  DATA 33,98
00D66:  DATA CC,9B
00D68:  DATA 61,8C
00D6A:  DATA CC,C6
00D6C:  DATA 66,07
00D6E:  DATA E0,3F
00D70:  DATA F8,0F
00D72:  DATA 9E,3E
00D74:  DATA 31,8F
00D76:  DATA 8C,9B
00D78:  DATA 7F,8C
00D7A:  DATA F8,7C
00D7C:  DATA 66,07
00D7E:  DATA E0,1F
00D80:  DATA F0,00
00D82:  DATA 00,00
00D84:  DATA 00,00
00D86:  DATA 00,00
00D88:  DATA 00,00
00D8A:  DATA 00,00
00D8C:  DATA 00,07
00D8E:  DATA E0,07
00D90:  DATA C0,00
00D92:  DATA 00,00
00D94:  DATA 00,00
00D96:  DATA 00,00
00D98:  DATA 00,00
00D9A:  DATA 00,00
00D9C:  DATA 00,07
00D9E:  DATA E0,00
00DA0:  DATA 00,00
00DA2:  DATA 00,00
00DA4:  DATA 00,00
00DA6:  DATA 00,00
00DA8:  DATA 00,00
00DAA:  DATA 00,00
00DAC:  DATA 00,07
00DAE:  DATA E0,00
00DB0:  DATA 00,00
00DB2:  DATA 00,00
00DB4:  DATA 00,00
00DB6:  DATA 00,00
00DB8:  DATA 00,00
00DBA:  DATA 00,00
00DBC:  DATA 00,07
00DBE:  DATA E0,00
00DC0:  DATA 00,00
00DC2:  DATA 00,00
00DC4:  DATA 00,00
00DC6:  DATA 00,00
00DC8:  DATA 00,00
00DCA:  DATA 00,00
00DCC:  DATA 00,07
00DCE:  DATA E0,00
00DD0:  DATA 00,08
00DD2:  DATA 00,00
00DD4:  DATA 00,00
00DD6:  DATA 00,00
00DD8:  DATA 00,00
00DDA:  DATA 00,00
00DDC:  DATA 00,07
00DDE:  DATA E0,00
00DE0:  DATA 00,0C
00DE2:  DATA 00,00
00DE4:  DATA 00,00
00DE6:  DATA 00,00
00DE8:  DATA 00,E0
00DEA:  DATA 30,00
00DEC:  DATA 00,07
00DEE:  DATA E0,00
00DF0:  DATA 00,06
00DF2:  DATA 00,00
00DF4:  DATA 00,07
00DF6:  DATA FF,00
00DF8:  DATA 00,70
00DFA:  DATA 63,00
00DFC:  DATA 00,07
00DFE:  DATA E0,00
00E00:  DATA 00,07
00E02:  DATA 00,00
00E04:  DATA 00,FF
00E06:  DATA FF,F0
00E08:  DATA 00,38
00E0A:  DATA C7,00
00E0C:  DATA 00,07
00E0E:  DATA E0,00
00E10:  DATA 00,03
00E12:  DATA 00,E0
00E14:  DATA 03,7F
00E16:  DATA FF,EC
00E18:  DATA 00,1D
00E1A:  DATA CE,00
00E1C:  DATA 00,07
00E1E:  DATA E0,00
00E20:  DATA 00,03
00E22:  DATA 83,C0
00E24:  DATA 0E,3F
00E26:  DATA FF,E3
00E28:  DATA 80,1D
00E2A:  DATA 8C,00
00E2C:  DATA 00,07
00E2E:  DATA E0,00
00E30:  DATA 00,01
00E32:  DATA C7,80
00E34:  DATA 30,0F
00E36:  DATA FF,80
00E38:  DATA C0,0F
00E3A:  DATA 9C,00
00E3C:  DATA 00,07
00E3E:  DATA E0,00
00E40:  DATA E0,01
00E42:  DATA CF,00
00E44:  DATA 60,0D
00E46:  DATA F1,84
00E48:  DATA 20,0F
00E4A:  DATA B8,00
00E4C:  DATA 00,07
00E4E:  DATA E0,00
00E50:  DATA 71,C1
00E52:  DATA EF,01
00E54:  DATA 80,00
00E56:  DATA 00,00
00E58:  DATA B8,07
00E5A:  DATA F8,00
00E5C:  DATA 60,37
00E5E:  DATA E0,00
00E60:  DATA 3B,81
00E62:  DATA FE,03
00E64:  DATA 30,00
00E66:  DATA 00,02
00E68:  DATA 3C,07
00E6A:  DATA F8,00
00E6C:  DATA 38,77
00E6E:  DATA E0,00
00E70:  DATA 3F,01
00E72:  DATA FE,07
00E74:  DATA E0,B8
00E76:  DATA 00,06
00E78:  DATA 7E,07
00E7A:  DATA F8,00
00E7C:  DATA 1C,67
00E7E:  DATA F9,86
00E80:  DATA 1E,01
00E82:  DATA FC,06
00E84:  DATA 8C,3E
00E86:  DATA 00,69
00E88:  DATA FE,07
00E8A:  DATA F0,38
00E8C:  DATA 7E,C7
00E8E:  DATA FD,CE
00E90:  DATA 1E,48
00E92:  DATA FC,0F
00E94:  DATA EB,7F
00E96:  DATA 00,67
00E98:  DATA FF,03
00E9A:  DATA F0,1C
00E9C:  DATA CF,C7
00E9E:  DATA EC,FC
00EA0:  DATA 1E,78
00EA2:  DATA F8,1F
00EA4:  DATA D3,7F
00EA6:  DATA 01,0F
00EA8:  DATA FF,83
00EAA:  DATA F0,07
00EAC:  DATA 87,87
00EAE:  DATA EC,78
00EB0:  DATA 1E,78
00EB2:  DATA F8,1F
00EB4:  DATA FC,FF
00EB6:  DATA 03,BF
00EB8:  DATA FF,83
00EBA:  DATA F1,E3
00EBC:  DATA 07,C7
00EBE:  DATA FF,FF
00EC0:  DATA FF,FF
00EC2:  DATA F8,3F
00EC4:  DATA F6,3E
00EC6:  DATA 03,BF
00EC8:  DATA FF,C3
00ECA:  DATA FF,FF
00ECC:  DATA FF,FF
00ECE:  DATA FF,FF
00ED0:  DATA FF,FF
00ED2:  DATA F8,3F
00ED4:  DATA FF,3C
00ED6:  DATA 07,BF
00ED8:  DATA FF,C3
00EDA:  DATA FF,FF
00EDC:  DATA FF,FF
00EDE:  DATA FF,FF
00EE0:  DATA FF,FF
00EE2:  DATA F8,7F
00EE4:  DATA BB,F8
00EE6:  DATA 0F,B7
00EE8:  DATA 3F,E3
00EEA:  DATA FF,FF
00EEC:  DATA FF,FF
00EEE:  DATA FF,FF
00EF0:  DATA FF,FF
00EF2:  DATA FF,FF
00EF4:  DATA FF,FF
00EF6:  DATA FF,FF
00EF8:  DATA FF,FF
00EFA:  DATA FF,FF
00EFC:  DATA FF,FF
00EFE:  DATA FF,FF
00F00:  DATA FF,FF
00F02:  DATA FF,FF
00F04:  DATA FF,FF
00F06:  DATA FF,FF
00F08:  DATA FF,FF
00F0A:  DATA FF,FF
00F0C:  DATA FF,FF
00F0E:  DATA FF,FF
00F10:  DATA FF,FF
00F12:  DATA FF,FF
00F14:  DATA FF,FF
00F16:  DATA FF,FF
00F18:  DATA FF,FF
00F1A:  DATA FF,FF
00F1C:  DATA FF,FF
00F1E:  MOVFF  FF2,0D
00F22:  BCF    FF2.7
00F24:  ADDLW  36
00F26:  MOVWF  FF6
00F28:  MOVLW  0F
00F2A:  ADDWFC FF7,F
00F2C:  TBLRD*+
00F2E:  MOVF   FF5,W
00F30:  BTFSC  0D.7
00F32:  BSF    FF2.7
00F34:  RETURN 0
00F36:  DATA FF,FF
00F38:  DATA FF,FF
00F3A:  DATA FF,FF
00F3C:  DATA FF,FF
00F3E:  DATA FF,FF
00F40:  DATA FF,FF
00F42:  DATA FF,FF
00F44:  DATA FF,FF
00F46:  DATA F8,00
00F48:  DATA 00,00
00F4A:  DATA 00,00
00F4C:  DATA 00,00
00F4E:  DATA 00,00
00F50:  DATA 00,00
00F52:  DATA 00,00
00F54:  DATA 00,1F
00F56:  DATA E0,00
00F58:  DATA 00,00
00F5A:  DATA 00,00
00F5C:  DATA 00,00
00F5E:  DATA 00,00
00F60:  DATA 00,00
00F62:  DATA 00,00
00F64:  DATA 00,07
00F66:  DATA C0,00
00F68:  DATA 00,00
00F6A:  DATA 00,00
00F6C:  DATA 00,00
00F6E:  DATA 00,00
00F70:  DATA 00,00
00F72:  DATA 00,00
00F74:  DATA 00,03
00F76:  DATA C0,00
00F78:  DATA 00,00
00F7A:  DATA 00,00
00F7C:  DATA 00,00
00F7E:  DATA 00,00
00F80:  DATA 00,00
00F82:  DATA 00,00
00F84:  DATA 00,03
00F86:  DATA 80,00
00F88:  DATA 00,00
00F8A:  DATA 00,00
00F8C:  DATA 00,00
00F8E:  DATA 00,00
00F90:  DATA 00,00
00F92:  DATA 00,00
00F94:  DATA 00,01
00F96:  DATA 80,00
00F98:  DATA 00,00
00F9A:  DATA 00,00
00F9C:  DATA 00,00
00F9E:  DATA 00,00
00FA0:  DATA 00,00
00FA2:  DATA 00,00
00FA4:  DATA 00,01
00FA6:  DATA 80,00
00FA8:  DATA 00,00
00FAA:  DATA 00,00
00FAC:  DATA 00,00
00FAE:  DATA 00,00
00FB0:  DATA 00,00
00FB2:  DATA 00,00
00FB4:  DATA 00,01
00FB6:  DATA 80,00
00FB8:  DATA 00,00
00FBA:  DATA 00,00
00FBC:  DATA 00,00
00FBE:  DATA 00,00
00FC0:  DATA 00,00
00FC2:  DATA 00,00
00FC4:  DATA 00,01
00FC6:  DATA 80,00
00FC8:  DATA 00,00
00FCA:  DATA 00,00
00FCC:  DATA 00,00
00FCE:  DATA 00,00
00FD0:  DATA 00,00
00FD2:  DATA 00,00
00FD4:  DATA 00,03
00FD6:  DATA C0,00
00FD8:  DATA 00,00
00FDA:  DATA 00,00
00FDC:  DATA 00,00
00FDE:  DATA 00,00
00FE0:  DATA 00,00
00FE2:  DATA 00,00
00FE4:  DATA 00,03
00FE6:  DATA C0,00
00FE8:  DATA 00,00
00FEA:  DATA 00,00
00FEC:  DATA 00,00
00FEE:  DATA 00,00
00FF0:  DATA 00,00
00FF2:  DATA 00,00
00FF4:  DATA 00,03
00FF6:  DATA E0,00
00FF8:  DATA 00,00
00FFA:  DATA 00,00
00FFC:  DATA 00,00
00FFE:  DATA 00,00
01000:  DATA 00,00
01002:  DATA 00,00
01004:  DATA 00,07
01006:  DATA F8,00
01008:  DATA 00,00
0100A:  DATA 00,00
0100C:  DATA 00,00
0100E:  DATA 00,00
01010:  DATA 00,00
01012:  DATA 00,00
01014:  DATA 00,3F
01016:  DATA FF,FF
01018:  DATA FF,FF
0101A:  DATA FF,FF
0101C:  DATA FF,FF
0101E:  DATA FF,FF
01020:  DATA FF,FF
01022:  DATA FF,FF
01024:  DATA FF,FF
01026:  DATA F8,00
01028:  DATA 00,00
0102A:  DATA 00,00
0102C:  DATA 00,7F
0102E:  DATA C0,00
01030:  DATA 00,00
01032:  DATA 00,00
01034:  DATA 00,3F
01036:  DATA F0,FE
01038:  DATA 00,00
0103A:  DATA 00,00
0103C:  DATA 00,1F
0103E:  DATA 00,00
01040:  DATA 00,00
01042:  DATA 00,00
01044:  DATA 00,0F
01046:  DATA E1,FF
01048:  DATA 00,00
0104A:  DATA 00,00
0104C:  DATA 00,0E
0104E:  DATA 00,00
01050:  DATA 00,00
01052:  DATA 00,00
01054:  DATA 00,07
01056:  DATA C1,FF
01058:  DATA 00,00
0105A:  DATA 00,00
0105C:  DATA 00,0E
0105E:  DATA 3F,80
01060:  DATA 00,00
01062:  DATA 00,00
01064:  DATA 00,07
01066:  DATA FF,FF
01068:  DATA 00,00
0106A:  DATA 00,00
0106C:  DATA 00,04
0106E:  DATA 10,A0
01070:  DATA 00,00
01072:  DATA 00,00
01074:  DATA 00,03
01076:  DATA FF,FF
01078:  DATA 00,00
0107A:  DATA 00,00
0107C:  DATA 00,04
0107E:  DATA 08,00
01080:  DATA 00,00
01082:  DATA 00,00
01084:  DATA 00,03
01086:  DATA FF,FF
01088:  DATA 00,00
0108A:  DATA 00,00
0108C:  DATA 00,04
0108E:  DATA 04,00
01090:  DATA 00,00
01092:  DATA 00,00
01094:  DATA 00,03
01096:  DATA FF,FF
01098:  DATA 00,00
0109A:  DATA 00,00
0109C:  DATA 00,04
0109E:  DATA 08,00
010A0:  DATA 00,00
010A2:  DATA 00,00
010A4:  DATA 00,03
010A6:  DATA C1,FF
010A8:  DATA 00,00
010AA:  DATA 00,00
010AC:  DATA 00,04
010AE:  DATA 10,A0
010B0:  DATA 00,00
010B2:  DATA 00,00
010B4:  DATA 00,03
010B6:  DATA E0,AA
010B8:  DATA 00,00
010BA:  DATA 00,00
010BC:  DATA 00,0E
010BE:  DATA 3F,80
010C0:  DATA 00,00
010C2:  DATA 00,00
010C4:  DATA 00,07
010C6:  DATA E0,00
010C8:  DATA 00,00
010CA:  DATA 00,00
010CC:  DATA 00,0E
010CE:  DATA 00,00
010D0:  DATA 00,00
010D2:  DATA 00,00
010D4:  DATA 00,07
010D6:  DATA F0,AA
010D8:  DATA 00,00
010DA:  DATA 00,00
010DC:  DATA 00,1F
010DE:  DATA 00,00
010E0:  DATA 00,00
010E2:  DATA 00,00
010E4:  DATA 00,0F
010E6:  DATA FC,00
010E8:  DATA 00,00
010EA:  DATA 00,00
010EC:  DATA 00,7F
010EE:  DATA C0,00
010F0:  DATA 00,00
010F2:  DATA 00,00
010F4:  DATA 00,3F
010F6:  DATA FF,FF
010F8:  DATA FF,FF
010FA:  DATA FF,FF
010FC:  DATA FF,FF
010FE:  DATA FF,FF
01100:  DATA FF,FF
01102:  DATA FF,FF
01104:  DATA FF,FF
01106:  DATA FC,00
01108:  DATA 00,00
0110A:  DATA 00,00
0110C:  DATA 00,7F
0110E:  DATA C0,00
01110:  DATA 00,00
01112:  DATA 00,00
01114:  DATA 00,3F
01116:  DATA F0,70
01118:  DATA 00,00
0111A:  DATA 00,00
0111C:  DATA 00,1F
0111E:  DATA 00,00
01120:  DATA 00,00
01122:  DATA 00,00
01124:  DATA 00,0F
01126:  DATA E0,F8
01128:  DATA 00,00
0112A:  DATA 00,00
0112C:  DATA 00,0E
0112E:  DATA 6D,80
01130:  DATA 00,00
01132:  DATA 00,00
01134:  DATA 00,07
01136:  DATA E0,F8
01138:  DATA 00,00
0113A:  DATA 00,00
0113C:  DATA 00,0E
0113E:  DATA FF,C0
01140:  DATA 00,00
01142:  DATA 00,00
01144:  DATA 00,07
01146:  DATA C0,F8
01148:  DATA 00,00
0114A:  DATA 00,00
0114C:  DATA 00,04
0114E:  DATA FF,C0
01150:  DATA 00,00
01152:  DATA 00,00
01154:  DATA 00,03
01156:  DATA C0,70
01158:  DATA 00,00
0115A:  DATA 00,00
0115C:  DATA 00,04
0115E:  DATA C0,40
01160:  DATA 00,00
01162:  DATA 00,00
01164:  DATA 00,03
01166:  DATA C7,77
01168:  DATA 00,00
0116A:  DATA 00,00
0116C:  DATA 00,04
0116E:  DATA C5,40
01170:  DATA 00,00
01172:  DATA 00,00
01174:  DATA 00,03
01176:  DATA C2,72
01178:  DATA 00,00
0117A:  DATA 00,00
0117C:  DATA 00,04
0117E:  DATA C0,40
01180:  DATA 00,00
01182:  DATA 00,00
01184:  DATA 00,03
01186:  DATA CF,FF
01188:  DATA 80,00
0118A:  DATA 00,00
0118C:  DATA 00,04
0118E:  DATA D5,40
01190:  DATA 00,00
01192:  DATA 00,00
01194:  DATA 00,03
01196:  DATA EF,FF
01198:  DATA 80,00
0119A:  DATA 00,00
0119C:  DATA 00,0E
0119E:  DATA C0,40
011A0:  DATA 00,00
011A2:  DATA 00,00
011A4:  DATA 00,07
011A6:  DATA E0,00
011A8:  DATA 00,00
011AA:  DATA 00,00
011AC:  DATA 00,0E
011AE:  DATA FF,C0
011B0:  DATA 00,00
011B2:  DATA 00,00
011B4:  DATA 00,07
011B6:  DATA F0,00
011B8:  DATA 00,00
011BA:  DATA 00,00
011BC:  DATA 00,1F
011BE:  DATA 00,00
011C0:  DATA 00,00
011C2:  DATA 00,00
011C4:  DATA 00,0F
011C6:  DATA FC,00
011C8:  DATA 00,00
011CA:  DATA 00,00
011CC:  DATA 00,7F
011CE:  DATA C0,00
011D0:  DATA 00,00
011D2:  DATA 00,00
011D4:  DATA 00,3F
011D6:  DATA FF,FF
011D8:  DATA FF,FF
011DA:  DATA FF,FF
011DC:  DATA FF,FF
011DE:  DATA FF,FF
011E0:  DATA FF,FF
011E2:  DATA FF,FF
011E4:  DATA FF,FF
011E6:  DATA 00,00
011E8:  DATA 00,00
011EA:  DATA 00,00
011EC:  DATA 00,00
011EE:  DATA 00,00
011F0:  DATA 00,00
011F2:  DATA 00,00
011F4:  DATA 00,00
011F6:  DATA 00,00
011F8:  DATA 00,00
011FA:  DATA 00,00
011FC:  DATA 00,00
011FE:  DATA 00,00
01200:  DATA 00,00
01202:  DATA 00,00
01204:  DATA 00,00
01206:  DATA 00,00
01208:  DATA 00,00
0120A:  DATA 00,00
0120C:  DATA 00,00
0120E:  DATA 00,00
01210:  DATA 00,00
01212:  DATA 00,00
01214:  DATA 00,00
01216:  DATA 00,00
01218:  DATA 00,00
0121A:  DATA 00,00
0121C:  DATA 00,00
0121E:  DATA 00,00
01220:  DATA 00,00
01222:  DATA 00,00
01224:  DATA 00,00
01226:  DATA 00,00
01228:  DATA 00,00
0122A:  DATA 00,00
0122C:  DATA 00,00
0122E:  DATA 00,00
01230:  DATA 00,00
01232:  DATA 00,00
01234:  DATA 00,00
01236:  DATA 00,00
01238:  DATA 00,00
0123A:  DATA 00,00
0123C:  DATA 00,00
0123E:  DATA 00,00
01240:  DATA 00,00
01242:  DATA 00,00
01244:  DATA 00,00
01246:  DATA 00,00
01248:  DATA 00,00
0124A:  DATA 00,00
0124C:  DATA 00,00
0124E:  DATA 00,00
01250:  DATA 00,00
01252:  DATA 00,00
01254:  DATA 00,00
01256:  DATA 00,00
01258:  DATA 00,00
0125A:  DATA 00,00
0125C:  DATA 00,00
0125E:  DATA 00,00
01260:  DATA 00,00
01262:  DATA 00,00
01264:  DATA 00,00
01266:  DATA 00,00
01268:  DATA 00,00
0126A:  DATA 00,00
0126C:  DATA 00,00
0126E:  DATA 00,00
01270:  DATA 00,00
01272:  DATA 00,00
01274:  DATA 00,00
01276:  DATA 00,00
01278:  DATA 00,00
0127A:  DATA 00,00
0127C:  DATA 00,00
0127E:  DATA 00,00
01280:  DATA 00,00
01282:  DATA 00,00
01284:  DATA 00,00
01286:  DATA 00,00
01288:  DATA 00,00
0128A:  DATA 00,00
0128C:  DATA 00,00
0128E:  DATA 00,00
01290:  DATA 00,00
01292:  DATA 00,00
01294:  DATA 00,00
01296:  DATA 00,00
01298:  DATA 00,00
0129A:  DATA 00,00
0129C:  DATA 00,00
0129E:  DATA 00,00
012A0:  DATA 00,00
012A2:  DATA 00,00
012A4:  DATA 00,00
012A6:  DATA 00,00
012A8:  DATA 00,00
012AA:  DATA 00,00
012AC:  DATA 00,00
012AE:  DATA 00,00
012B0:  DATA 00,00
012B2:  DATA 00,00
012B4:  DATA 00,00
012B6:  DATA 00,00
012B8:  DATA 00,00
012BA:  DATA 00,00
012BC:  DATA 00,00
012BE:  DATA 00,00
012C0:  DATA 00,00
012C2:  DATA 00,00
012C4:  DATA 00,00
012C6:  DATA 00,00
012C8:  DATA 00,00
012CA:  DATA 00,00
012CC:  DATA 00,00
012CE:  DATA 00,00
012D0:  DATA 00,00
012D2:  DATA 00,00
012D4:  DATA 00,00
012D6:  DATA 00,00
012D8:  DATA 00,00
012DA:  DATA 00,00
012DC:  DATA 00,00
012DE:  DATA 00,00
012E0:  DATA 00,00
012E2:  DATA 00,00
012E4:  DATA 00,00
012E6:  DATA 00,00
012E8:  DATA 00,00
012EA:  DATA 00,00
012EC:  DATA 00,00
012EE:  DATA 00,00
012F0:  DATA 00,00
012F2:  DATA 00,00
012F4:  DATA 00,00
012F6:  DATA 00,00
012F8:  DATA 00,00
012FA:  DATA 00,00
012FC:  DATA 00,00
012FE:  DATA 00,00
01300:  DATA 00,00
01302:  DATA 00,00
01304:  DATA 00,00
01306:  DATA 00,00
01308:  DATA 00,00
0130A:  DATA 00,00
0130C:  DATA 00,00
0130E:  DATA 00,00
01310:  DATA 00,00
01312:  DATA 00,00
01314:  DATA 00,00
01316:  DATA 00,00
01318:  DATA 00,00
0131A:  DATA 00,00
0131C:  DATA 00,00
0131E:  DATA 00,00
01320:  DATA 00,00
01322:  DATA 00,00
01324:  DATA 00,00
01326:  DATA 00,00
01328:  DATA 00,00
0132A:  DATA 00,00
0132C:  DATA 00,00
0132E:  DATA 00,00
01330:  DATA 00,00
01332:  DATA 00,00
01334:  DATA 00,00
01336:  MOVFF  FF2,0D
0133A:  BCF    FF2.7
0133C:  ADDLW  4E
0133E:  MOVWF  FF6
01340:  MOVLW  13
01342:  ADDWFC FF7,F
01344:  TBLRD*+
01346:  MOVF   FF5,W
01348:  BTFSC  0D.7
0134A:  BSF    FF2.7
0134C:  RETURN 0
0134E:  DATA FF,FF
01350:  DATA FF,FF
01352:  DATA FF,FF
01354:  DATA FF,FF
01356:  DATA FF,FF
01358:  DATA FF,FF
0135A:  DATA FF,FF
0135C:  DATA FF,FF
0135E:  DATA FF,FF
01360:  DATA FF,FF
01362:  DATA FF,FF
01364:  DATA FF,FF
01366:  DATA FF,FF
01368:  DATA FF,FF
0136A:  DATA FF,FF
0136C:  DATA FF,FF
0136E:  DATA FF,FF
01370:  DATA FF,FF
01372:  DATA FF,FF
01374:  DATA FF,FF
01376:  DATA FF,FF
01378:  DATA FF,FF
0137A:  DATA FF,FF
0137C:  DATA FF,FF
0137E:  DATA E0,00
01380:  DATA 00,00
01382:  DATA 00,00
01384:  DATA 00,00
01386:  DATA 00,00
01388:  DATA 00,00
0138A:  DATA 00,00
0138C:  DATA 00,07
0138E:  DATA E0,00
01390:  DATA 00,00
01392:  DATA 00,00
01394:  DATA 00,00
01396:  DATA 00,00
01398:  DATA 00,00
0139A:  DATA 00,00
0139C:  DATA 00,07
0139E:  DATA E0,00
013A0:  DATA 00,00
013A2:  DATA 00,00
013A4:  DATA 00,00
013A6:  DATA 00,00
013A8:  DATA 00,00
013AA:  DATA 00,00
013AC:  DATA 00,07
013AE:  DATA E0,00
013B0:  DATA 00,00
013B2:  DATA 00,00
013B4:  DATA 00,00
013B6:  DATA 00,00
013B8:  DATA 00,00
013BA:  DATA 00,00
013BC:  DATA 00,07
013BE:  DATA E0,00
013C0:  DATA 00,00
013C2:  DATA 00,00
013C4:  DATA 00,06
013C6:  DATA 00,00
013C8:  DATA 60,00
013CA:  DATA 00,00
013CC:  DATA 00,07
013CE:  DATA E1,FF
013D0:  DATA FF,80
013D2:  DATA 78,00
013D4:  DATA 00,06
013D6:  DATA 00,00
013D8:  DATA 60,00
013DA:  DATA 00,00
013DC:  DATA 00,07
013DE:  DATA E1,F8
013E0:  DATA 03,C0
013E2:  DATA C4,00
013E4:  DATA 00,06
013E6:  DATA 00,00
013E8:  DATA 60,00
013EA:  DATA 00,00
013EC:  DATA 00,07
013EE:  DATA E1,F8
013F0:  DATA 3B,E0
013F2:  DATA C1,9B
013F4:  DATA CF,3E
013F6:  DATA F3,E3
013F8:  DATA E7,80
013FA:  DATA 00,00
013FC:  DATA 00,07
013FE:  DATA E1,F8
01400:  DATA 3B,F0
01402:  DATA C1,98
01404:  DATA 6C,66
01406:  DATA 1B,36
01408:  DATA 6C,C0
0140A:  DATA 00,00
0140C:  DATA 00,07
0140E:  DATA E1,F8
01410:  DATA 3B,F0
01412:  DATA DD,99
01414:  DATA EC,66
01416:  DATA 7B,36
01418:  DATA 6C,C0
0141A:  DATA 00,00
0141C:  DATA 00,07
0141E:  DATA E1,F8
01420:  DATA 3B,F0
01422:  DATA CD,9B
01424:  DATA 6C,66
01426:  DATA DB,36
01428:  DATA 6C,C0
0142A:  DATA 00,00
0142C:  DATA 00,07
0142E:  DATA E1,F8
01430:  DATA 3B,F0
01432:  DATA CD,9B
01434:  DATA 6C,66
01436:  DATA DB,36
01438:  DATA 6C,C0
0143A:  DATA 00,00
0143C:  DATA 00,07
0143E:  DATA E1,F8
01440:  DATA 03,F0
01442:  DATA 7C,F9
01444:  DATA EC,3E
01446:  DATA 7B,33
01448:  DATA E7,80
0144A:  DATA 00,00
0144C:  DATA 00,07
0144E:  DATA E1,FF
01450:  DATA FF,F0
01452:  DATA 00,00
01454:  DATA 00,00
01456:  DATA 00,00
01458:  DATA 00,00
0145A:  DATA 00,00
0145C:  DATA 00,07
0145E:  DATA E1,FF
01460:  DATA FF,F0
01462:  DATA 00,00
01464:  DATA 00,00
01466:  DATA 00,00
01468:  DATA 00,00
0146A:  DATA 00,00
0146C:  DATA 00,07
0146E:  DATA E1,FF
01470:  DATA FF,B0
01472:  DATA 00,00
01474:  DATA 00,00
01476:  DATA 00,00
01478:  DATA 00,00
0147A:  DATA 00,00
0147C:  DATA 00,07
0147E:  DATA E1,FF
01480:  DATA FF,F0
01482:  DATA 00,00
01484:  DATA 00,00
01486:  DATA 00,00
01488:  DATA 00,00
0148A:  DATA 00,00
0148C:  DATA 00,07
0148E:  DATA E1,FF
01490:  DATA FF,F0
01492:  DATA 00,00
01494:  DATA 00,00
01496:  DATA 00,00
01498:  DATA 00,00
0149A:  DATA 00,00
0149C:  DATA 00,07
0149E:  DATA E1,C0
014A0:  DATA 00,70
014A2:  DATA 00,00
014A4:  DATA 00,00
014A6:  DATA 00,00
014A8:  DATA 00,00
014AA:  DATA 00,00
014AC:  DATA 00,07
014AE:  DATA E1,C0
014B0:  DATA 00,70
014B2:  DATA 00,00
014B4:  DATA 00,00
014B6:  DATA 00,00
014B8:  DATA 00,00
014BA:  DATA 00,00
014BC:  DATA 00,07
014BE:  DATA E1,CF
014C0:  DATA FF,70
014C2:  DATA F8,03
014C4:  DATA 00,00
014C6:  DATA 00,00
014C8:  DATA 00,00
014CA:  DATA 00,00
014CC:  DATA 00,07
014CE:  DATA E1,C0
014D0:  DATA 00,70
014D2:  DATA CC,03
014D4:  DATA 00,00
014D6:  DATA 00,00
014D8:  DATA 00,00
014DA:  DATA 00,00
014DC:  DATA 00,07
014DE:  DATA E1,C0
014E0:  DATA 00,70
014E2:  DATA CD,E7
014E4:  DATA 9E,38
014E6:  DATA 00,00
014E8:  DATA 00,00
014EA:  DATA 00,00
014EC:  DATA 00,07
014EE:  DATA E1,CF
014F0:  DATA FF,70
014F2:  DATA CC,33
014F4:  DATA 33,60
014F6:  DATA 00,00
014F8:  DATA 00,00
014FA:  DATA 00,00
014FC:  DATA 00,07
014FE:  DATA E1,C0
01500:  DATA 00,70
01502:  DATA CC,F3
01504:  DATA 33,70
01506:  DATA 00,00
01508:  DATA 07,FF
0150A:  DATA FF,FF
0150C:  DATA FF,87
0150E:  DATA E1,C0
01510:  DATA 00,70
01512:  DATA CD,B3
01514:  DATA 33,38
01516:  DATA 00,00
01518:  DATA 08,00
0151A:  DATA 00,00
0151C:  DATA 00,87
0151E:  DATA E1,FF
01520:  DATA FF,F0
01522:  DATA CD,B3
01524:  DATA 33,1B
01526:  DATA 6C,00
01528:  DATA 11,F8
0152A:  DATA F0,00
0152C:  DATA 01,07
0152E:  DATA E0,00
01530:  DATA 00,00
01532:  DATA F8,F1
01534:  DATA 9E,73
01536:  DATA 6C,00
01538:  DATA 20,01
0153A:  DATA F3,FF
0153C:  DATA E2,07
0153E:  DATA E0,00
01540:  DATA 00,00
01542:  DATA 00,00
01544:  DATA 00,00
01546:  DATA 00,00
01548:  DATA 5F,FD
0154A:  DATA E4,00
0154C:  DATA 04,07
0154E:  DATA E0,00
01550:  DATA 00,00
01552:  DATA 00,00
01554:  DATA 00,00
01556:  DATA 00,00
01558:  DATA B7,FC
0155A:  DATA 08,7F
0155C:  DATA 08,07
0155E:  DATA E0,00
01560:  DATA 00,00
01562:  DATA 00,00
01564:  DATA 00,00
01566:  DATA 00,01
01568:  DATA 7F,FE
0156A:  DATA 10,80
0156C:  DATA 10,07
0156E:  DATA E0,00
01570:  DATA 00,00
01572:  DATA 00,00
01574:  DATA 00,00
01576:  DATA 00,02
01578:  DATA FF,F3
0157A:  DATA E1,00
0157C:  DATA 20,07
0157E:  DATA E0,00
01580:  DATA 00,00
01582:  DATA 00,00
01584:  DATA 00,00
01586:  DATA 00,05
01588:  DATA FF,F8
0158A:  DATA 02,18
0158C:  DATA 40,07
0158E:  DATA E0,00
01590:  DATA 00,00
01592:  DATA 00,00
01594:  DATA 00,00
01596:  DATA 00,0B
01598:  DATA FF,CF
0159A:  DATA FC,20
0159C:  DATA 80,07
0159E:  DATA E0,00
015A0:  DATA 00,07
015A2:  DATA AF,57
015A4:  DATA AF,78
015A6:  DATA 00,17
015A8:  DATA FF,E0
015AA:  DATA 00,41
015AC:  DATA 00,07
015AE:  DATA E0,00
015B0:  DATA 00,04
015B2:  DATA A9,54
015B4:  DATA A9,48
015B6:  DATA 00,2F
015B8:  DATA FF,3F
015BA:  DATA FF,82
015BC:  DATA 00,07
015BE:  DATA E0,00
015C0:  DATA 00,04
015C2:  DATA A9,54
015C4:  DATA A9,48
015C6:  DATA 00,5F
015C8:  DATA FF,80
015CA:  DATA 00,04
015CC:  DATA 00,07
015CE:  DATA E0,00
015D0:  DATA 00,04
015D2:  DATA A9,54
015D4:  DATA A9,48
015D6:  DATA 00,9F
015D8:  DATA FC,FF
015DA:  DATA FF,88
015DC:  DATA 00,07
015DE:  DATA E0,00
015E0:  DATA 00,04
015E2:  DATA A9,54
015E4:  DATA A9,48
015E6:  DATA 01,00
015E8:  DATA 00,00
015EA:  DATA 00,10
015EC:  DATA 00,07
015EE:  DATA E0,00
015F0:  DATA 00,07
015F2:  DATA AF,57
015F4:  DATA AF,78
015F6:  DATA 03,FF
015F8:  DATA FF,FF
015FA:  DATA FF,E0
015FC:  DATA 00,07
015FE:  DATA E0,00
01600:  DATA 00,00
01602:  DATA 00,00
01604:  DATA 00,00
01606:  DATA 00,00
01608:  DATA 00,00
0160A:  DATA 00,00
0160C:  DATA 00,07
0160E:  DATA E0,00
01610:  DATA 00,00
01612:  DATA 00,00
01614:  DATA 00,00
01616:  DATA 00,00
01618:  DATA 00,00
0161A:  DATA 00,00
0161C:  DATA 00,07
0161E:  DATA E0,00
01620:  DATA 00,00
01622:  DATA 00,00
01624:  DATA 00,00
01626:  DATA 00,00
01628:  DATA 00,00
0162A:  DATA 00,00
0162C:  DATA 00,07
0162E:  DATA E0,00
01630:  DATA 00,00
01632:  DATA 00,00
01634:  DATA 00,00
01636:  DATA 00,00
01638:  DATA 00,00
0163A:  DATA 00,00
0163C:  DATA 00,07
0163E:  DATA E0,00
01640:  DATA 00,00
01642:  DATA 00,00
01644:  DATA 00,00
01646:  DATA 00,00
01648:  DATA 00,00
0164A:  DATA 00,00
0164C:  DATA 00,07
0164E:  DATA E0,00
01650:  DATA 00,00
01652:  DATA 00,00
01654:  DATA 00,00
01656:  DATA 00,00
01658:  DATA 00,00
0165A:  DATA 00,00
0165C:  DATA 00,07
0165E:  DATA E0,00
01660:  DATA 00,00
01662:  DATA 00,00
01664:  DATA 00,00
01666:  DATA 00,00
01668:  DATA 00,00
0166A:  DATA 00,00
0166C:  DATA 00,07
0166E:  DATA E0,00
01670:  DATA 00,00
01672:  DATA 00,00
01674:  DATA 00,00
01676:  DATA 00,00
01678:  DATA 00,00
0167A:  DATA 00,00
0167C:  DATA 00,07
0167E:  DATA E0,00
01680:  DATA 00,00
01682:  DATA 00,00
01684:  DATA 00,00
01686:  DATA 00,00
01688:  DATA 00,00
0168A:  DATA 00,00
0168C:  DATA 00,07
0168E:  DATA E0,00
01690:  DATA 00,00
01692:  DATA 00,00
01694:  DATA 00,00
01696:  DATA 00,00
01698:  DATA 00,00
0169A:  DATA 00,00
0169C:  DATA 00,07
0169E:  DATA E0,00
016A0:  DATA 00,00
016A2:  DATA 00,00
016A4:  DATA 00,00
016A6:  DATA 00,00
016A8:  DATA 00,00
016AA:  DATA 00,00
016AC:  DATA 00,07
016AE:  DATA E0,00
016B0:  DATA 00,00
016B2:  DATA 00,00
016B4:  DATA 00,00
016B6:  DATA 00,00
016B8:  DATA 00,00
016BA:  DATA 00,00
016BC:  DATA 00,07
016BE:  DATA E0,00
016C0:  DATA 00,00
016C2:  DATA 00,00
016C4:  DATA 00,00
016C6:  DATA 00,00
016C8:  DATA 00,00
016CA:  DATA 00,00
016CC:  DATA 00,07
016CE:  DATA E0,00
016D0:  DATA 00,00
016D2:  DATA 00,00
016D4:  DATA 00,00
016D6:  DATA 00,00
016D8:  DATA 00,00
016DA:  DATA 00,00
016DC:  DATA 00,07
016DE:  DATA E0,00
016E0:  DATA 00,00
016E2:  DATA 00,00
016E4:  DATA 00,00
016E6:  DATA 00,00
016E8:  DATA 00,00
016EA:  DATA 00,00
016EC:  DATA 00,07
016EE:  DATA E0,00
016F0:  DATA 00,00
016F2:  DATA 00,00
016F4:  DATA 00,00
016F6:  DATA 00,00
016F8:  DATA 00,00
016FA:  DATA 00,00
016FC:  DATA 00,07
016FE:  DATA E0,00
01700:  DATA 00,00
01702:  DATA 00,00
01704:  DATA 00,00
01706:  DATA 00,00
01708:  DATA 00,00
0170A:  DATA 00,00
0170C:  DATA 00,07
0170E:  DATA E0,00
01710:  DATA 00,00
01712:  DATA 00,00
01714:  DATA 00,00
01716:  DATA 00,00
01718:  DATA 00,00
0171A:  DATA 00,00
0171C:  DATA 00,07
0171E:  DATA FF,FF
01720:  DATA FF,FF
01722:  DATA FF,FF
01724:  DATA FF,FF
01726:  DATA FF,FF
01728:  DATA FF,FF
0172A:  DATA FF,FF
0172C:  DATA FF,FF
0172E:  DATA FF,FF
01730:  DATA FF,FF
01732:  DATA FF,FF
01734:  DATA FF,FF
01736:  DATA FF,FF
01738:  DATA FF,FF
0173A:  DATA FF,FF
0173C:  DATA FF,FF
0173E:  DATA FF,FF
01740:  DATA FF,FF
01742:  DATA FF,FF
01744:  DATA FF,FF
01746:  DATA FF,FF
01748:  DATA FF,FF
0174A:  DATA FF,FF
0174C:  DATA FF,FF
0174E:  MOVFF  FF2,0D
01752:  BCF    FF2.7
01754:  ADDLW  66
01756:  MOVWF  FF6
01758:  MOVLW  17
0175A:  ADDWFC FF7,F
0175C:  TBLRD*+
0175E:  MOVF   FF5,W
01760:  BTFSC  0D.7
01762:  BSF    FF2.7
01764:  RETURN 0
01766:  DATA FF,FF
01768:  DATA FF,FF
0176A:  DATA FF,FF
0176C:  DATA FF,FF
0176E:  DATA FF,FF
01770:  DATA FF,FF
01772:  DATA FF,FF
01774:  DATA FF,FF
01776:  DATA FF,FF
01778:  DATA FF,FF
0177A:  DATA FF,FF
0177C:  DATA FF,FF
0177E:  DATA FF,FF
01780:  DATA FF,FF
01782:  DATA FF,FF
01784:  DATA FF,FF
01786:  DATA FF,FF
01788:  DATA FF,FF
0178A:  DATA FF,FF
0178C:  DATA FF,FF
0178E:  DATA FF,FF
01790:  DATA FF,FF
01792:  DATA FF,FF
01794:  DATA FF,FF
01796:  DATA E0,00
01798:  DATA 00,00
0179A:  DATA 00,00
0179C:  DATA 00,00
0179E:  DATA 00,00
017A0:  DATA 00,00
017A2:  DATA 00,00
017A4:  DATA 00,07
017A6:  DATA E0,00
017A8:  DATA 00,00
017AA:  DATA 00,00
017AC:  DATA 00,00
017AE:  DATA 00,00
017B0:  DATA 00,00
017B2:  DATA 00,00
017B4:  DATA 00,07
017B6:  DATA E0,00
017B8:  DATA 00,00
017BA:  DATA 00,00
017BC:  DATA 00,00
017BE:  DATA 00,00
017C0:  DATA 00,00
017C2:  DATA 00,00
017C4:  DATA 00,07
017C6:  DATA E0,00
017C8:  DATA 00,00
017CA:  DATA 00,00
017CC:  DATA 00,00
017CE:  DATA 00,00
017D0:  DATA 00,00
017D2:  DATA 00,00
017D4:  DATA 00,07
017D6:  DATA E0,00
017D8:  DATA 00,00
017DA:  DATA 00,00
017DC:  DATA 00,00
017DE:  DATA 00,00
017E0:  DATA 00,00
017E2:  DATA 00,00
017E4:  DATA 00,07
017E6:  DATA E0,00
017E8:  DATA 00,00
017EA:  DATA 00,00
017EC:  DATA 00,00
017EE:  DATA 00,00
017F0:  DATA 00,00
017F2:  DATA 00,00
017F4:  DATA 00,07
017F6:  DATA E0,00
017F8:  DATA 00,00
017FA:  DATA 00,00
017FC:  DATA 00,00
017FE:  DATA 00,00
01800:  DATA 00,00
01802:  DATA 00,00
01804:  DATA 00,07
01806:  DATA E0,00
01808:  DATA 00,00
0180A:  DATA 00,00
0180C:  DATA 00,00
0180E:  DATA 00,00
01810:  DATA 00,00
01812:  DATA 00,00
01814:  DATA 00,07
01816:  DATA E0,00
01818:  DATA 00,00
0181A:  DATA 00,00
0181C:  DATA 00,00
0181E:  DATA 00,00
01820:  DATA 00,00
01822:  DATA 00,00
01824:  DATA 00,07
01826:  DATA E0,00
01828:  DATA 00,00
0182A:  DATA 00,00
0182C:  DATA 00,00
0182E:  DATA 00,00
01830:  DATA 00,00
01832:  DATA 00,00
01834:  DATA 00,07
01836:  DATA E0,00
01838:  DATA 00,00
0183A:  DATA 00,00
0183C:  DATA 00,00
0183E:  DATA 00,00
01840:  DATA 00,00
01842:  DATA 00,00
01844:  DATA 00,07
01846:  DATA E0,00
01848:  DATA 00,00
0184A:  DATA 00,00
0184C:  DATA 00,00
0184E:  DATA 00,00
01850:  DATA 00,00
01852:  DATA 00,00
01854:  DATA 00,07
01856:  DATA E0,00
01858:  DATA 00,00
0185A:  DATA 00,00
0185C:  DATA 00,00
0185E:  DATA 00,00
01860:  DATA 00,00
01862:  DATA 00,00
01864:  DATA 00,07
01866:  DATA E0,00
01868:  DATA 00,00
0186A:  DATA 00,00
0186C:  DATA 00,00
0186E:  DATA 00,00
01870:  DATA 00,00
01872:  DATA 00,00
01874:  DATA 00,07
01876:  DATA E0,04
01878:  DATA 00,00
0187A:  DATA 00,00
0187C:  DATA 00,00
0187E:  DATA 08,00
01880:  DATA 00,00
01882:  DATA 00,00
01884:  DATA 00,07
01886:  DATA E0,06
01888:  DATA 00,00
0188A:  DATA 00,00
0188C:  DATA 00,00
0188E:  DATA 0C,00
01890:  DATA 00,00
01892:  DATA 00,00
01894:  DATA 00,07
01896:  DATA E0,0F
01898:  DATA 40,00
0189A:  DATA 00,00
0189C:  DATA 00,00
0189E:  DATA 1E,80
018A0:  DATA 00,00
018A2:  DATA 00,00
018A4:  DATA 00,07
018A6:  DATA E0,0B
018A8:  DATA 40,00
018AA:  DATA 00,00
018AC:  DATA 00,00
018AE:  DATA 16,80
018B0:  DATA 00,00
018B2:  DATA 00,00
018B4:  DATA 00,07
018B6:  DATA E0,0F
018B8:  DATA 40,00
018BA:  DATA 00,00
018BC:  DATA 00,00
018BE:  DATA 1E,80
018C0:  DATA 00,00
018C2:  DATA 00,00
018C4:  DATA 00,07
018C6:  DATA E0,06
018C8:  DATA 50,00
018CA:  DATA 00,00
018CC:  DATA 00,00
018CE:  DATA 0C,80
018D0:  DATA 00,00
018D2:  DATA 00,00
018D4:  DATA 00,07
018D6:  DATA E0,00
018D8:  DATA 58,00
018DA:  DATA 00,00
018DC:  DATA 00,00
018DE:  DATA 00,80
018E0:  DATA 00,00
018E2:  DATA 00,00
018E4:  DATA 00,07
018E6:  DATA E0,00
018E8:  DATA 4C,00
018EA:  DATA 00,00
018EC:  DATA 00,00
018EE:  DATA 00,80
018F0:  DATA 00,00
018F2:  DATA 00,00
018F4:  DATA 00,07
018F6:  DATA E0,00
018F8:  DATA 46,00
018FA:  DATA 00,00
018FC:  DATA 00,00
018FE:  DATA 00,80
01900:  DATA 00,00
01902:  DATA 00,00
01904:  DATA 00,07
01906:  DATA E0,00
01908:  DATA 43,00
0190A:  DATA 00,00
0190C:  DATA 00,00
0190E:  DATA 00,80
01910:  DATA 00,00
01912:  DATA 00,00
01914:  DATA 00,07
01916:  DATA E0,00
01918:  DATA 41,80
0191A:  DATA 00,00
0191C:  DATA 00,00
0191E:  DATA 00,80
01920:  DATA 00,00
01922:  DATA 00,00
01924:  DATA 00,07
01926:  DATA E0,00
01928:  DATA 40,C0
0192A:  DATA 00,00
0192C:  DATA 00,00
0192E:  DATA 00,BF
01930:  DATA FE,00
01932:  DATA 00,00
01934:  DATA 00,07
01936:  DATA E0,00
01938:  DATA 40,60
0193A:  DATA 00,00
0193C:  DATA 00,00
0193E:  DATA 00,80
01940:  DATA 01,00
01942:  DATA 00,00
01944:  DATA 00,07
01946:  DATA E0,00
01948:  DATA 40,30
0194A:  DATA 00,00
0194C:  DATA 00,00
0194E:  DATA 00,80
01950:  DATA 02,C0
01952:  DATA 00,00
01954:  DATA 00,07
01956:  DATA E0,00
01958:  DATA 40,38
0195A:  DATA 00,00
0195C:  DATA 00,00
0195E:  DATA 00,80
01960:  DATA 00,60
01962:  DATA 00,00
01964:  DATA 00,07
01966:  DATA E0,00
01968:  DATA 40,0C
0196A:  DATA 00,00
0196C:  DATA 00,00
0196E:  DATA 00,80
01970:  DATA 02,20
01972:  DATA 00,00
01974:  DATA 00,07
01976:  DATA E0,00
01978:  DATA 40,26
0197A:  DATA 00,00
0197C:  DATA 00,00
0197E:  DATA 00,80
01980:  DATA 00,20
01982:  DATA 00,00
01984:  DATA 00,07
01986:  DATA E0,00
01988:  DATA 40,03
0198A:  DATA 00,00
0198C:  DATA 00,00
0198E:  DATA 00,80
01990:  DATA 02,10
01992:  DATA 00,00
01994:  DATA 00,07
01996:  DATA E0,00
01998:  DATA 40,21
0199A:  DATA 80,00
0199C:  DATA 00,00
0199E:  DATA 00,80
019A0:  DATA 00,10
019A2:  DATA 00,00
019A4:  DATA 00,07
019A6:  DATA E0,00
019A8:  DATA 40,00
019AA:  DATA C0,00
019AC:  DATA 00,00
019AE:  DATA 00,80
019B0:  DATA 02,10
019B2:  DATA 00,00
019B4:  DATA 00,07
019B6:  DATA E0,00
019B8:  DATA 40,20
019BA:  DATA 60,00
019BC:  DATA 00,00
019BE:  DATA 00,80
019C0:  DATA 00,08
019C2:  DATA 00,00
019C4:  DATA 00,07
019C6:  DATA E0,00
019C8:  DATA 40,00
019CA:  DATA 30,00
019CC:  DATA 00,00
019CE:  DATA 00,80
019D0:  DATA 02,08
019D2:  DATA 00,00
019D4:  DATA 00,07
019D6:  DATA E0,00
019D8:  DATA 40,20
019DA:  DATA 10,00
019DC:  DATA 00,00
019DE:  DATA 00,80
019E0:  DATA 00,08
019E2:  DATA 00,00
019E4:  DATA 00,07
019E6:  DATA E0,00
019E8:  DATA 40,00
019EA:  DATA 00,30
019EC:  DATA 04,00
019EE:  DATA 00,80
019F0:  DATA 02,00
019F2:  DATA 60,08
019F4:  DATA 00,07
019F6:  DATA E0,00
019F8:  DATA 7F,FF
019FA:  DATA FF,43
019FC:  DATA 36,E0
019FE:  DATA 00,FF
01A00:  DATA FF,FE
01A02:  DATA 86,6D
01A04:  DATA C0,07
01A06:  DATA E0,00
01A08:  DATA 00,00
01A0A:  DATA 00,59
01A0C:  DATA A4,A0
01A0E:  DATA 00,00
01A10:  DATA 00,00
01A12:  DATA B3,49
01A14:  DATA 40,07
01A16:  DATA E0,00
01A18:  DATA 00,00
01A1A:  DATA 00,4A
01A1C:  DATA 94,A0
01A1E:  DATA 00,00
01A20:  DATA 00,00
01A22:  DATA 95,29
01A24:  DATA 40,07
01A26:  DATA E0,00
01A28:  DATA 00,00
01A2A:  DATA 00,33
01A2C:  DATA B6,E0
01A2E:  DATA 00,00
01A30:  DATA 00,00
01A32:  DATA 67,6D
01A34:  DATA C0,07
01A36:  DATA E0,00
01A38:  DATA 00,00
01A3A:  DATA 00,00
01A3C:  DATA 00,00
01A3E:  DATA 00,00
01A40:  DATA 00,00
01A42:  DATA 00,00
01A44:  DATA 00,07
01A46:  DATA E0,00
01A48:  DATA 00,00
01A4A:  DATA 00,00
01A4C:  DATA 00,00
01A4E:  DATA 00,00
01A50:  DATA 00,00
01A52:  DATA 00,00
01A54:  DATA 00,07
01A56:  DATA E0,00
01A58:  DATA 00,00
01A5A:  DATA 00,00
01A5C:  DATA 00,00
01A5E:  DATA 00,00
01A60:  DATA 00,00
01A62:  DATA 00,00
01A64:  DATA 00,07
01A66:  DATA E0,00
01A68:  DATA 00,00
01A6A:  DATA 00,00
01A6C:  DATA 00,00
01A6E:  DATA 00,00
01A70:  DATA 00,00
01A72:  DATA 00,00
01A74:  DATA 00,07
01A76:  DATA E0,00
01A78:  DATA 00,00
01A7A:  DATA 00,00
01A7C:  DATA 00,00
01A7E:  DATA 00,00
01A80:  DATA 00,00
01A82:  DATA 00,00
01A84:  DATA 00,07
01A86:  DATA E0,00
01A88:  DATA 00,00
01A8A:  DATA 00,00
01A8C:  DATA 00,00
01A8E:  DATA 00,00
01A90:  DATA 00,00
01A92:  DATA 00,00
01A94:  DATA 00,07
01A96:  DATA E0,00
01A98:  DATA 00,00
01A9A:  DATA 00,00
01A9C:  DATA 00,00
01A9E:  DATA 00,00
01AA0:  DATA 00,00
01AA2:  DATA 00,00
01AA4:  DATA 00,07
01AA6:  DATA E0,00
01AA8:  DATA 00,00
01AAA:  DATA 00,00
01AAC:  DATA 00,00
01AAE:  DATA 00,00
01AB0:  DATA 00,00
01AB2:  DATA 00,00
01AB4:  DATA 00,07
01AB6:  DATA E0,00
01AB8:  DATA 00,00
01ABA:  DATA 00,00
01ABC:  DATA 00,00
01ABE:  DATA 00,00
01AC0:  DATA 00,00
01AC2:  DATA 00,00
01AC4:  DATA 00,07
01AC6:  DATA E0,00
01AC8:  DATA 00,00
01ACA:  DATA 00,00
01ACC:  DATA 00,00
01ACE:  DATA 00,00
01AD0:  DATA 00,00
01AD2:  DATA 00,00
01AD4:  DATA 00,07
01AD6:  DATA E0,00
01AD8:  DATA 00,00
01ADA:  DATA 00,00
01ADC:  DATA 00,00
01ADE:  DATA 00,00
01AE0:  DATA 00,00
01AE2:  DATA 00,00
01AE4:  DATA 00,07
01AE6:  DATA E0,00
01AE8:  DATA 00,00
01AEA:  DATA 00,00
01AEC:  DATA 00,00
01AEE:  DATA 00,00
01AF0:  DATA 00,00
01AF2:  DATA 00,00
01AF4:  DATA 00,07
01AF6:  DATA E0,00
01AF8:  DATA 00,00
01AFA:  DATA 00,00
01AFC:  DATA 00,00
01AFE:  DATA 00,00
01B00:  DATA 00,00
01B02:  DATA 00,00
01B04:  DATA 00,07
01B06:  DATA E0,00
01B08:  DATA 00,00
01B0A:  DATA 00,00
01B0C:  DATA 00,00
01B0E:  DATA 00,00
01B10:  DATA 00,00
01B12:  DATA 00,00
01B14:  DATA 00,07
01B16:  DATA E0,00
01B18:  DATA 00,00
01B1A:  DATA 00,00
01B1C:  DATA 00,00
01B1E:  DATA 00,00
01B20:  DATA 00,00
01B22:  DATA 00,00
01B24:  DATA 00,07
01B26:  DATA E0,00
01B28:  DATA 00,00
01B2A:  DATA 00,00
01B2C:  DATA 00,00
01B2E:  DATA 00,00
01B30:  DATA 00,00
01B32:  DATA 00,00
01B34:  DATA 00,07
01B36:  DATA FF,FF
01B38:  DATA FF,FF
01B3A:  DATA FF,FF
01B3C:  DATA FF,FF
01B3E:  DATA FF,FF
01B40:  DATA FF,FF
01B42:  DATA FF,FF
01B44:  DATA FF,FF
01B46:  DATA FF,FF
01B48:  DATA FF,FF
01B4A:  DATA FF,FF
01B4C:  DATA FF,FF
01B4E:  DATA FF,FF
01B50:  DATA FF,FF
01B52:  DATA FF,FF
01B54:  DATA FF,FF
01B56:  DATA FF,FF
01B58:  DATA FF,FF
01B5A:  DATA FF,FF
01B5C:  DATA FF,FF
01B5E:  DATA FF,FF
01B60:  DATA FF,FF
01B62:  DATA FF,FF
01B64:  DATA FF,FF
*
01CFA:  MOVLB  B
01CFC:  MOVF   x28,W
01CFE:  MULWF  x2A
01D00:  MOVFF  FF3,01
01D04:  MOVFF  FF4,00
01D08:  MULWF  x2B
01D0A:  MOVF   FF3,W
01D0C:  ADDWF  00,F
01D0E:  MOVF   x29,W
01D10:  MULWF  x2A
01D12:  MOVF   FF3,W
01D14:  ADDWFC 00,W
01D16:  MOVWF  02
01D18:  MOVLB  0
01D1A:  RETURN 0
*
02604:  MOVLB  B
02606:  MOVF   x2C,W
02608:  CLRF   01
0260A:  SUBWF  x2B,W
0260C:  BC    2614
0260E:  MOVFF  B2B,00
02612:  BRA    262C
02614:  CLRF   00
02616:  MOVLW  08
02618:  MOVWF  x2D
0261A:  RLCF   x2B,F
0261C:  RLCF   00,F
0261E:  MOVF   x2C,W
02620:  SUBWF  00,W
02622:  BTFSC  FD8.0
02624:  MOVWF  00
02626:  RLCF   01,F
02628:  DECFSZ x2D,F
0262A:  BRA    261A
0262C:  MOVLB  0
0262E:  RETURN 0
02630:  MOVFF  B24,FEA
02634:  MOVFF  B23,FE9
02638:  MOVLB  B
0263A:  MOVFF  B32,FEF
0263E:  INCF   FE9,F
02640:  BTFSC  FD8.2
02642:  INCF   FEA,F
02644:  CLRF   FEF
02646:  INCF   x23,F
02648:  BTFSC  FD8.2
0264A:  INCF   x24,F
0264C:  MOVLB  0
0264E:  RETURN 0
02650:  MOVLW  20
02652:  MOVLB  B
02654:  BTFSS  x26.4
02656:  MOVLW  30
02658:  MOVWF  x27
0265A:  MOVFF  B25,00
0265E:  BTFSS  x25.7
02660:  BRA    2672
02662:  COMF   00,F
02664:  INCF   00,F
02666:  MOVFF  00,B25
0266A:  MOVLW  2D
0266C:  MOVWF  x27
0266E:  BSF    x26.7
02670:  BSF    x26.0
02672:  MOVF   01,W
02674:  MOVFF  B25,B2B
02678:  MOVLW  64
0267A:  MOVWF  x2C
0267C:  MOVLB  0
0267E:  RCALL  2604
02680:  MOVFF  00,B25
02684:  MOVLW  30
02686:  ADDWF  01,W
02688:  MOVLB  B
0268A:  MOVWF  x28
0268C:  MOVFF  B25,B2B
02690:  MOVLW  0A
02692:  MOVWF  x2C
02694:  MOVLB  0
02696:  RCALL  2604
02698:  MOVLW  30
0269A:  ADDWF  00,W
0269C:  MOVLB  B
0269E:  MOVWF  x2A
026A0:  MOVLW  30
026A2:  ADDWF  01,W
026A4:  MOVWF  x29
026A6:  MOVFF  B27,00
026AA:  MOVLW  30
026AC:  SUBWF  x28,W
026AE:  BZ    26B8
026B0:  BSF    x26.1
026B2:  BTFSC  x26.7
026B4:  BSF    x26.2
026B6:  BRA    26DC
026B8:  BTFSC  x26.2
026BA:  BRA    26DC
026BC:  MOVFF  B27,B28
026C0:  BTFSC  x26.1
026C2:  BRA    26CC
026C4:  MOVLW  30
026C6:  SUBWF  x29,W
026C8:  BZ    26D2
026CA:  BSF    x26.0
026CC:  BTFSC  x26.7
026CE:  BSF    x26.1
026D0:  BRA    26DC
026D2:  BTFSS  FD8.2
026D4:  BSF    x26.0
026D6:  BTFSC  FD8.2
026D8:  MOVFF  B28,B29
026DC:  BTFSC  x26.2
026DE:  BRA    26EA
026E0:  BTFSC  x26.1
026E2:  BRA    26F2
026E4:  BTFSC  x26.0
026E6:  BRA    26FA
026E8:  BRA    2702
026EA:  MOVFF  B27,B32
026EE:  MOVLB  0
026F0:  RCALL  2630
026F2:  MOVFF  B28,B32
026F6:  MOVLB  0
026F8:  RCALL  2630
026FA:  MOVFF  B29,B32
026FE:  MOVLB  0
02700:  RCALL  2630
02702:  MOVFF  B2A,B32
02706:  MOVLB  0
02708:  RCALL  2630
0270A:  RETURN 0
*
02B66:  MOVLW  8E
02B68:  MOVWF  00
02B6A:  MOVFF  B26,01
02B6E:  MOVFF  B25,02
02B72:  CLRF   03
02B74:  MOVF   01,F
02B76:  BNZ   2B8A
02B78:  MOVFF  02,01
02B7C:  CLRF   02
02B7E:  MOVLW  08
02B80:  SUBWF  00,F
02B82:  MOVF   01,F
02B84:  BNZ   2B8A
02B86:  CLRF   00
02B88:  BRA    2B9A
02B8A:  BCF    FD8.0
02B8C:  BTFSC  01.7
02B8E:  BRA    2B98
02B90:  RLCF   02,F
02B92:  RLCF   01,F
02B94:  DECF   00,F
02B96:  BRA    2B8A
02B98:  BCF    01.7
02B9A:  RETURN 0
02B9C:  MOVFF  B26,B2D
02BA0:  MOVLB  B
02BA2:  MOVF   x2A,W
02BA4:  XORWF  x2D,F
02BA6:  BTFSS  x2D.7
02BA8:  BRA    2BB4
02BAA:  BCF    FD8.2
02BAC:  BCF    FD8.0
02BAE:  BTFSC  x26.7
02BB0:  BSF    FD8.0
02BB2:  BRA    2C12
02BB4:  MOVFF  B26,B2D
02BB8:  MOVFF  B29,B2E
02BBC:  MOVF   x25,W
02BBE:  SUBWF  x2E,F
02BC0:  BZ    2BCE
02BC2:  BTFSS  x2D.7
02BC4:  BRA    2C12
02BC6:  MOVF   FD8,W
02BC8:  XORLW  01
02BCA:  MOVWF  FD8
02BCC:  BRA    2C12
02BCE:  MOVFF  B2A,B2E
02BD2:  MOVF   x26,W
02BD4:  SUBWF  x2E,F
02BD6:  BZ    2BE4
02BD8:  BTFSS  x2D.7
02BDA:  BRA    2C12
02BDC:  MOVF   FD8,W
02BDE:  XORLW  01
02BE0:  MOVWF  FD8
02BE2:  BRA    2C12
02BE4:  MOVFF  B2B,B2E
02BE8:  MOVF   x27,W
02BEA:  SUBWF  x2E,F
02BEC:  BZ    2BFA
02BEE:  BTFSS  x2D.7
02BF0:  BRA    2C12
02BF2:  MOVF   FD8,W
02BF4:  XORLW  01
02BF6:  MOVWF  FD8
02BF8:  BRA    2C12
02BFA:  MOVFF  B2C,B2E
02BFE:  MOVF   x28,W
02C00:  SUBWF  x2E,F
02C02:  BZ    2C10
02C04:  BTFSS  x2D.7
02C06:  BRA    2C12
02C08:  MOVF   FD8,W
02C0A:  XORLW  01
02C0C:  MOVWF  FD8
02C0E:  BRA    2C12
02C10:  BCF    FD8.0
02C12:  MOVLB  0
02C14:  RETURN 0
02C16:  MOVFF  FEA,B2D
02C1A:  MOVFF  FE9,B2C
02C1E:  MOVLB  B
02C20:  SWAPF  x26,W
02C22:  IORLW  F0
02C24:  MOVWF  x28
02C26:  ADDWF  x28,F
02C28:  ADDLW  E2
02C2A:  MOVWF  x29
02C2C:  ADDLW  32
02C2E:  MOVWF  x2B
02C30:  MOVF   x26,W
02C32:  ANDLW  0F
02C34:  ADDWF  x29,F
02C36:  ADDWF  x29,F
02C38:  ADDWF  x2B,F
02C3A:  ADDLW  E9
02C3C:  MOVWF  x2A
02C3E:  ADDWF  x2A,F
02C40:  ADDWF  x2A,F
02C42:  SWAPF  x25,W
02C44:  ANDLW  0F
02C46:  ADDWF  x2A,F
02C48:  ADDWF  x2B,F
02C4A:  RLCF   x2A,F
02C4C:  RLCF   x2B,F
02C4E:  COMF   x2B,F
02C50:  RLCF   x2B,F
02C52:  MOVF   x25,W
02C54:  ANDLW  0F
02C56:  ADDWF  x2B,F
02C58:  RLCF   x28,F
02C5A:  MOVLW  07
02C5C:  MOVWF  x27
02C5E:  MOVLW  0A
02C60:  DECF   x2A,F
02C62:  ADDWF  x2B,F
02C64:  BNC   2C60
02C66:  DECF   x29,F
02C68:  ADDWF  x2A,F
02C6A:  BNC   2C66
02C6C:  DECF   x28,F
02C6E:  ADDWF  x29,F
02C70:  BNC   2C6C
02C72:  DECF   x27,F
02C74:  ADDWF  x28,F
02C76:  BNC   2C72
02C78:  MOVLW  0B
02C7A:  MOVWF  FEA
02C7C:  MOVLW  27
02C7E:  MOVWF  FE9
02C80:  MOVLW  07
02C82:  ANDWF  x2C,W
02C84:  BCF    x2C.6
02C86:  ADDWF  FE9,F
02C88:  MOVLW  00
02C8A:  ADDWFC FEA,F
02C8C:  MOVF   FE9,W
02C8E:  SUBLW  2B
02C90:  BNZ   2C9A
02C92:  MOVF   FEA,W
02C94:  SUBLW  0B
02C96:  BNZ   2C9A
02C98:  BSF    x2C.6
02C9A:  MOVF   FEF,W
02C9C:  MOVWF  00
02C9E:  BNZ   2CB0
02CA0:  BTFSC  x2C.6
02CA2:  BRA    2CB0
02CA4:  BTFSC  x2C.4
02CA6:  BRA    2CD2
02CA8:  BTFSC  x2C.3
02CAA:  BRA    2CB0
02CAC:  MOVLW  20
02CAE:  BRA    2CB6
02CB0:  BSF    x2C.3
02CB2:  BCF    x2C.4
02CB4:  MOVLW  30
02CB6:  ADDWF  00,F
02CB8:  MOVFF  FEA,B26
02CBC:  MOVFF  FE9,B25
02CC0:  MOVFF  00,B32
02CC4:  MOVLB  0
02CC6:  RCALL  2630
02CC8:  MOVFF  B26,FEA
02CCC:  MOVFF  B25,FE9
02CD0:  MOVLB  B
02CD2:  MOVF   FEE,W
02CD4:  BTFSS  x2C.6
02CD6:  BRA    2C8C
02CD8:  MOVLB  0
02CDA:  RETURN 0
*
0310A:  MOVLB  B
0310C:  MOVF   x29,W
0310E:  BTFSC  FD8.2
03110:  BRA    325C
03112:  MOVWF  x35
03114:  MOVF   x2D,W
03116:  BTFSC  FD8.2
03118:  BRA    325C
0311A:  SUBWF  x35,F
0311C:  BNC   3128
0311E:  MOVLW  7F
03120:  ADDWF  x35,F
03122:  BTFSC  FD8.0
03124:  BRA    325C
03126:  BRA    3134
03128:  MOVLW  81
0312A:  SUBWF  x35,F
0312C:  BTFSS  FD8.0
0312E:  BRA    325C
03130:  BTFSC  FD8.2
03132:  BRA    325C
03134:  MOVFF  B35,00
03138:  CLRF   01
0313A:  CLRF   02
0313C:  CLRF   03
0313E:  CLRF   x34
03140:  MOVFF  B2A,B33
03144:  BSF    x33.7
03146:  MOVFF  B2B,B32
0314A:  MOVFF  B2C,B31
0314E:  MOVLW  19
03150:  MOVWF  x35
03152:  MOVF   x30,W
03154:  SUBWF  x31,F
03156:  BC    3172
03158:  MOVLW  01
0315A:  SUBWF  x32,F
0315C:  BC    3172
0315E:  SUBWF  x33,F
03160:  BC    3172
03162:  SUBWF  x34,F
03164:  BC    3172
03166:  INCF   x34,F
03168:  INCF   x33,F
0316A:  INCF   x32,F
0316C:  MOVF   x30,W
0316E:  ADDWF  x31,F
03170:  BRA    31C2
03172:  MOVF   x2F,W
03174:  SUBWF  x32,F
03176:  BC    319C
03178:  MOVLW  01
0317A:  SUBWF  x33,F
0317C:  BC    319C
0317E:  SUBWF  x34,F
03180:  BC    319C
03182:  INCF   x34,F
03184:  INCF   x33,F
03186:  MOVF   x2F,W
03188:  ADDWF  x32,F
0318A:  MOVF   x30,W
0318C:  ADDWF  x31,F
0318E:  BNC   31C2
03190:  INCF   x32,F
03192:  BNZ   31C2
03194:  INCF   x33,F
03196:  BNZ   31C2
03198:  INCF   x34,F
0319A:  BRA    31C2
0319C:  MOVF   x2E,W
0319E:  IORLW  80
031A0:  SUBWF  x33,F
031A2:  BC    31C0
031A4:  MOVLW  01
031A6:  SUBWF  x34,F
031A8:  BC    31C0
031AA:  INCF   x34,F
031AC:  MOVF   x2E,W
031AE:  IORLW  80
031B0:  ADDWF  x33,F
031B2:  MOVF   x2F,W
031B4:  ADDWF  x32,F
031B6:  BNC   318A
031B8:  INCF   x33,F
031BA:  BNZ   318A
031BC:  INCF   x34,F
031BE:  BRA    318A
031C0:  BSF    03.0
031C2:  DECFSZ x35,F
031C4:  BRA    31C8
031C6:  BRA    31DE
031C8:  BCF    FD8.0
031CA:  RLCF   x31,F
031CC:  RLCF   x32,F
031CE:  RLCF   x33,F
031D0:  RLCF   x34,F
031D2:  BCF    FD8.0
031D4:  RLCF   03,F
031D6:  RLCF   02,F
031D8:  RLCF   01,F
031DA:  RLCF   x36,F
031DC:  BRA    3152
031DE:  BTFSS  x36.0
031E0:  BRA    31EE
031E2:  BCF    FD8.0
031E4:  RRCF   01,F
031E6:  RRCF   02,F
031E8:  RRCF   03,F
031EA:  RRCF   x36,F
031EC:  BRA    31F2
031EE:  DECF   00,F
031F0:  BZ    325C
031F2:  BTFSC  x36.7
031F4:  BRA    3232
031F6:  BCF    FD8.0
031F8:  RLCF   x31,F
031FA:  RLCF   x32,F
031FC:  RLCF   x33,F
031FE:  RLCF   x34,F
03200:  MOVF   x30,W
03202:  SUBWF  x31,F
03204:  BC    3214
03206:  MOVLW  01
03208:  SUBWF  x32,F
0320A:  BC    3214
0320C:  SUBWF  x33,F
0320E:  BC    3214
03210:  SUBWF  x34,F
03212:  BNC   3248
03214:  MOVF   x2F,W
03216:  SUBWF  x32,F
03218:  BC    3224
0321A:  MOVLW  01
0321C:  SUBWF  x33,F
0321E:  BC    3224
03220:  SUBWF  x34,F
03222:  BNC   3248
03224:  MOVF   x2E,W
03226:  IORLW  80
03228:  SUBWF  x33,F
0322A:  BC    3232
0322C:  MOVLW  01
0322E:  SUBWF  x34,F
03230:  BNC   3248
03232:  INCF   03,F
03234:  BNZ   3248
03236:  INCF   02,F
03238:  BNZ   3248
0323A:  INCF   01,F
0323C:  BNZ   3248
0323E:  INCF   00,F
03240:  BZ    325C
03242:  RRCF   01,F
03244:  RRCF   02,F
03246:  RRCF   03,F
03248:  MOVFF  B2A,B35
0324C:  MOVF   x2E,W
0324E:  XORWF  x35,F
03250:  BTFSS  x35.7
03252:  BRA    3258
03254:  BSF    01.7
03256:  BRA    3264
03258:  BCF    01.7
0325A:  BRA    3264
0325C:  CLRF   00
0325E:  CLRF   01
03260:  CLRF   02
03262:  CLRF   03
03264:  MOVLB  0
03266:  RETURN 0
03268:  MOVLW  80
0326A:  BTFSS  FD8.1
0326C:  BRA    3272
0326E:  MOVLB  B
03270:  XORWF  x2A,F
03272:  MOVLB  B
03274:  CLRF   x2F
03276:  CLRF   x30
03278:  MOVFF  B26,B2E
0327C:  MOVF   x2A,W
0327E:  XORWF  x2E,F
03280:  MOVF   x25,W
03282:  BTFSC  FD8.2
03284:  BRA    3444
03286:  MOVWF  x2D
03288:  MOVWF  00
0328A:  MOVF   x29,W
0328C:  BTFSC  FD8.2
0328E:  BRA    3456
03290:  SUBWF  x2D,F
03292:  BTFSC  FD8.2
03294:  BRA    339C
03296:  BNC   3314
03298:  MOVFF  B2A,B33
0329C:  BSF    x33.7
0329E:  MOVFF  B2B,B32
032A2:  MOVFF  B2C,B31
032A6:  CLRF   x30
032A8:  BCF    FD8.0
032AA:  RRCF   x33,F
032AC:  RRCF   x32,F
032AE:  RRCF   x31,F
032B0:  RRCF   x30,F
032B2:  DECFSZ x2D,F
032B4:  BRA    32A6
032B6:  BTFSS  x2E.7
032B8:  BRA    32C0
032BA:  BSF    x2F.0
032BC:  BRA    347E
032BE:  BCF    x2F.0
032C0:  BCF    x2D.0
032C2:  BSF    x2F.4
032C4:  MOVLW  0B
032C6:  MOVWF  FEA
032C8:  MOVLW  28
032CA:  MOVWF  FE9
032CC:  BRA    34A4
032CE:  BCF    x2F.4
032D0:  BTFSC  x2E.7
032D2:  BRA    32E8
032D4:  BTFSS  x2D.0
032D6:  BRA    32FE
032D8:  RRCF   x33,F
032DA:  RRCF   x32,F
032DC:  RRCF   x31,F
032DE:  RRCF   x30,F
032E0:  INCF   00,F
032E2:  BTFSC  FD8.2
032E4:  BRA    3474
032E6:  BRA    32FE
032E8:  BTFSC  x33.7
032EA:  BRA    3304
032EC:  BCF    FD8.0
032EE:  RLCF   x30,F
032F0:  RLCF   x31,F
032F2:  RLCF   x32,F
032F4:  RLCF   x33,F
032F6:  DECF   00,F
032F8:  BTFSC  FD8.2
032FA:  BRA    3474
032FC:  BRA    32E8
032FE:  BSF    x2F.6
03300:  BRA    33DC
03302:  BCF    x2F.6
03304:  MOVFF  B26,B2E
03308:  BTFSS  x26.7
0330A:  BRA    3310
0330C:  BSF    x33.7
0330E:  BRA    3466
03310:  BCF    x33.7
03312:  BRA    3466
03314:  MOVFF  B29,B2D
03318:  MOVFF  B29,00
0331C:  MOVF   x25,W
0331E:  SUBWF  x2D,F
03320:  MOVFF  B26,B33
03324:  BSF    x33.7
03326:  MOVFF  B27,B32
0332A:  MOVFF  B28,B31
0332E:  CLRF   x30
03330:  BCF    FD8.0
03332:  RRCF   x33,F
03334:  RRCF   x32,F
03336:  RRCF   x31,F
03338:  RRCF   x30,F
0333A:  DECFSZ x2D,F
0333C:  BRA    332E
0333E:  BTFSS  x2E.7
03340:  BRA    3348
03342:  BSF    x2F.1
03344:  BRA    347E
03346:  BCF    x2F.1
03348:  BCF    x2D.0
0334A:  BSF    x2F.5
0334C:  MOVLW  0B
0334E:  MOVWF  FEA
03350:  MOVLW  2C
03352:  MOVWF  FE9
03354:  BRA    34A4
03356:  BCF    x2F.5
03358:  BTFSC  x2E.7
0335A:  BRA    3370
0335C:  BTFSS  x2D.0
0335E:  BRA    3386
03360:  RRCF   x33,F
03362:  RRCF   x32,F
03364:  RRCF   x31,F
03366:  RRCF   x30,F
03368:  INCF   00,F
0336A:  BTFSC  FD8.2
0336C:  BRA    3474
0336E:  BRA    3386
03370:  BTFSC  x33.7
03372:  BRA    338C
03374:  BCF    FD8.0
03376:  RLCF   x30,F
03378:  RLCF   x31,F
0337A:  RLCF   x32,F
0337C:  RLCF   x33,F
0337E:  DECF   00,F
03380:  BTFSC  FD8.2
03382:  BRA    3474
03384:  BRA    3370
03386:  BSF    x2F.7
03388:  BRA    33DC
0338A:  BCF    x2F.7
0338C:  MOVFF  B2A,B2E
03390:  BTFSS  x2A.7
03392:  BRA    3398
03394:  BSF    x33.7
03396:  BRA    3466
03398:  BCF    x33.7
0339A:  BRA    3466
0339C:  MOVFF  B2A,B33
033A0:  BSF    x33.7
033A2:  MOVFF  B2B,B32
033A6:  MOVFF  B2C,B31
033AA:  BTFSS  x2E.7
033AC:  BRA    33B6
033AE:  BCF    x33.7
033B0:  BSF    x2F.2
033B2:  BRA    347E
033B4:  BCF    x2F.2
033B6:  CLRF   x30
033B8:  BCF    x2D.0
033BA:  MOVLW  0B
033BC:  MOVWF  FEA
033BE:  MOVLW  28
033C0:  MOVWF  FE9
033C2:  BRA    34A4
033C4:  BTFSC  x2E.7
033C6:  BRA    3400
033C8:  MOVFF  B26,B2E
033CC:  BTFSS  x2D.0
033CE:  BRA    33DC
033D0:  RRCF   x33,F
033D2:  RRCF   x32,F
033D4:  RRCF   x31,F
033D6:  RRCF   x30,F
033D8:  INCF   00,F
033DA:  BZ    3474
033DC:  BTFSS  x30.7
033DE:  BRA    33F6
033E0:  INCF   x31,F
033E2:  BNZ   33F6
033E4:  INCF   x32,F
033E6:  BNZ   33F6
033E8:  INCF   x33,F
033EA:  BNZ   33F6
033EC:  RRCF   x33,F
033EE:  RRCF   x32,F
033F0:  RRCF   x31,F
033F2:  INCF   00,F
033F4:  BZ    3474
033F6:  BTFSC  x2F.6
033F8:  BRA    3302
033FA:  BTFSC  x2F.7
033FC:  BRA    338A
033FE:  BRA    3438
03400:  MOVLW  80
03402:  XORWF  x33,F
03404:  BTFSS  x33.7
03406:  BRA    3410
03408:  BRA    347E
0340A:  MOVFF  B2A,B2E
0340E:  BRA    3424
03410:  MOVFF  B26,B2E
03414:  MOVF   x33,F
03416:  BNZ   3424
03418:  MOVF   x32,F
0341A:  BNZ   3424
0341C:  MOVF   x31,F
0341E:  BNZ   3424
03420:  CLRF   00
03422:  BRA    3466
03424:  BTFSC  x33.7
03426:  BRA    3438
03428:  BCF    FD8.0
0342A:  RLCF   x30,F
0342C:  RLCF   x31,F
0342E:  RLCF   x32,F
03430:  RLCF   x33,F
03432:  DECFSZ 00,F
03434:  BRA    3424
03436:  BRA    3474
03438:  BTFSS  x2E.7
0343A:  BRA    3440
0343C:  BSF    x33.7
0343E:  BRA    3466
03440:  BCF    x33.7
03442:  BRA    3466
03444:  MOVFF  B29,00
03448:  MOVFF  B2A,B33
0344C:  MOVFF  B2B,B32
03450:  MOVFF  B2C,B31
03454:  BRA    3466
03456:  MOVFF  B25,00
0345A:  MOVFF  B26,B33
0345E:  MOVFF  B27,B32
03462:  MOVFF  B28,B31
03466:  MOVFF  B33,01
0346A:  MOVFF  B32,02
0346E:  MOVFF  B31,03
03472:  BRA    34DC
03474:  CLRF   00
03476:  CLRF   01
03478:  CLRF   02
0347A:  CLRF   03
0347C:  BRA    34DC
0347E:  CLRF   x30
03480:  COMF   x31,F
03482:  COMF   x32,F
03484:  COMF   x33,F
03486:  COMF   x30,F
03488:  INCF   x30,F
0348A:  BNZ   3496
0348C:  INCF   x31,F
0348E:  BNZ   3496
03490:  INCF   x32,F
03492:  BNZ   3496
03494:  INCF   x33,F
03496:  BTFSC  x2F.0
03498:  BRA    32BE
0349A:  BTFSC  x2F.1
0349C:  BRA    3346
0349E:  BTFSC  x2F.2
034A0:  BRA    33B4
034A2:  BRA    340A
034A4:  MOVF   FEF,W
034A6:  ADDWF  x31,F
034A8:  BNC   34B4
034AA:  INCF   x32,F
034AC:  BNZ   34B4
034AE:  INCF   x33,F
034B0:  BTFSC  FD8.2
034B2:  BSF    x2D.0
034B4:  MOVF   FED,F
034B6:  MOVF   FEF,W
034B8:  ADDWF  x32,F
034BA:  BNC   34C2
034BC:  INCF   x33,F
034BE:  BTFSC  FD8.2
034C0:  BSF    x2D.0
034C2:  MOVF   FED,F
034C4:  MOVF   FEF,W
034C6:  BTFSC  FEF.7
034C8:  BRA    34CC
034CA:  XORLW  80
034CC:  ADDWF  x33,F
034CE:  BTFSC  FD8.0
034D0:  BSF    x2D.0
034D2:  BTFSC  x2F.4
034D4:  BRA    32CE
034D6:  BTFSC  x2F.5
034D8:  BRA    3356
034DA:  BRA    33C4
034DC:  MOVLB  0
034DE:  RETURN 0
034E0:  MOVLB  B
034E2:  MOVF   x32,W
034E4:  BTFSC  FD8.2
034E6:  BRA    35CA
034E8:  MOVWF  00
034EA:  MOVF   x36,W
034EC:  BTFSC  FD8.2
034EE:  BRA    35CA
034F0:  ADDWF  00,F
034F2:  BNC   34FC
034F4:  MOVLW  81
034F6:  ADDWF  00,F
034F8:  BC    35CA
034FA:  BRA    3504
034FC:  MOVLW  7F
034FE:  SUBWF  00,F
03500:  BNC   35CA
03502:  BZ    35CA
03504:  MOVFF  B33,B3A
03508:  MOVF   x37,W
0350A:  XORWF  x3A,F
0350C:  BSF    x33.7
0350E:  BSF    x37.7
03510:  MOVF   x35,W
03512:  MULWF  x39
03514:  MOVFF  FF4,B3C
03518:  MOVF   x34,W
0351A:  MULWF  x38
0351C:  MOVFF  FF4,03
03520:  MOVFF  FF3,B3B
03524:  MULWF  x39
03526:  MOVF   FF3,W
03528:  ADDWF  x3C,F
0352A:  MOVF   FF4,W
0352C:  ADDWFC x3B,F
0352E:  MOVLW  00
03530:  ADDWFC 03,F
03532:  MOVF   x35,W
03534:  MULWF  x38
03536:  MOVF   FF3,W
03538:  ADDWF  x3C,F
0353A:  MOVF   FF4,W
0353C:  ADDWFC x3B,F
0353E:  MOVLW  00
03540:  CLRF   02
03542:  ADDWFC 03,F
03544:  ADDWFC 02,F
03546:  MOVF   x33,W
03548:  MULWF  x39
0354A:  MOVF   FF3,W
0354C:  ADDWF  x3B,F
0354E:  MOVF   FF4,W
03550:  ADDWFC 03,F
03552:  MOVLW  00
03554:  ADDWFC 02,F
03556:  MOVF   x33,W
03558:  MULWF  x38
0355A:  MOVF   FF3,W
0355C:  ADDWF  03,F
0355E:  MOVF   FF4,W
03560:  ADDWFC 02,F
03562:  MOVLW  00
03564:  CLRF   01
03566:  ADDWFC 01,F
03568:  MOVF   x35,W
0356A:  MULWF  x37
0356C:  MOVF   FF3,W
0356E:  ADDWF  x3B,F
03570:  MOVF   FF4,W
03572:  ADDWFC 03,F
03574:  MOVLW  00
03576:  ADDWFC 02,F
03578:  ADDWFC 01,F
0357A:  MOVF   x34,W
0357C:  MULWF  x37
0357E:  MOVF   FF3,W
03580:  ADDWF  03,F
03582:  MOVF   FF4,W
03584:  ADDWFC 02,F
03586:  MOVLW  00
03588:  ADDWFC 01,F
0358A:  MOVF   x33,W
0358C:  MULWF  x37
0358E:  MOVF   FF3,W
03590:  ADDWF  02,F
03592:  MOVF   FF4,W
03594:  ADDWFC 01,F
03596:  INCF   00,F
03598:  BTFSC  01.7
0359A:  BRA    35A6
0359C:  RLCF   x3B,F
0359E:  RLCF   03,F
035A0:  RLCF   02,F
035A2:  RLCF   01,F
035A4:  DECF   00,F
035A6:  MOVLW  00
035A8:  BTFSS  x3B.7
035AA:  BRA    35C0
035AC:  INCF   03,F
035AE:  ADDWFC 02,F
035B0:  ADDWFC 01,F
035B2:  MOVF   01,W
035B4:  BNZ   35C0
035B6:  MOVF   02,W
035B8:  BNZ   35C0
035BA:  MOVF   03,W
035BC:  BNZ   35C0
035BE:  INCF   00,F
035C0:  BTFSC  x3A.7
035C2:  BSF    01.7
035C4:  BTFSS  x3A.7
035C6:  BCF    01.7
035C8:  BRA    35D2
035CA:  CLRF   00
035CC:  CLRF   01
035CE:  CLRF   02
035D0:  CLRF   03
035D2:  MOVLB  0
035D4:  RETURN 0
035D6:  MOVLB  B
035D8:  MOVF   x32,W
035DA:  SUBLW  B6
035DC:  MOVWF  x32
035DE:  CLRF   03
035E0:  MOVFF  B33,B36
035E4:  BSF    x33.7
035E6:  BCF    FD8.0
035E8:  RRCF   x33,F
035EA:  RRCF   x34,F
035EC:  RRCF   x35,F
035EE:  RRCF   03,F
035F0:  RRCF   02,F
035F2:  RRCF   01,F
035F4:  RRCF   00,F
035F6:  DECFSZ x32,F
035F8:  BRA    35E6
035FA:  BTFSS  x36.7
035FC:  BRA    3614
035FE:  COMF   00,F
03600:  COMF   01,F
03602:  COMF   02,F
03604:  COMF   03,F
03606:  INCF   00,F
03608:  BTFSC  FD8.2
0360A:  INCF   01,F
0360C:  BTFSC  FD8.2
0360E:  INCF   02,F
03610:  BTFSC  FD8.2
03612:  INCF   03,F
03614:  MOVLB  0
03616:  GOTO   3704 (RETURN)
0361A:  BTFSC  FD8.1
0361C:  BRA    3626
0361E:  MOVLW  0B
03620:  MOVWF  FEA
03622:  MOVLW  3A
03624:  MOVWF  FE9
03626:  CLRF   00
03628:  CLRF   01
0362A:  CLRF   02
0362C:  CLRF   03
0362E:  MOVLB  B
03630:  CLRF   x3A
03632:  CLRF   x3B
03634:  CLRF   x3C
03636:  CLRF   x3D
03638:  MOVF   x39,W
0363A:  IORWF  x38,W
0363C:  IORWF  x37,W
0363E:  IORWF  x36,W
03640:  BZ    369A
03642:  MOVLW  20
03644:  MOVWF  x3E
03646:  BCF    FD8.0
03648:  RLCF   x32,F
0364A:  RLCF   x33,F
0364C:  RLCF   x34,F
0364E:  RLCF   x35,F
03650:  RLCF   x3A,F
03652:  RLCF   x3B,F
03654:  RLCF   x3C,F
03656:  RLCF   x3D,F
03658:  MOVF   x39,W
0365A:  SUBWF  x3D,W
0365C:  BNZ   366E
0365E:  MOVF   x38,W
03660:  SUBWF  x3C,W
03662:  BNZ   366E
03664:  MOVF   x37,W
03666:  SUBWF  x3B,W
03668:  BNZ   366E
0366A:  MOVF   x36,W
0366C:  SUBWF  x3A,W
0366E:  BNC   368E
03670:  MOVF   x36,W
03672:  SUBWF  x3A,F
03674:  MOVF   x37,W
03676:  BTFSS  FD8.0
03678:  INCFSZ x37,W
0367A:  SUBWF  x3B,F
0367C:  MOVF   x38,W
0367E:  BTFSS  FD8.0
03680:  INCFSZ x38,W
03682:  SUBWF  x3C,F
03684:  MOVF   x39,W
03686:  BTFSS  FD8.0
03688:  INCFSZ x39,W
0368A:  SUBWF  x3D,F
0368C:  BSF    FD8.0
0368E:  RLCF   00,F
03690:  RLCF   01,F
03692:  RLCF   02,F
03694:  RLCF   03,F
03696:  DECFSZ x3E,F
03698:  BRA    3646
0369A:  MOVFF  B3A,FEF
0369E:  MOVFF  B3B,FEC
036A2:  MOVFF  B3C,FEC
036A6:  MOVFF  B3D,FEC
036AA:  MOVLB  0
036AC:  RETURN 0
036AE:  MOVF   FE9,W
036B0:  MOVLB  B
036B2:  MOVWF  x2A
036B4:  MOVF   x29,W
036B6:  MOVWF  x2C
036B8:  BZ    36F0
036BA:  MOVFF  B28,B35
036BE:  MOVFF  B27,B34
036C2:  MOVFF  B26,B33
036C6:  MOVFF  B25,B32
036CA:  CLRF   x39
036CC:  CLRF   x38
036CE:  MOVLW  20
036D0:  MOVWF  x37
036D2:  MOVLW  82
036D4:  MOVWF  x36
036D6:  MOVLB  0
036D8:  RCALL  34E0
036DA:  MOVFF  03,B28
036DE:  MOVFF  02,B27
036E2:  MOVFF  01,B26
036E6:  MOVFF  00,B25
036EA:  MOVLB  B
036EC:  DECFSZ x2C,F
036EE:  BRA    36BA
036F0:  MOVFF  B28,B35
036F4:  MOVFF  B27,B34
036F8:  MOVFF  B26,B33
036FC:  MOVFF  B25,B32
03700:  MOVLB  0
03702:  BRA    35D6
03704:  MOVFF  03,B28
03708:  MOVFF  02,B27
0370C:  MOVFF  01,B26
03710:  MOVFF  00,B25
03714:  MOVLB  B
03716:  BTFSS  x28.7
03718:  BRA    3734
0371A:  DECF   x2A,F
0371C:  BSF    x2A.5
0371E:  COMF   x25,F
03720:  COMF   x26,F
03722:  COMF   x27,F
03724:  COMF   x28,F
03726:  INCF   x25,F
03728:  BTFSC  FD8.2
0372A:  INCF   x26,F
0372C:  BTFSC  FD8.2
0372E:  INCF   x27,F
03730:  BTFSC  FD8.2
03732:  INCF   x28,F
03734:  MOVLW  3B
03736:  MOVWF  x31
03738:  MOVLW  9A
0373A:  MOVWF  x30
0373C:  MOVLW  CA
0373E:  MOVWF  x2F
03740:  CLRF   x2E
03742:  MOVLW  0A
03744:  MOVWF  x2C
03746:  MOVF   x29,W
03748:  BTFSC  FD8.2
0374A:  INCF   x2A,F
0374C:  BSF    FD8.1
0374E:  MOVLW  0B
03750:  MOVWF  FEA
03752:  MOVLW  25
03754:  MOVWF  FE9
03756:  MOVFF  B28,B35
0375A:  MOVFF  B27,B34
0375E:  MOVFF  B26,B33
03762:  MOVFF  B25,B32
03766:  MOVFF  B31,B39
0376A:  MOVFF  B30,B38
0376E:  MOVFF  B2F,B37
03772:  MOVFF  B2E,B36
03776:  MOVLB  0
03778:  RCALL  361A
0377A:  MOVF   01,W
0377C:  MOVF   00,F
0377E:  BNZ   37A6
03780:  MOVLB  B
03782:  INCF   x29,W
03784:  SUBWF  x2C,W
03786:  BTFSS  FD8.2
03788:  BRA    378E
0378A:  MOVLB  0
0378C:  BRA    37A6
0378E:  MOVF   x2A,W
03790:  BZ    37AC
03792:  ANDLW  0F
03794:  SUBWF  x2C,W
03796:  BZ    379A
03798:  BC    3822
0379A:  BTFSC  x2A.7
0379C:  BRA    3822
0379E:  BTFSC  x2A.6
037A0:  BRA    37AC
037A2:  MOVLW  20
037A4:  BRA    3814
037A6:  MOVLW  20
037A8:  MOVLB  B
037AA:  ANDWF  x2A,F
037AC:  BTFSS  x2A.5
037AE:  BRA    37CE
037B0:  BCF    x2A.5
037B2:  MOVF   x29,W
037B4:  BTFSS  FD8.2
037B6:  DECF   x2A,F
037B8:  MOVF   00,W
037BA:  MOVWF  x2A
037BC:  MOVLW  2D
037BE:  MOVWF  x32
037C0:  MOVLB  0
037C2:  CALL   2630
037C6:  MOVLB  B
037C8:  MOVF   x2A,W
037CA:  MOVWF  00
037CC:  CLRF   x2A
037CE:  MOVF   x29,W
037D0:  SUBWF  x2C,W
037D2:  BNZ   37EE
037D4:  MOVF   00,W
037D6:  MOVWF  x2A
037D8:  MOVLW  2E
037DA:  MOVWF  x32
037DC:  MOVLB  0
037DE:  CALL   2630
037E2:  MOVLB  B
037E4:  MOVF   x2A,W
037E6:  MOVWF  00
037E8:  MOVLW  20
037EA:  ANDWF  x2A,F
037EC:  MOVLW  00
037EE:  MOVLW  30
037F0:  BTFSS  x2A.5
037F2:  BRA    3814
037F4:  BCF    x2A.5
037F6:  MOVF   x29,W
037F8:  BTFSS  FD8.2
037FA:  DECF   x2A,F
037FC:  MOVF   00,W
037FE:  MOVWF  x2A
03800:  MOVLW  2D
03802:  MOVWF  x32
03804:  MOVLB  0
03806:  CALL   2630
0380A:  MOVLB  B
0380C:  MOVF   x2A,W
0380E:  MOVWF  00
03810:  CLRF   x2A
03812:  MOVLW  30
03814:  ADDWF  00,F
03816:  MOVFF  00,B32
0381A:  MOVLB  0
0381C:  CALL   2630
03820:  MOVLB  B
03822:  BCF    FD8.1
03824:  MOVFF  B31,B35
03828:  MOVFF  B30,B34
0382C:  MOVFF  B2F,B33
03830:  MOVFF  B2E,B32
03834:  CLRF   x39
03836:  CLRF   x38
03838:  CLRF   x37
0383A:  MOVLW  0A
0383C:  MOVWF  x36
0383E:  MOVLB  0
03840:  RCALL  361A
03842:  MOVFF  03,B31
03846:  MOVFF  02,B30
0384A:  MOVFF  01,B2F
0384E:  MOVFF  00,B2E
03852:  MOVLB  B
03854:  DECFSZ x2C,F
03856:  BRA    374C
03858:  MOVLB  0
0385A:  RETURN 0
*
0423E:  CLRF   01
04240:  CLRF   02
04242:  CLRF   00
04244:  CLRF   03
04246:  MOVLB  B
04248:  MOVF   x2A,W
0424A:  BNZ   4250
0424C:  MOVF   x29,W
0424E:  BZ    4280
04250:  MOVLW  10
04252:  MOVWF  x2B
04254:  BCF    FD8.0
04256:  RLCF   x27,F
04258:  RLCF   x28,F
0425A:  RLCF   00,F
0425C:  RLCF   03,F
0425E:  MOVF   x2A,W
04260:  SUBWF  03,W
04262:  BNZ   4268
04264:  MOVF   x29,W
04266:  SUBWF  00,W
04268:  BNC   4278
0426A:  MOVF   x29,W
0426C:  SUBWF  00,F
0426E:  BTFSS  FD8.0
04270:  DECF   03,F
04272:  MOVF   x2A,W
04274:  SUBWF  03,F
04276:  BSF    FD8.0
04278:  RLCF   01,F
0427A:  RLCF   02,F
0427C:  DECFSZ x2B,F
0427E:  BRA    4254
04280:  MOVLB  0
04282:  RETURN 0
04284:  MOVLW  8E
04286:  MOVWF  00
04288:  MOVLB  B
0428A:  MOVF   x27,W
0428C:  SUBWF  00,F
0428E:  MOVFF  B28,02
04292:  MOVFF  B29,01
04296:  BSF    02.7
04298:  MOVF   00,F
0429A:  BZ    42AE
0429C:  BCF    FD8.0
0429E:  MOVF   02,F
042A0:  BNZ   42A6
042A2:  MOVF   01,F
042A4:  BZ    42AE
042A6:  RRCF   02,F
042A8:  RRCF   01,F
042AA:  DECFSZ 00,F
042AC:  BRA    429C
042AE:  BTFSS  x28.7
042B0:  BRA    42BC
042B2:  COMF   01,F
042B4:  COMF   02,F
042B6:  INCF   01,F
042B8:  BTFSC  FD8.2
042BA:  INCF   02,F
042BC:  MOVLB  0
042BE:  RETURN 0
*
045C4:  CLRF   00
045C6:  CLRF   01
045C8:  MOVLB  B
045CA:  MOVF   x2E,W
045CC:  BCF    FD8.0
045CE:  BTFSC  x2F.0
045D0:  ADDWF  00,F
045D2:  RRCF   00,F
045D4:  RRCF   01,F
045D6:  BTFSC  x2F.1
045D8:  ADDWF  00,F
045DA:  RRCF   00,F
045DC:  RRCF   01,F
045DE:  BTFSC  x2F.2
045E0:  ADDWF  00,F
045E2:  RRCF   00,F
045E4:  RRCF   01,F
045E6:  BTFSC  x2F.3
045E8:  ADDWF  00,F
045EA:  RRCF   00,F
045EC:  RRCF   01,F
045EE:  BTFSC  x2F.4
045F0:  ADDWF  00,F
045F2:  RRCF   00,F
045F4:  RRCF   01,F
045F6:  BTFSC  x2F.5
045F8:  ADDWF  00,F
045FA:  RRCF   00,F
045FC:  RRCF   01,F
045FE:  BTFSC  x2F.6
04600:  ADDWF  00,F
04602:  RRCF   00,F
04604:  RRCF   01,F
04606:  BTFSC  x2F.7
04608:  ADDWF  00,F
0460A:  RRCF   00,F
0460C:  RRCF   01,F
0460E:  MOVLB  0
04610:  RETURN 0
....................  
.................... #list 
....................  
.................... #device ADC=8 
....................  
.................... #FUSES NOWDT                    //No Watch Dog Timer 
.................... #FUSES WDT128                   //Watch Dog Timer uses 1:128 Postscale 
.................... #FUSES NOBROWNOUT               //No brownout reset 
.................... #FUSES NOLVP                    //No low voltage prgming, B3(PIC16) or B5(PIC18) used for I/O 
.................... //#FUSES NOMCLR 
.................... #FUSES NOXINST                  //Extended set extension and Indexed Addressing mode disabled (Legacy mode) 
....................  
.................... #use delay(internal=8MHz) 
*
01EEA:  MOVLW  0B
01EEC:  MOVWF  FEA
01EEE:  MOVLW  2D
01EF0:  MOVWF  FE9
01EF2:  MOVF   FEF,W
01EF4:  BZ    1F10
01EF6:  MOVLW  02
01EF8:  MOVWF  01
01EFA:  CLRF   00
01EFC:  DECFSZ 00,F
01EFE:  BRA    1EFC
01F00:  DECFSZ 01,F
01F02:  BRA    1EFA
01F04:  MOVLW  97
01F06:  MOVWF  00
01F08:  DECFSZ 00,F
01F0A:  BRA    1F08
01F0C:  DECFSZ FEF,F
01F0E:  BRA    1EF6
01F10:  RETURN 0
*
042C0:  MOVLW  09
042C2:  MOVLB  B
042C4:  SUBWF  x28,F
042C6:  BNC   42E0
042C8:  MOVLW  0B
042CA:  MOVWF  FEA
042CC:  MOVLW  28
042CE:  MOVWF  FE9
042D0:  BCF    FD8.0
042D2:  RRCF   FEF,F
042D4:  MOVF   FEF,W
042D6:  BZ    42E0
042D8:  BRA    42DC
042DA:  NOP   
042DC:  DECFSZ FEF,F
042DE:  BRA    42DA
042E0:  MOVLB  0
042E2:  RETURN 0
....................  
.................... #include <rtcc.c> 
.................... /////////////////////////////////////////////////////////////////////////////////////// 
.................... ///                                   DS1307_12.h                                   /// 
.................... ///                     Modified Driver for Real Time Clock DS1307                  /// 
.................... ///                             12 hour(AM PM) format                               /// 
.................... ///                                                                                 /// 
.................... /// ds1307_init() - Enable oscillator without clearing the seconds register         /// 
.................... ///                 used when PIC loses power and DS1307 run from 3V BAT            /// 
.................... ///               - Disable squarewave output                                       /// 
.................... ///                                                                                 /// 
.................... /// ds1307_set_date_time(day,mth,year,dow,hour,am_pm,min,sec)  Set the date/time    /// 
.................... ///                                                                                 /// 
.................... /// ds1307_get_date(day,mth,year,dow)               Get the date                    /// 
.................... ///                                                                                 /// 
.................... /// ds1307_get_time(hr,am_pm,min,sec)                     Get the time              /// 
.................... ///                                                                                 /// 
.................... ///  ****** am_pm returns                                                           /// 
.................... ///         1 for PM and 0 for AM                                                   /// 
.................... ///                                                                                 /// 
.................... /// Developed by Christian Rebogio                                                  /// 
.................... ///   suggestions and request please email me at                                    /// 
.................... ///   christian.rebogio@gmail.com                                                   /// 
.................... /// credits to http://www.ccsinfo.com/forum/viewtopic.php?t=23255                   /// 
.................... /////////////////////////////////////////////////////////////////////////////////////// 
....................  
....................  
.................... #define RTC_SDA  PIN_C4 
.................... #define RTC_SCL  PIN_C3 
....................  
.................... #use i2c(master, sda=RTC_SDA, scl=RTC_SCL,FORCE_SW) 
*
01F12:  MOVLW  08
01F14:  MOVWF  01
01F16:  BRA    1F18
01F18:  BCF    F8B.3
01F1A:  BCF    F94.3
01F1C:  BRA    1F1E
01F1E:  NOP   
01F20:  MOVLB  B
01F22:  RLCF   x2E,F
01F24:  BCF    F8B.4
01F26:  BTFSC  FD8.0
01F28:  BSF    F94.4
01F2A:  BTFSS  FD8.0
01F2C:  BCF    F94.4
01F2E:  BSF    F94.3
01F30:  BTFSS  F82.3
01F32:  BRA    1F30
01F34:  DECFSZ 01,F
01F36:  BRA    1F3A
01F38:  BRA    1F3E
01F3A:  MOVLB  0
01F3C:  BRA    1F16
01F3E:  BRA    1F40
01F40:  BCF    F8B.3
01F42:  BCF    F94.3
01F44:  NOP   
01F46:  BSF    F94.4
01F48:  BRA    1F4A
01F4A:  NOP   
01F4C:  BRA    1F4E
01F4E:  NOP   
01F50:  BSF    F94.3
01F52:  BTFSS  F82.3
01F54:  BRA    1F52
01F56:  CLRF   01
01F58:  BRA    1F5A
01F5A:  NOP   
01F5C:  BTFSC  F82.4
01F5E:  BSF    01.0
01F60:  BCF    F8B.3
01F62:  BCF    F94.3
01F64:  BCF    F8B.4
01F66:  BCF    F94.4
01F68:  MOVLB  0
01F6A:  RETURN 0
01F6C:  MOVLW  08
01F6E:  MOVLB  B
01F70:  MOVWF  x2A
01F72:  MOVFF  00,B2B
01F76:  BSF    F94.4
01F78:  BRA    1F7A
01F7A:  NOP   
01F7C:  BSF    F94.3
01F7E:  BTFSS  F82.3
01F80:  BRA    1F7E
01F82:  BTFSC  F82.4
01F84:  BSF    FD8.0
01F86:  BTFSS  F82.4
01F88:  BCF    FD8.0
01F8A:  RLCF   01,F
01F8C:  BRA    1F8E
01F8E:  BCF    F94.3
01F90:  BCF    F8B.3
01F92:  DECFSZ x2A,F
01F94:  BRA    1F76
01F96:  BSF    F94.4
01F98:  BRA    1F9A
01F9A:  NOP   
01F9C:  BCF    F8B.4
01F9E:  MOVF   x2B,W
01FA0:  BTFSS  FD8.2
01FA2:  BCF    F94.4
01FA4:  NOP   
01FA6:  BSF    F94.3
01FA8:  BTFSS  F82.3
01FAA:  BRA    1FA8
01FAC:  BRA    1FAE
01FAE:  BCF    F8B.3
01FB0:  BCF    F94.3
01FB2:  BRA    1FB4
01FB4:  NOP   
01FB6:  BCF    F8B.4
01FB8:  BCF    F94.4
01FBA:  MOVLB  0
01FBC:  RETURN 0
....................  
.................... unsigned int8 bin2bcd(unsigned int8 binary_value); 
.................... unsigned int8 bcd2bin(unsigned int8 bcd_value); 
....................  
.................... void ds1307_init() 
01FBE:  MOVLB  B
01FC0:  CLRF   x25
01FC2:  CLRF   x26
.................... { 
....................    unsigned int8 sec = 0; 
....................    unsigned int8 hrs= 0; 
....................   
....................    i2c_start(); 
01FC4:  BSF    F94.4
01FC6:  BRA    1FC8
01FC8:  BSF    F94.3
01FCA:  BRA    1FCC
01FCC:  NOP   
01FCE:  BCF    F8B.4
01FD0:  BCF    F94.4
01FD2:  BRA    1FD4
01FD4:  BCF    F8B.3
01FD6:  BCF    F94.3
....................    i2c_write(0xD0); 
01FD8:  MOVLW  D0
01FDA:  MOVWF  x2E
01FDC:  MOVLB  0
01FDE:  RCALL  1F12
....................    i2c_write(0x00); 
01FE0:  MOVLB  B
01FE2:  CLRF   x2E
01FE4:  MOVLB  0
01FE6:  RCALL  1F12
....................    i2c_start(); 
01FE8:  BSF    F94.4
01FEA:  BRA    1FEC
01FEC:  BSF    F94.3
01FEE:  BRA    1FF0
01FF0:  NOP   
01FF2:  BTFSS  F82.3
01FF4:  BRA    1FF2
01FF6:  BCF    F8B.4
01FF8:  BCF    F94.4
01FFA:  BRA    1FFC
01FFC:  BCF    F8B.3
01FFE:  BCF    F94.3
....................    i2c_write(0xD1); 
02000:  MOVLW  D1
02002:  MOVLB  B
02004:  MOVWF  x2E
02006:  MOVLB  0
02008:  RCALL  1F12
....................    sec = i2c_read(0); 
0200A:  CLRF   00
0200C:  RCALL  1F6C
0200E:  MOVFF  01,B25
....................    i2c_stop(); 
02012:  BCF    F94.4
02014:  NOP   
02016:  BSF    F94.3
02018:  BTFSS  F82.3
0201A:  BRA    2018
0201C:  BRA    201E
0201E:  BRA    2020
02020:  NOP   
02022:  BSF    F94.4
02024:  BRA    2026
....................    bit_clear(sec,7); 
02026:  MOVLB  B
02028:  BCF    x25.7
....................  
....................    i2c_start(); 
0202A:  BSF    F94.4
0202C:  BRA    202E
0202E:  BSF    F94.3
02030:  BRA    2032
02032:  NOP   
02034:  BCF    F8B.4
02036:  BCF    F94.4
02038:  BRA    203A
0203A:  BCF    F8B.3
0203C:  BCF    F94.3
....................    i2c_write(0xD0); 
0203E:  MOVLW  D0
02040:  MOVWF  x2E
02042:  MOVLB  0
02044:  RCALL  1F12
....................    i2c_write(0x00);  
02046:  MOVLB  B
02048:  CLRF   x2E
0204A:  MOVLB  0
0204C:  RCALL  1F12
....................    i2c_write(sec);    
0204E:  MOVFF  B25,B2E
02052:  RCALL  1F12
....................    i2c_start(); 
02054:  BSF    F94.4
02056:  BRA    2058
02058:  BSF    F94.3
0205A:  BRA    205C
0205C:  NOP   
0205E:  BTFSS  F82.3
02060:  BRA    205E
02062:  BCF    F8B.4
02064:  BCF    F94.4
02066:  BRA    2068
02068:  BCF    F8B.3
0206A:  BCF    F94.3
....................    i2c_write(0xD0); 
0206C:  MOVLW  D0
0206E:  MOVLB  B
02070:  MOVWF  x2E
02072:  MOVLB  0
02074:  RCALL  1F12
....................    i2c_write(0x07);      
02076:  MOVLW  07
02078:  MOVLB  B
0207A:  MOVWF  x2E
0207C:  MOVLB  0
0207E:  RCALL  1F12
....................    i2c_write(0x80);      
02080:  MOVLW  80
02082:  MOVLB  B
02084:  MOVWF  x2E
02086:  MOVLB  0
02088:  RCALL  1F12
....................    i2c_stop(); 
0208A:  BCF    F94.4
0208C:  NOP   
0208E:  BSF    F94.3
02090:  BTFSS  F82.3
02092:  BRA    2090
02094:  BRA    2096
02096:  BRA    2098
02098:  NOP   
0209A:  BSF    F94.4
0209C:  BRA    209E
0209E:  GOTO   524A (RETURN)
.................... } 
....................  
.................... void ds1307_set_date_time(unsigned int8 day, unsigned int8 mth, unsigned int8 year, unsigned int8 dow, unsigned int8 hr,int1 am_pm, unsigned int8 min, unsigned int8 sec) 
.................... { 
....................   sec &= 0x7F; 
*
028B0:  MOVLB  B
028B2:  BCF    x2C.7
....................   hr &= 0x1F; 
028B4:  MOVLW  1F
028B6:  ANDWF  x29,F
....................   hr=bin2bcd(hr); 
028B8:  MOVFF  B29,B2D
028BC:  MOVLB  0
028BE:  RCALL  2888
028C0:  MOVFF  01,B29
....................   bit_set(hr,6); 
028C4:  MOVLB  B
028C6:  BSF    x29.6
....................   if(am_pm){ 
028C8:  MOVF   x2A,F
028CA:  BZ    28D0
....................       bit_set(hr,5); 
028CC:  BSF    x29.5
....................   } 
028CE:  BRA    28D2
....................   else{ 
....................       bit_clear(hr,5); 
028D0:  BCF    x29.5
....................   } 
....................   i2c_start(); 
028D2:  BSF    F94.4
028D4:  BRA    28D6
028D6:  BSF    F94.3
028D8:  BRA    28DA
028DA:  NOP   
028DC:  BCF    F8B.4
028DE:  BCF    F94.4
028E0:  BRA    28E2
028E2:  BCF    F8B.3
028E4:  BCF    F94.3
....................   i2c_write(0xD0);          
028E6:  MOVLW  D0
028E8:  MOVWF  x2E
028EA:  MOVLB  0
028EC:  CALL   1F12
....................   i2c_write(0x00);          
028F0:  MOVLB  B
028F2:  CLRF   x2E
028F4:  MOVLB  0
028F6:  CALL   1F12
....................   i2c_write(bin2bcd(sec));    
028FA:  MOVFF  B2C,B2D
028FE:  RCALL  2888
02900:  MOVFF  01,B2D
02904:  MOVFF  01,B2E
02908:  CALL   1F12
....................   i2c_write(bin2bcd(min));  
0290C:  MOVFF  B2B,B2D
02910:  RCALL  2888
02912:  MOVFF  01,B2D
02916:  MOVFF  01,B2E
0291A:  CALL   1F12
....................   i2c_write(hr);  
0291E:  MOVFF  B29,B2E
02922:  CALL   1F12
....................   i2c_write(bin2bcd(dow));    
02926:  MOVFF  B28,B2D
0292A:  RCALL  2888
0292C:  MOVFF  01,B2D
02930:  MOVFF  01,B2E
02934:  CALL   1F12
....................   i2c_write(bin2bcd(day));  
02938:  MOVFF  B25,B2D
0293C:  RCALL  2888
0293E:  MOVFF  01,B2D
02942:  MOVFF  01,B2E
02946:  CALL   1F12
....................   i2c_write(bin2bcd(mth));    
0294A:  MOVFF  B26,B2D
0294E:  RCALL  2888
02950:  MOVFF  01,B2D
02954:  MOVFF  01,B2E
02958:  CALL   1F12
....................   i2c_write(bin2bcd(year));      
0295C:  MOVFF  B27,B2D
02960:  RCALL  2888
02962:  MOVFF  01,B2D
02966:  MOVFF  01,B2E
0296A:  CALL   1F12
....................   i2c_write(0x80);        
0296E:  MOVLW  80
02970:  MOVLB  B
02972:  MOVWF  x2E
02974:  MOVLB  0
02976:  CALL   1F12
....................   i2c_stop(); 
0297A:  BCF    F94.4
0297C:  NOP   
0297E:  BSF    F94.3
02980:  BTFSS  F82.3
02982:  BRA    2980
02984:  BRA    2986
02986:  BRA    2988
02988:  NOP   
0298A:  BSF    F94.4
0298C:  BRA    298E
0298E:  GOTO   69CA (RETURN)
.................... } 
....................  
.................... void ds1307_get_date(unsigned int8 &day, unsigned int8 &mth, unsigned int8 &year, unsigned int8 &dow) 
.................... { 
....................   i2c_start(); 
*
0252A:  BSF    F94.4
0252C:  BRA    252E
0252E:  BSF    F94.3
02530:  BRA    2532
02532:  NOP   
02534:  BCF    F8B.4
02536:  BCF    F94.4
02538:  BRA    253A
0253A:  BCF    F8B.3
0253C:  BCF    F94.3
....................   i2c_write(0xD0); 
0253E:  MOVLW  D0
02540:  MOVLB  B
02542:  MOVWF  x2E
02544:  MOVLB  0
02546:  RCALL  1F12
....................   i2c_write(0x03); 
02548:  MOVLW  03
0254A:  MOVLB  B
0254C:  MOVWF  x2E
0254E:  MOVLB  0
02550:  RCALL  1F12
....................   i2c_start(); 
02552:  BSF    F94.4
02554:  BRA    2556
02556:  BSF    F94.3
02558:  BRA    255A
0255A:  NOP   
0255C:  BTFSS  F82.3
0255E:  BRA    255C
02560:  BCF    F8B.4
02562:  BCF    F94.4
02564:  BRA    2566
02566:  BCF    F8B.3
02568:  BCF    F94.3
....................   i2c_write(0xD1); 
0256A:  MOVLW  D1
0256C:  MOVLB  B
0256E:  MOVWF  x2E
02570:  MOVLB  0
02572:  RCALL  1F12
....................   dow  = bcd2bin(i2c_read() & 0x7f);  
02574:  MOVLW  01
02576:  MOVWF  00
02578:  RCALL  1F6C
0257A:  MOVF   01,W
0257C:  ANDLW  7F
0257E:  MOVLB  B
02580:  MOVWF  x25
02582:  MOVWF  x2A
02584:  MOVLB  0
02586:  RCALL  2454
02588:  MOVFF  01,24
....................   day  = bcd2bin(i2c_read() & 0x3f); 
0258C:  MOVLW  01
0258E:  MOVWF  00
02590:  RCALL  1F6C
02592:  MOVF   01,W
02594:  ANDLW  3F
02596:  MOVLB  B
02598:  MOVWF  x25
0259A:  MOVWF  x2A
0259C:  MOVLB  0
0259E:  RCALL  2454
025A0:  MOVFF  01,22
....................   mth  = bcd2bin(i2c_read() & 0x1f);  
025A4:  MOVLW  01
025A6:  MOVWF  00
025A8:  RCALL  1F6C
025AA:  MOVF   01,W
025AC:  ANDLW  1F
025AE:  MOVLB  B
025B0:  MOVWF  x25
025B2:  MOVWF  x2A
025B4:  MOVLB  0
025B6:  RCALL  2454
025B8:  MOVFF  01,23
....................   year = bcd2bin(i2c_read(0));        
025BC:  CLRF   00
025BE:  RCALL  1F6C
025C0:  MOVFF  01,B25
025C4:  MOVFF  01,B2A
025C8:  RCALL  2454
025CA:  MOVFF  01,25
....................   i2c_stop(); 
025CE:  BCF    F94.4
025D0:  NOP   
025D2:  BSF    F94.3
025D4:  BTFSS  F82.3
025D6:  BRA    25D4
025D8:  BRA    25DA
025DA:  BRA    25DC
025DC:  NOP   
025DE:  BSF    F94.4
025E0:  BRA    25E2
.................... } 
....................  
.................... void ds1307_get_time(unsigned int8 &hr, int1 &am_pm, unsigned int8 &min, unsigned int8 &sec) 
.................... { 
....................   i2c_start(); 
*
0247E:  BSF    F94.4
02480:  BRA    2482
02482:  BSF    F94.3
02484:  BRA    2486
02486:  NOP   
02488:  BCF    F8B.4
0248A:  BCF    F94.4
0248C:  BRA    248E
0248E:  BCF    F8B.3
02490:  BCF    F94.3
*
083B6:  BSF    F94.4
083B8:  BRA    83BA
083BA:  BSF    F94.3
083BC:  BRA    83BE
083BE:  NOP   
083C0:  BCF    F8B.4
083C2:  BCF    F94.4
083C4:  BRA    83C6
083C6:  BCF    F8B.3
083C8:  BCF    F94.3
....................   i2c_write(0xD0); 
*
02492:  MOVLW  D0
02494:  MOVLB  B
02496:  MOVWF  x2E
02498:  MOVLB  0
0249A:  RCALL  1F12
*
083CA:  MOVLW  D0
083CC:  MOVLB  B
083CE:  MOVWF  x2E
083D0:  MOVLB  0
083D2:  CALL   1F12
....................   i2c_write(0x00);    
*
0249C:  MOVLB  B
0249E:  CLRF   x2E
024A0:  MOVLB  0
024A2:  RCALL  1F12
*
083D6:  MOVLB  B
083D8:  CLRF   x2E
083DA:  MOVLB  0
083DC:  CALL   1F12
....................   i2c_start(); 
*
024A4:  BSF    F94.4
024A6:  BRA    24A8
024A8:  BSF    F94.3
024AA:  BRA    24AC
024AC:  NOP   
024AE:  BTFSS  F82.3
024B0:  BRA    24AE
024B2:  BCF    F8B.4
024B4:  BCF    F94.4
024B6:  BRA    24B8
024B8:  BCF    F8B.3
024BA:  BCF    F94.3
*
083E0:  BSF    F94.4
083E2:  BRA    83E4
083E4:  BSF    F94.3
083E6:  BRA    83E8
083E8:  NOP   
083EA:  BTFSS  F82.3
083EC:  BRA    83EA
083EE:  BCF    F8B.4
083F0:  BCF    F94.4
083F2:  BRA    83F4
083F4:  BCF    F8B.3
083F6:  BCF    F94.3
....................   i2c_write(0xD1); 
*
024BC:  MOVLW  D1
024BE:  MOVLB  B
024C0:  MOVWF  x2E
024C2:  MOVLB  0
024C4:  RCALL  1F12
*
083F8:  MOVLW  D1
083FA:  MOVLB  B
083FC:  MOVWF  x2E
083FE:  MOVLB  0
08400:  CALL   1F12
....................   sec = bcd2bin(i2c_read() & 0x7f); 
*
024C6:  MOVLW  01
024C8:  MOVWF  00
024CA:  RCALL  1F6C
024CC:  MOVF   01,W
024CE:  ANDLW  7F
024D0:  MOVLB  B
024D2:  MOVWF  x25
024D4:  MOVWF  x2A
024D6:  MOVLB  0
024D8:  RCALL  2454
024DA:  MOVFF  01,20
*
08404:  MOVLW  01
08406:  MOVWF  00
08408:  CALL   1F6C
0840C:  MOVF   01,W
0840E:  ANDLW  7F
08410:  MOVLB  B
08412:  MOVWF  x25
08414:  MOVWF  x2A
08416:  MOVLB  0
08418:  CALL   2454
0841C:  MOVFF  01,20
....................   min = bcd2bin(i2c_read() & 0x7f); 
*
024DE:  MOVLW  01
024E0:  MOVWF  00
024E2:  RCALL  1F6C
024E4:  MOVF   01,W
024E6:  ANDLW  7F
024E8:  MOVLB  B
024EA:  MOVWF  x25
024EC:  MOVWF  x2A
024EE:  MOVLB  0
024F0:  RCALL  2454
024F2:  MOVFF  01,1F
*
08420:  MOVLW  01
08422:  MOVWF  00
08424:  CALL   1F6C
08428:  MOVF   01,W
0842A:  ANDLW  7F
0842C:  MOVLB  B
0842E:  MOVWF  x25
08430:  MOVWF  x2A
08432:  MOVLB  0
08434:  CALL   2454
08438:  MOVFF  01,1F
....................   hr = i2c_read(0); 
*
024F6:  CLRF   00
024F8:  RCALL  1F6C
024FA:  MOVFF  01,1E
*
0843C:  CLRF   00
0843E:  CALL   1F6C
08442:  MOVFF  01,1E
....................   i2c_stop(); 
*
024FE:  BCF    F94.4
02500:  NOP   
02502:  BSF    F94.3
02504:  BTFSS  F82.3
02506:  BRA    2504
02508:  BRA    250A
0250A:  BRA    250C
0250C:  NOP   
0250E:  BSF    F94.4
02510:  BRA    2512
*
08446:  BCF    F94.4
08448:  NOP   
0844A:  BSF    F94.3
0844C:  BTFSS  F82.3
0844E:  BRA    844C
08450:  BRA    8452
08452:  BRA    8454
08454:  NOP   
08456:  BSF    F94.4
08458:  BRA    845A
....................   am_pm = bit_test(hr,5); 
*
02512:  BCF    27.0
02514:  BTFSC  1E.5
02516:  BSF    27.0
*
0845A:  BCF    27.0
0845C:  BTFSC  1E.5
0845E:  BSF    27.0
....................   hr  = bcd2bin(hr & 0x1f); 
*
02518:  MOVF   1E,W
0251A:  ANDLW  1F
0251C:  MOVLB  B
0251E:  MOVWF  x25
02520:  MOVWF  x2A
02522:  MOVLB  0
02524:  RCALL  2454
02526:  MOVFF  01,1E
*
08460:  MOVF   1E,W
08462:  ANDLW  1F
08464:  MOVLB  B
08466:  MOVWF  x25
08468:  MOVWF  x2A
0846A:  MOVLB  0
0846C:  CALL   2454
08470:  MOVFF  01,1E
.................... } 
....................  
.................... unsigned int8 bin2bcd(unsigned int8 binary_value) 
.................... { 
....................   unsigned int8 temp; 
....................   unsigned int8 retval; 
....................  
....................   temp = binary_value; 
*
02888:  MOVFF  B2D,B2E
....................   retval = 0; 
0288C:  MOVLB  B
0288E:  CLRF   x2F
....................  
....................   while(true) 
....................   { 
....................     if(temp >= 10) 
02890:  MOVF   x2E,W
02892:  SUBLW  09
02894:  BC    28A0
....................     { 
....................       temp -= 10; 
02896:  MOVLW  0A
02898:  SUBWF  x2E,F
....................       retval += 0x10; 
0289A:  MOVLW  10
0289C:  ADDWF  x2F,F
....................     } 
0289E:  BRA    28A6
....................     else 
....................     { 
....................       retval += temp; 
028A0:  MOVF   x2E,W
028A2:  ADDWF  x2F,F
....................       break; 
028A4:  BRA    28A8
....................     } 
028A6:  BRA    2890
....................   } 
....................  
....................   return(retval); 
028A8:  MOVFF  B2F,01
028AC:  MOVLB  0
028AE:  RETURN 0
.................... } 
....................  
.................... unsigned int8 bcd2bin(unsigned int8 bcd_value) 
.................... { 
....................   unsigned int8 temp; 
....................   temp = bcd_value; 
*
02454:  MOVFF  B2A,B2B
....................   temp >>= 1; 
02458:  BCF    FD8.0
0245A:  MOVLB  B
0245C:  RRCF   x2B,F
....................   temp &= 0x78; 
0245E:  MOVLW  78
02460:  ANDWF  x2B,F
....................   return(temp + (temp >> 2) + (bcd_value & 0x0f)); 
02462:  RRCF   x2B,W
02464:  MOVWF  00
02466:  RRCF   00,F
02468:  MOVLW  3F
0246A:  ANDWF  00,F
0246C:  MOVF   00,W
0246E:  ADDWF  x2B,W
02470:  MOVWF  x2C
02472:  MOVF   x2A,W
02474:  ANDLW  0F
02476:  ADDWF  x2C,W
02478:  MOVWF  01
0247A:  MOVLB  0
0247C:  RETURN 0
.................... }  
....................  
.................... #include <24C321.c> 
.................... /////////////////////////////////////////////////////////////////////////// 
.................... ////   Library for a MicroChip 24C32                                   //// 
.................... ////                                                                   //// 
.................... ////   init_ext_eeprom();    Call before the other functions are used  //// 
.................... ////                                                                   //// 
.................... ////   write_ext_eeprom(a, d);  Write the byte d to the address a      //// 
.................... ////                                                                   //// 
.................... ////   d = read_ext_eeprom(a);   Read the byte d from the address a    //// 
.................... ////                                                                   //// 
.................... ////   The main program may define eeprom_sda                          //// 
.................... ////   and eeprom_scl to override the defaults below.                  //// 
.................... ////                                                                   //// 
.................... /////////////////////////////////////////////////////////////////////////// 
.................... ////        (C) Copyright 1996,1997 Custom Computer Services            //// 
.................... //// This source code may only be used by licensed users of the CCS C   //// 
.................... //// compiler.  This source code may only be distributed to other       //// 
.................... //// licensed users of the CCS C compiler.  No other use, reproduction  //// 
.................... //// or distribution is permitted without written permission.           //// 
.................... //// Derivative programs created using this software in object code     //// 
.................... //// form are not restricted in any way.                                //// 
.................... //////////////////////////////////////////////////////////////////////////// 
....................  
.................... #ifndef EEPROM_SDA 
....................  
.................... #define EEPROM_SDA  PIN_C4 
....................  
.................... #define EEPROM_SCL  PIN_C3 
....................  
.................... #endif 
....................  
.................... #define hi(x)  (*(&x+1)) 
....................  
.................... #use i2c(master,sda=EEPROM_SDA, scl=EEPROM_SCL) 
*
02A3E:  MOVLW  08
02A40:  MOVWF  01
02A42:  BRA    2A44
02A44:  BCF    F8B.3
02A46:  BCF    F94.3
02A48:  BRA    2A4A
02A4A:  NOP   
02A4C:  MOVLB  B
02A4E:  RLCF   x2D,F
02A50:  BCF    F8B.4
02A52:  BTFSC  FD8.0
02A54:  BSF    F94.4
02A56:  BTFSS  FD8.0
02A58:  BCF    F94.4
02A5A:  BSF    F94.3
02A5C:  BTFSS  F82.3
02A5E:  BRA    2A5C
02A60:  DECFSZ 01,F
02A62:  BRA    2A66
02A64:  BRA    2A6A
02A66:  MOVLB  0
02A68:  BRA    2A42
02A6A:  BRA    2A6C
02A6C:  BCF    F8B.3
02A6E:  BCF    F94.3
02A70:  NOP   
02A72:  BSF    F94.4
02A74:  BRA    2A76
02A76:  NOP   
02A78:  BRA    2A7A
02A7A:  NOP   
02A7C:  BSF    F94.3
02A7E:  BTFSS  F82.3
02A80:  BRA    2A7E
02A82:  CLRF   01
02A84:  BRA    2A86
02A86:  NOP   
02A88:  BTFSC  F82.4
02A8A:  BSF    01.0
02A8C:  BCF    F8B.3
02A8E:  BCF    F94.3
02A90:  BCF    F8B.4
02A92:  BCF    F94.4
02A94:  MOVLB  0
02A96:  RETURN 0
02A98:  MOVLW  08
02A9A:  MOVLB  B
02A9C:  MOVWF  x2D
02A9E:  MOVFF  00,B2E
02AA2:  BSF    F94.4
02AA4:  BRA    2AA6
02AA6:  NOP   
02AA8:  BSF    F94.3
02AAA:  BTFSS  F82.3
02AAC:  BRA    2AAA
02AAE:  BTFSC  F82.4
02AB0:  BSF    FD8.0
02AB2:  BTFSS  F82.4
02AB4:  BCF    FD8.0
02AB6:  RLCF   01,F
02AB8:  BRA    2ABA
02ABA:  BCF    F94.3
02ABC:  BCF    F8B.3
02ABE:  DECFSZ x2D,F
02AC0:  BRA    2AA2
02AC2:  BSF    F94.4
02AC4:  BRA    2AC6
02AC6:  NOP   
02AC8:  BCF    F8B.4
02ACA:  MOVF   x2E,W
02ACC:  BTFSS  FD8.2
02ACE:  BCF    F94.4
02AD0:  NOP   
02AD2:  BSF    F94.3
02AD4:  BTFSS  F82.3
02AD6:  BRA    2AD4
02AD8:  BRA    2ADA
02ADA:  BCF    F8B.3
02ADC:  BCF    F94.3
02ADE:  BRA    2AE0
02AE0:  NOP   
02AE2:  BCF    F8B.4
02AE4:  BCF    F94.4
02AE6:  MOVLB  0
02AE8:  GOTO   2B44 (RETURN)
....................  
.................... #define EEPROM_ADDRESS long int 
.................... #define EEPROM_SIZE    4096 
....................  
.................... void init_ext_eeprom() { 
....................    output_low(eeprom_scl); 
....................    output_high(eeprom_sda); 
.................... } 
....................  
....................  
.................... void write_ext_eeprom(long int address, byte data) { 
*
02CDC:  MOVFF  B29,B2B
02CE0:  MOVLB  B
02CE2:  MOVFF  B28,B2C
....................  int address_H=(address)>>8; 
....................  int address_L=(address&0xFF); 
....................    i2c_start(); 
02CE6:  BSF    F94.4
02CE8:  BRA    2CEA
02CEA:  BSF    F94.3
02CEC:  BRA    2CEE
02CEE:  NOP   
02CF0:  BCF    F8B.4
02CF2:  BCF    F94.4
02CF4:  BRA    2CF6
02CF6:  BCF    F8B.3
02CF8:  BCF    F94.3
....................    i2c_write(0xa0); 
02CFA:  MOVLW  A0
02CFC:  MOVWF  x2D
02CFE:  MOVLB  0
02D00:  RCALL  2A3E
....................    i2c_write(address_H); 
02D02:  MOVFF  B2B,B2D
02D06:  RCALL  2A3E
....................    i2c_write(address_L); 
02D08:  MOVFF  B2C,B2D
02D0C:  RCALL  2A3E
....................    i2c_write(data); 
02D0E:  MOVFF  B2A,B2D
02D12:  RCALL  2A3E
....................    i2c_stop(); 
02D14:  BCF    F94.4
02D16:  NOP   
02D18:  BSF    F94.3
02D1A:  BTFSS  F82.3
02D1C:  BRA    2D1A
02D1E:  BRA    2D20
02D20:  BRA    2D22
02D22:  NOP   
02D24:  BSF    F94.4
02D26:  BRA    2D28
....................    delay_ms(11); 
02D28:  MOVLW  0B
02D2A:  MOVLB  B
02D2C:  MOVWF  x2D
02D2E:  MOVLB  0
02D30:  CALL   1EEA
02D34:  RETURN 0
.................... } 
....................  
....................  
.................... byte read_ext_eeprom(long int address) { 
*
02AEC:  MOVFF  B28,B2A
02AF0:  MOVLB  B
02AF2:  MOVFF  B27,B2B
....................    byte data; 
....................  int address_H=(address)>>8; 
....................  int address_L=(address&0xFF); 
....................    i2c_start(); 
02AF6:  BSF    F94.4
02AF8:  BRA    2AFA
02AFA:  BSF    F94.3
02AFC:  BRA    2AFE
02AFE:  NOP   
02B00:  BCF    F8B.4
02B02:  BCF    F94.4
02B04:  BRA    2B06
02B06:  BCF    F8B.3
02B08:  BCF    F94.3
....................    i2c_write(0xa0); 
02B0A:  MOVLW  A0
02B0C:  MOVWF  x2D
02B0E:  MOVLB  0
02B10:  RCALL  2A3E
....................    i2c_write(address_H); 
02B12:  MOVFF  B2A,B2D
02B16:  RCALL  2A3E
....................    i2c_write(address_L); 
02B18:  MOVFF  B2B,B2D
02B1C:  RCALL  2A3E
....................    i2c_start(); 
02B1E:  BSF    F94.4
02B20:  BRA    2B22
02B22:  BSF    F94.3
02B24:  BRA    2B26
02B26:  NOP   
02B28:  BTFSS  F82.3
02B2A:  BRA    2B28
02B2C:  BCF    F8B.4
02B2E:  BCF    F94.4
02B30:  BRA    2B32
02B32:  BCF    F8B.3
02B34:  BCF    F94.3
....................    i2c_write(0xa1); 
02B36:  MOVLW  A1
02B38:  MOVLB  B
02B3A:  MOVWF  x2D
02B3C:  MOVLB  0
02B3E:  RCALL  2A3E
....................    data=i2c_read(0); 
02B40:  CLRF   00
02B42:  BRA    2A98
02B44:  MOVFF  01,B29
....................    i2c_stop(); 
02B48:  BCF    F94.4
02B4A:  NOP   
02B4C:  BSF    F94.3
02B4E:  BTFSS  F82.3
02B50:  BRA    2B4E
02B52:  BRA    2B54
02B54:  BRA    2B56
02B56:  NOP   
02B58:  BSF    F94.4
02B5A:  BRA    2B5C
....................    return(data); 
02B5C:  MOVLB  B
02B5E:  MOVFF  B29,01
02B62:  MOVLB  0
02B64:  RETURN 0
.................... } 
....................  
.................... #include "HDM64GS12.c" 
.................... ///////////////////////////////////////////////////////////////////////// 
.................... ////                           HDM64GS12.c                           //// 
.................... ////                                                                 //// 
.................... //// This file contains drivers for using a Hantronix HDM64GS12 with //// 
.................... //// a KS0108 display controller. The HDM64GS12 is 128 by 64 pixels. //// 
.................... //// The driver treats the upper left pixel as (0,0).                //// 
.................... ////                                                                 //// 
.................... //// Use #define FAST_GLCD if the target chip has at least 1k of RAM //// 
.................... //// to decrease the time it takes to update the display.            //// 
.................... //// glcd_update() must then be called to update the display after   //// 
.................... //// changing the pixel information.                                 //// 
.................... //// See ex_glcd.c for suggested usage.                              //// 
.................... //// See KS0108.c for controlling a single 64 by 64 display          //// 
.................... ///////////////////////////////////////////////////////////////////////// 
.................... ////                                                                 //// 
.................... //// LCD Pin connections:                                            //// 
.................... //// (These can be changed as needed in the following defines).      //// 
.................... ////  * 1: VSS is connected to GND                                   //// 
.................... ////  * 2: VDD is connected to +5V                                   //// 
.................... ////  * 3: V0  - LCD operating voltage (Constrast adjustment)        //// 
.................... ////  * 4: D/I - Data or Instruction is connected to B2              //// 
.................... ////  * 5: R/W - Read or Write is connected to B4                    //// 
.................... ////  * 6: Enable is connected to B5                                 //// 
.................... ////  *7-14: Data Bus 0 to 7 is connected to port d                  //// 
.................... ////  *15: Chip Select 1 is connected to B0                          //// 
.................... ////  *16: Chip Select 2 is connected to B1                          //// 
.................... ////  *17: Reset is connected to C0                                  //// 
.................... ////  *18: Negative voltage is also connected to the 20k Ohm POT     //// 
.................... ////  *19: Positive voltage for LED backlight is connected to +5V    //// 
.................... ////  *20: Negavtive voltage for LED backlight is connected to GND   //// 
.................... ////                                                                 //// 
.................... ///////////////////////////////////////////////////////////////////////// 
.................... ////                                                                 //// 
.................... ////  glcd_init(mode)                                                //// 
.................... ////     * Must be called before any other function.                 //// 
.................... ////       - mode can be ON or OFF to turn the LCD on or off         //// 
.................... ////                                                                 //// 
.................... ////  glcd_pixel(x,y,color)                                          //// 
.................... ////     * Sets the pixel to the given color.                        //// 
.................... ////       - color can be ON or OFF                                  //// 
.................... ////                                                                 //// 
.................... ////  glcd_fillScreen(color)                                         //// 
.................... ////     * Fills the entire LCD with the given color.                //// 
.................... ////       - color can be ON or OFF                                  //// 
.................... ////                                                                 //// 
.................... ////  glcd_update()                                                  //// 
.................... ////     * Write the display data stored in RAM to the LCD           //// 
.................... ////     * Only available if FAST_GLCD is defined                    //// 
.................... ////                                                                 //// 
.................... ///////////////////////////////////////////////////////////////////////// 
.................... ////        (C) Copyright 1996, 2004 Custom Computer Services        //// 
.................... //// This source code may only be used by licensed users of the CCS  //// 
.................... //// C compiler.  This source code may only be distributed to other  //// 
.................... //// licensed users of the CCS C compiler.  No other use,            //// 
.................... //// reproduction or distribution is permitted without written       //// 
.................... //// permission.  Derivative programs created using this software    //// 
.................... //// in object code form are not restricted in any way.              //// 
.................... ///////////////////////////////////////////////////////////////////////// 
....................  
....................  
....................  
.................... #ifndef HDM64GS12 
.................... #define HDM64GS12 
....................  
.................... #ifndef GLCD_WIDTH 
.................... #define GLCD_WIDTH   128 
.................... #endif 
....................  
.................... #ifndef GLCD_CS1 
.................... #define GLCD_CS1     PIN_B4   // Chip Selection 1 
.................... #endif 
....................  
.................... #ifndef GLCD_CS2 
.................... #define GLCD_CS2     PIN_B5   // Chip Selection 2 
.................... #endif 
....................  
.................... #ifndef GLCD_DI 
.................... #define GLCD_DI      PIN_B6   // Data or Instruction input 
.................... #endif 
....................  
.................... #ifndef GLCD_RW 
.................... #define GLCD_RW      PIN_B7   // Read/Write 
.................... #endif 
....................  
.................... #ifndef GLCD_E 
.................... #define GLCD_E       PIN_C5  // Enable 
.................... #endif 
....................  
.................... //#ifndef GLCD_RST 
.................... //#define GLCD_RST     PIN_C0   // Reset 
.................... //#endif 
....................  
.................... #define GLCD_LEFT    0 
.................... #define GLCD_RIGHT   1 
....................  
.................... #ifndef ON 
.................... #define ON           1 
.................... #endif 
....................  
.................... #ifndef OFF 
.................... #define OFF          0 
.................... #endif 
....................  
.................... ///////////////////////////////////////////////////////////////////////// 
.................... // Function Prototypes 
.................... ///////////////////////////////////////////////////////////////////////// 
.................... void glcd_init(int1 mode); 
.................... void glcd_pixel(unsigned int8 x, unsigned int8 y, int1 color); 
.................... void glcd_fillScreen(int1 color); 
.................... void glcd_writeByte(int1 side, BYTE data); 
.................... BYTE glcd_readByte(int1 side); 
.................... void glcd_update(); 
.................... ///////////////////////////////////////////////////////////////////////// 
....................  
.................... #ifdef FAST_GLCD 
.................... struct 
.................... { 
....................    unsigned int8 left[512]; 
....................    unsigned int8 right[512]; 
.................... } displayData; 
.................... #endif 
....................  
....................  
.................... // Purpose:       Initialize the LCD. 
.................... //                Call before using any other LCD function. 
.................... // Inputs:        OFF - Turns the LCD off 
.................... //                ON  - Turns the LCD on 
.................... void glcd_init(int1 mode) 
.................... { 
....................    // Initialze some pins 
....................    //output_high(GLCD_RST); 
....................    output_low(GLCD_E); 
*
01C56:  BCF    F94.5
01C58:  BCF    F8B.5
....................    output_low(GLCD_CS1); 
01C5A:  BCF    F93.4
01C5C:  BCF    F8A.4
....................    output_low(GLCD_CS2); 
01C5E:  BCF    F93.5
01C60:  BCF    F8A.5
....................  
....................    output_low(GLCD_DI);                 // Set for instruction 
01C62:  BCF    F93.6
01C64:  BCF    F8A.6
....................    glcd_writeByte(GLCD_LEFT,  0xC0);    // Specify first RAM line at the top 
01C66:  MOVLB  B
01C68:  CLRF   x48
01C6A:  MOVLW  C0
01C6C:  MOVWF  x49
01C6E:  MOVLB  0
01C70:  RCALL  1B90
....................    glcd_writeByte(GLCD_RIGHT, 0xC0);    //   of the screen 
01C72:  MOVLW  01
01C74:  MOVLB  B
01C76:  MOVWF  x48
01C78:  MOVLW  C0
01C7A:  MOVWF  x49
01C7C:  MOVLB  0
01C7E:  RCALL  1B90
....................    glcd_writeByte(GLCD_LEFT,  0x40);    // Set the column address to 0 
01C80:  MOVLB  B
01C82:  CLRF   x48
01C84:  MOVLW  40
01C86:  MOVWF  x49
01C88:  MOVLB  0
01C8A:  RCALL  1B90
....................    glcd_writeByte(GLCD_RIGHT, 0x40); 
01C8C:  MOVLW  01
01C8E:  MOVLB  B
01C90:  MOVWF  x48
01C92:  MOVLW  40
01C94:  MOVWF  x49
01C96:  MOVLB  0
01C98:  RCALL  1B90
....................    glcd_writeByte(GLCD_LEFT,  0xB8);    // Set the page address to 0 
01C9A:  MOVLB  B
01C9C:  CLRF   x48
01C9E:  MOVLW  B8
01CA0:  MOVWF  x49
01CA2:  MOVLB  0
01CA4:  RCALL  1B90
....................    glcd_writeByte(GLCD_RIGHT, 0xB8); 
01CA6:  MOVLW  01
01CA8:  MOVLB  B
01CAA:  MOVWF  x48
01CAC:  MOVLW  B8
01CAE:  MOVWF  x49
01CB0:  MOVLB  0
01CB2:  RCALL  1B90
....................  
....................    if(mode == ON) 
01CB4:  MOVLB  B
01CB6:  DECFSZ x25,W
01CB8:  BRA    1CD6
....................    { 
....................       glcd_writeByte(GLCD_LEFT,  0x3F); // Turn the display on 
01CBA:  CLRF   x48
01CBC:  MOVLW  3F
01CBE:  MOVWF  x49
01CC0:  MOVLB  0
01CC2:  RCALL  1B90
....................       glcd_writeByte(GLCD_RIGHT, 0x3F); 
01CC4:  MOVLW  01
01CC6:  MOVLB  B
01CC8:  MOVWF  x48
01CCA:  MOVLW  3F
01CCC:  MOVWF  x49
01CCE:  MOVLB  0
01CD0:  RCALL  1B90
....................    } 
01CD2:  BRA    1CEE
01CD4:  MOVLB  B
....................    else 
....................    { 
....................       glcd_writeByte(GLCD_LEFT,  0x3E); // Turn the display off 
01CD6:  CLRF   x48
01CD8:  MOVLW  3E
01CDA:  MOVWF  x49
01CDC:  MOVLB  0
01CDE:  RCALL  1B90
....................       glcd_writeByte(GLCD_RIGHT, 0x3E); 
01CE0:  MOVLW  01
01CE2:  MOVLB  B
01CE4:  MOVWF  x48
01CE6:  MOVLW  3E
01CE8:  MOVWF  x49
01CEA:  MOVLB  0
01CEC:  RCALL  1B90
....................    } 
....................  
....................    glcd_fillScreen(OFF);                // Clear the display 
01CEE:  MOVLB  B
01CF0:  CLRF   x26
01CF2:  MOVLB  0
01CF4:  RCALL  1BC8
....................  
....................    #ifdef FAST_GLCD 
01CF6:  GOTO   521A (RETURN)
....................    glcd_update(); 
....................    #endif 
.................... } 
....................  
....................  
.................... // Purpose:    Update the LCD with data from the display arrays 
.................... #ifdef FAST_GLCD 
.................... void glcd_update() 
.................... { 
....................    unsigned int8 i, j; 
....................    unsigned int8 *p1, *p2; 
....................  
....................    p1 = displayData.left; 
....................    p2 = displayData.right; 
....................  
....................    // Loop through the vertical pages 
....................    for(i = 0; i < 8; ++i) 
....................    { 
....................       output_low(GLCD_DI);                      // Set for instruction 
....................       glcd_writeByte(GLCD_LEFT, 0x40);          // Set horizontal address to 0 
....................       glcd_writeByte(GLCD_RIGHT, 0x40); 
....................       glcd_writeByte(GLCD_LEFT, i | 0xB8);      // Set page address 
....................       glcd_writeByte(GLCD_RIGHT, i | 0xB8); 
....................       output_high(GLCD_DI);                     // Set for data 
....................  
....................       // Loop through the horizontal sections 
....................       for(j = 0; j < 64; ++j) 
....................       { 
....................          glcd_writeByte(GLCD_LEFT, *p1++);      // Turn pixels on or off 
....................          glcd_writeByte(GLCD_RIGHT, *p2++);     // Turn pixels on or off 
....................       } 
....................    } 
.................... } 
.................... #endif 
....................  
....................  
.................... // Purpose:    Turn a pixel on a graphic LCD on or off 
.................... // Inputs:     1) x - the x coordinate of the pixel 
.................... //             2) y - the y coordinate of the pixel 
.................... //             3) color - ON or OFF 
.................... void glcd_pixel(unsigned int8 x, unsigned int8 y, int1 color) 
.................... #ifdef FAST_GLCD 
*
01D56:  MOVLB  B
01D58:  BCF    x45.0
.................... { 
....................    unsigned int8* p; 
....................    unsigned int16 temp; 
....................    temp =  y/8; 
....................    temp *= 64; 
....................    temp += x; 
....................  
....................    if(x > 63) 
....................    { 
....................       p = displayData.right + temp - 64; 
....................    } 
....................    else 
....................    { 
....................       p = displayData.left + temp; 
....................    } 
....................  
....................    if(color) 
....................    { 
....................       bit_set(*p, y%8); 
....................    } 
....................    else 
....................    { 
....................       bit_clear(*p, y%8); 
....................    } 
.................... } 
.................... #else 
.................... { 
....................    BYTE data; 
....................    int1 side = GLCD_LEFT;  // Stores which chip to use on the LCD 
....................  
....................    if(x > 63)              // Check for first or second display area 
01D5A:  MOVF   x41,W
01D5C:  SUBLW  3F
01D5E:  BC    1D66
....................    { 
....................       x -= 64; 
01D60:  MOVLW  40
01D62:  SUBWF  x41,F
....................       side = GLCD_RIGHT; 
01D64:  BSF    x45.0
....................    } 
....................  
....................    output_low(GLCD_DI);                         // Set for instruction 
01D66:  BCF    F93.6
01D68:  BCF    F8A.6
....................    bit_clear(x,7);                              // Clear the MSB. Part of an instruction code 
01D6A:  BCF    x41.7
....................    bit_set(x,6);                                // Set bit 6. Also part of an instruction code 
01D6C:  BSF    x41.6
....................    glcd_writeByte(side, x);                     // Set the horizontal address 
01D6E:  MOVLW  00
01D70:  BTFSC  x45.0
01D72:  MOVLW  01
01D74:  MOVWF  x46
01D76:  MOVWF  x48
01D78:  MOVFF  B41,B49
01D7C:  MOVLB  0
01D7E:  RCALL  1B90
....................    glcd_writeByte(side, (y/8 & 0xBF) | 0xB8);   // Set the vertical page address 
01D80:  MOVLW  00
01D82:  MOVLB  B
01D84:  BTFSC  x45.0
01D86:  MOVLW  01
01D88:  MOVWF  x46
01D8A:  RRCF   x42,W
01D8C:  MOVWF  00
01D8E:  RRCF   00,F
01D90:  RRCF   00,F
01D92:  MOVLW  1F
01D94:  ANDWF  00,F
01D96:  MOVF   00,W
01D98:  ANDLW  BF
01D9A:  IORLW  B8
01D9C:  MOVWF  x47
01D9E:  MOVFF  B46,B48
01DA2:  MOVWF  x49
01DA4:  MOVLB  0
01DA6:  RCALL  1B90
....................    output_high(GLCD_DI);                        // Set for data 
01DA8:  BCF    F93.6
01DAA:  BSF    F8A.6
....................    glcd_readByte(side);                         // Need two reads to get data 
01DAC:  MOVLW  00
01DAE:  MOVLB  B
01DB0:  BTFSC  x45.0
01DB2:  MOVLW  01
01DB4:  MOVWF  x46
01DB6:  MOVWF  x47
01DB8:  MOVLB  0
01DBA:  RCALL  1D1C
....................    data = glcd_readByte(side);                  //  at new address 
01DBC:  MOVLW  00
01DBE:  MOVLB  B
01DC0:  BTFSC  x45.0
01DC2:  MOVLW  01
01DC4:  MOVWF  x46
01DC6:  MOVWF  x47
01DC8:  MOVLB  0
01DCA:  RCALL  1D1C
01DCC:  MOVFF  01,B44
....................  
....................    if(color == ON) 
01DD0:  MOVLB  B
01DD2:  DECFSZ x43,W
01DD4:  BRA    1DF4
....................       bit_set(data, y%8);        // Turn the pixel on 
01DD6:  MOVF   x42,W
01DD8:  ANDLW  07
01DDA:  MOVWF  x46
01DDC:  MOVLW  01
01DDE:  MOVWF  00
01DE0:  MOVF   x46,W
01DE2:  MOVWF  01
01DE4:  BZ    1DEE
01DE6:  BCF    FD8.0
01DE8:  RLCF   00,F
01DEA:  DECFSZ 01,F
01DEC:  BRA    1DE6
01DEE:  MOVF   00,W
01DF0:  IORWF  x44,F
01DF2:  BRA    1E12
....................    else                          // or 
....................       bit_clear(data, y%8);      // turn the pixel off 
01DF4:  MOVF   x42,W
01DF6:  ANDLW  07
01DF8:  MOVWF  x46
01DFA:  MOVLW  01
01DFC:  MOVWF  00
01DFE:  MOVF   x46,W
01E00:  MOVWF  01
01E02:  BZ    1E0C
01E04:  BCF    FD8.0
01E06:  RLCF   00,F
01E08:  DECFSZ 01,F
01E0A:  BRA    1E04
01E0C:  MOVF   00,W
01E0E:  XORLW  FF
01E10:  ANDWF  x44,F
....................  
....................    output_low(GLCD_DI);          // Set for instruction 
01E12:  BCF    F93.6
01E14:  BCF    F8A.6
....................    glcd_writeByte(side, x);      // Set the horizontal address 
01E16:  MOVLW  00
01E18:  BTFSC  x45.0
01E1A:  MOVLW  01
01E1C:  MOVWF  x46
01E1E:  MOVWF  x48
01E20:  MOVFF  B41,B49
01E24:  MOVLB  0
01E26:  RCALL  1B90
....................    output_high(GLCD_DI);         // Set for data 
01E28:  BCF    F93.6
01E2A:  BSF    F8A.6
....................    glcd_writeByte(side, data);   // Write the pixel data 
01E2C:  MOVLW  00
01E2E:  MOVLB  B
01E30:  BTFSC  x45.0
01E32:  MOVLW  01
01E34:  MOVWF  x46
01E36:  MOVWF  x48
01E38:  MOVFF  B44,B49
01E3C:  MOVLB  0
01E3E:  RCALL  1B90
01E40:  RETURN 0
.................... } 
.................... #endif 
....................  
....................  
.................... // Purpose:    Fill the LCD screen with the passed in color 
.................... // Inputs:     ON  - turn all the pixels on 
.................... //             OFF - turn all the pixels off 
.................... void glcd_fillScreen(int1 color) 
.................... #ifdef FAST_GLCD 
.................... { 
....................    unsigned int8  data; 
....................    unsigned int8  *p1, *p2; 
....................    unsigned int16 i; 
....................  
....................    p1 = displayData.left; 
....................    p2 = displayData.right; 
....................    data = 0xFF * color; 
....................  
....................    for(i=0; i<512; ++i) 
....................    { 
....................    	*p1++ = data; 
....................    	*p2++ = data; 
....................    } 
.................... } 
.................... #else 
.................... { 
....................    unsigned int8 i, j; 
....................  
....................    // Loop through the vertical pages 
....................    for(i = 0; i < 8; ++i) 
*
01BC8:  MOVLB  B
01BCA:  CLRF   x27
01BCC:  MOVF   x27,W
01BCE:  SUBLW  07
01BD0:  BNC   1C52
....................    { 
....................       output_low(GLCD_DI);                      // Set for instruction 
01BD2:  BCF    F93.6
01BD4:  BCF    F8A.6
....................       glcd_writeByte(GLCD_LEFT, 0b01000000);    // Set horizontal address to 0 
01BD6:  CLRF   x48
01BD8:  MOVLW  40
01BDA:  MOVWF  x49
01BDC:  MOVLB  0
01BDE:  RCALL  1B90
....................       glcd_writeByte(GLCD_RIGHT, 0b01000000); 
01BE0:  MOVLW  01
01BE2:  MOVLB  B
01BE4:  MOVWF  x48
01BE6:  MOVLW  40
01BE8:  MOVWF  x49
01BEA:  MOVLB  0
01BEC:  RCALL  1B90
....................       glcd_writeByte(GLCD_LEFT, i | 0b10111000);// Set page address 
01BEE:  MOVLB  B
01BF0:  MOVF   x27,W
01BF2:  IORLW  B8
01BF4:  MOVWF  x29
01BF6:  CLRF   x48
01BF8:  MOVWF  x49
01BFA:  MOVLB  0
01BFC:  RCALL  1B90
....................       glcd_writeByte(GLCD_RIGHT, i | 0b10111000); 
01BFE:  MOVLB  B
01C00:  MOVF   x27,W
01C02:  IORLW  B8
01C04:  MOVWF  x29
01C06:  MOVLW  01
01C08:  MOVWF  x48
01C0A:  MOVFF  B29,B49
01C0E:  MOVLB  0
01C10:  RCALL  1B90
....................       output_high(GLCD_DI);                     // Set for data 
01C12:  BCF    F93.6
01C14:  BSF    F8A.6
....................  
....................       // Loop through the horizontal sections 
....................       for(j = 0; j < 64; ++j) 
01C16:  MOVLB  B
01C18:  CLRF   x28
01C1A:  MOVF   x28,W
01C1C:  SUBLW  3F
01C1E:  BNC   1C4E
....................       { 
....................          glcd_writeByte(GLCD_LEFT, 0xFF*color);  // Turn pixels on or off 
01C20:  MOVF   x26,W
01C22:  MULLW  FF
01C24:  MOVFF  FF3,B29
01C28:  CLRF   x48
01C2A:  MOVFF  B29,B49
01C2E:  MOVLB  0
01C30:  RCALL  1B90
....................          glcd_writeByte(GLCD_RIGHT, 0xFF*color); // Turn pixels on or off 
01C32:  MOVLB  B
01C34:  MOVF   x26,W
01C36:  MULLW  FF
01C38:  MOVFF  FF3,B29
01C3C:  MOVLW  01
01C3E:  MOVWF  x48
01C40:  MOVFF  B29,B49
01C44:  MOVLB  0
01C46:  RCALL  1B90
01C48:  MOVLB  B
01C4A:  INCF   x28,F
01C4C:  BRA    1C1A
....................       } 
01C4E:  INCF   x27,F
01C50:  BRA    1BCC
....................    } 
01C52:  MOVLB  0
01C54:  RETURN 0
.................... } 
.................... #endif 
....................  
....................  
.................... // Purpose:    Write a byte of data to the specified chip 
.................... // Inputs:     1) chipSelect - which chip to write the data to 
.................... //             2) data - the byte of data to write 
.................... void glcd_writeByte(int1 side, BYTE data) 
.................... { 
....................    set_tris_d(0x00); 
*
01B90:  MOVLW  00
01B92:  MOVWF  F95
....................     
....................    output_low(GLCD_RW);       // Set for writing 
01B94:  BCF    F93.7
01B96:  BCF    F8A.7
....................  
.................... 	 if(side)                   // Choose which side to write to 
01B98:  MOVLB  B
01B9A:  MOVF   x48,F
01B9C:  BZ    1BA4
....................       output_high(GLCD_CS2); 
01B9E:  BCF    F93.5
01BA0:  BSF    F8A.5
01BA2:  BRA    1BA8
....................    else 
....................       output_high(GLCD_CS1); 
01BA4:  BCF    F93.4
01BA6:  BSF    F8A.4
....................  
.................... 	 delay_us(1); 
01BA8:  BRA    1BAA
....................  
....................    output_d(data);            // Put the data on the port 
01BAA:  CLRF   F95
01BAC:  MOVFF  B49,F8C
....................    delay_us(1); 
01BB0:  BRA    1BB2
....................    output_high(GLCD_E);       // Pulse the enable pin 
01BB2:  BCF    F94.5
01BB4:  BSF    F8B.5
....................    delay_us(1); 
01BB6:  BRA    1BB8
....................    output_low(GLCD_E); 
01BB8:  BCF    F94.5
01BBA:  BCF    F8B.5
....................  
....................    output_low(GLCD_CS1);      // Reset the chip select lines 
01BBC:  BCF    F93.4
01BBE:  BCF    F8A.4
....................    output_low(GLCD_CS2); 
01BC0:  BCF    F93.5
01BC2:  BCF    F8A.5
01BC4:  MOVLB  0
01BC6:  RETURN 0
.................... } 
....................  
....................  
.................... // Purpose:    Reads a byte of data from the specified chip 
.................... // Ouputs:     A byte of data read from the chip 
.................... BYTE glcd_readByte(int1 side) 
.................... { 
....................    BYTE data;                 // Stores the data read from the LCD 
....................  
....................    set_tris_d(0xFF);          // Set port d to input 
*
01D1C:  MOVLW  FF
01D1E:  MOVWF  F95
....................    output_high(GLCD_RW);      // Set for reading 
01D20:  BCF    F93.7
01D22:  BSF    F8A.7
....................  
....................    if(side)                   // Choose which side to write to 
01D24:  MOVLB  B
01D26:  MOVF   x47,F
01D28:  BZ    1D30
....................       output_high(GLCD_CS2); 
01D2A:  BCF    F93.5
01D2C:  BSF    F8A.5
01D2E:  BRA    1D34
....................    else 
....................       output_high(GLCD_CS1); 
01D30:  BCF    F93.4
01D32:  BSF    F8A.4
....................  
....................    delay_us(1); 
01D34:  BRA    1D36
....................    output_high(GLCD_E);       // Pulse the enable pin 
01D36:  BCF    F94.5
01D38:  BSF    F8B.5
....................    delay_us(1); 
01D3A:  BRA    1D3C
....................    data = input_d();          // Get the data from the display's output register 
01D3C:  SETF   F95
01D3E:  MOVFF  F83,B48
....................    output_low(GLCD_E); 
01D42:  BCF    F94.5
01D44:  BCF    F8B.5
....................  
....................    output_low(GLCD_CS1);      // Reset the chip select lines 
01D46:  BCF    F93.4
01D48:  BCF    F8A.4
....................    output_low(GLCD_CS2); 
01D4A:  BCF    F93.5
01D4C:  BCF    F8A.5
....................    return data;               // Return the read data 
01D4E:  MOVFF  B48,01
01D52:  MOVLB  0
01D54:  RETURN 0
.................... } 
....................  
.................... #endif 
....................  
.................... #include "graphics.c" 
.................... ///////////////////////////////////////////////////////////////////////// 
.................... ////                          graphics.c                             //// 
.................... ////                                                                 //// 
.................... ////   This file contains functions to draw lines, rectangles, bars, //// 
.................... ////   circles and text to a display. A function which draws a       //// 
.................... ////   single pixel must be defined before calling the functions in  //// 
.................... ////   this file. Call it glcd_pixel(x, y, color) where x is the     //// 
.................... ////   horizontal coordinate, y is the vertical coordinate, and      //// 
.................... ////   color is 1 bit to turn the pixel on or off.                   //// 
.................... ////                                                                 //// 
.................... ////   * Note: (0, 0) is treated as the upper left corner            //// 
.................... ////                                                                 //// 
.................... ///////////////////////////////////////////////////////////////////////// 
.................... ////                                                                 //// 
.................... ////  glcd_line(x1, y1, x2, y2, color)                               //// 
.................... ////     * Draws a line from the first point to the second point     //// 
.................... ////       with the given color                                      //// 
.................... ////       - color can be ON or OFF                                  //// 
.................... ////                                                                 //// 
.................... ////  glcd_rect(x1, y1, x2, y2, fill, color)                         //// 
.................... ////     * Draws a rectangle with one corner at point (x1,y1) and    //// 
.................... ////       the other corner at point (x2,y2)                         //// 
.................... ////       - fill can be YES or NO                                   //// 
.................... ////       - color can be ON or OFF                                  //// 
.................... ////                                                                 //// 
.................... ////  glcd_bar(x1, y1, x2, y2, width, color)                         //// 
.................... ////     * Draws a bar (wide line) from the first point to the       //// 
.................... ////       second point                                              //// 
.................... ////       - width is the number of pixels wide                      //// 
.................... ////       - color is ON or OFF                                      //// 
.................... ////                                                                 //// 
.................... ////  glcd_circle(x, y, radius, fill, color)                         //// 
.................... ////     * Draws a circle with center at (x,y)                       //// 
.................... ////       - fill can be YES or NO                                   //// 
.................... ////       - color can be ON or OFF                                  //// 
.................... ////                                                                 //// 
.................... ////  glcd_text57(x, y, textptr, size, color)                        //// 
.................... ////     * Write the null terminated text pointed to by textptr with //// 
.................... ////       the upper left coordinate of the first character at (x,y) //// 
.................... ////       Characters are 5 pixels wide and 7 pixels tall            //// 
.................... ////       - size is an integer that scales the size of the text     //// 
.................... ////       - color is ON or OFF                                      //// 
.................... ////     * Note - This function wraps characters to the next line    //// 
.................... ////              use #define GLCD_WIDTH to specify a display width  //// 
.................... ////                                                                 //// 
.................... ///////////////////////////////////////////////////////////////////////// 
.................... ////        (C) Copyright 1996, 2010 Custom Computer Services        //// 
.................... //// This source code may only be used by licensed users of the CCS  //// 
.................... //// C compiler.  This source code may only be distributed to other  //// 
.................... //// licensed users of the CCS C compiler.  No other use,            //// 
.................... //// reproduction or distribution is permitted without written       //// 
.................... //// permission.  Derivative programs created using this software    //// 
.................... //// in object code form are not restricted in any way.              //// 
.................... ///////////////////////////////////////////////////////////////////////// 
....................  
....................  
.................... ///////////////////////////////////////////////////////////////////////// 
.................... #ifndef GRAPHICS_DRAWING_FUNCTIONS 
.................... #define GRAPHICS_DRAWING_FUNCTIONS 
.................... ///////////////////////////////////////////////////////////////////////// 
....................  
....................  
.................... ///////////////////////////////////////////////////////////////////////// 
.................... #ifndef ON 
.................... #define ON  1 
.................... #endif 
....................  
.................... #ifndef OFF 
.................... #define OFF 0 
.................... #endif 
....................  
.................... #ifndef YES 
.................... #define YES 1 
.................... #endif 
....................  
.................... #ifndef NO 
.................... #define NO  0 
.................... #endif 
.................... ///////////////////////////////////////////////////////////////////////// 
....................  
....................  
.................... ///////////////////////////////////////////////////////////////////////// 
.................... //// Defines a 5x7 font 
.................... ///////////////////////////////////////////////////////////////////////// 
.................... const unsigned int8 FONT[51][5] ={0x00, 0x00, 0x00, 0x00, 0x00, // SPACE 
....................                          0x00, 0x00, 0x5F, 0x00, 0x00, // ! 
....................                          0x00, 0x03, 0x00, 0x03, 0x00, // " 
....................                          0x14, 0x3E, 0x14, 0x3E, 0x14, // # 
....................                          0x24, 0x2A, 0x7F, 0x2A, 0x12, // $ 
....................                          0x43, 0x33, 0x08, 0x66, 0x61, // % 
....................                          0x36, 0x49, 0x55, 0x22, 0x50, // & 
....................                          0x00, 0x05, 0x03, 0x00, 0x00, // ' 
....................                          0x00, 0x1C, 0x22, 0x41, 0x00, // ( 
....................                          0x00, 0x41, 0x22, 0x1C, 0x00, // ) 
....................                          0x14, 0x08, 0x3E, 0x08, 0x14, // * 
....................                          0x08, 0x08, 0x3E, 0x08, 0x08, // + 
....................                          0x00, 0x50, 0x30, 0x00, 0x00, // , 
....................                          0x08, 0x08, 0x08, 0x08, 0x08, // - 
....................                          0x00, 0x60, 0x60, 0x00, 0x00, // . 
....................                          0x20, 0x10, 0x08, 0x04, 0x02, // / 
....................                          0x3E, 0x51, 0x49, 0x45, 0x3E, // 0 
....................                          0x00, 0x04, 0x02, 0x7F, 0x00, // 1 
....................                          0x42, 0x61, 0x51, 0x49, 0x46, // 2 
....................                          0x22, 0x41, 0x49, 0x49, 0x36, // 3 
....................                          0x18, 0x14, 0x12, 0x7F, 0x10, // 4 
....................                          0x27, 0x45, 0x45, 0x45, 0x39, // 5 
....................                          0x3E, 0x49, 0x49, 0x49, 0x32, // 6 
....................                          0x01, 0x01, 0x71, 0x09, 0x07, // 7 
....................                          0x36, 0x49, 0x49, 0x49, 0x36, // 8 
....................                          0x26, 0x49, 0x49, 0x49, 0x3E, // 9 
....................                          0x00, 0x36, 0x36, 0x00, 0x00, // : 
....................                          0x00, 0x56, 0x36, 0x00, 0x00, // ; 
....................                          0x08, 0x14, 0x22, 0x41, 0x00, // < 
....................                          0x14, 0x14, 0x14, 0x14, 0x14, // = 
....................                          0x00, 0x41, 0x22, 0x14, 0x08, // > 
....................                          0x02, 0x01, 0x51, 0x09, 0x06, // ? 
....................                          0x3E, 0x41, 0x59, 0x55, 0x5E, // @ 
....................                          0x7E, 0x09, 0x09, 0x09, 0x7E, // A 
....................                          0x7F, 0x49, 0x49, 0x49, 0x36, // B 
....................                          0x3E, 0x41, 0x41, 0x41, 0x22, // C 
....................                          0x7F, 0x41, 0x41, 0x41, 0x3E, // D 
....................                          0x7F, 0x49, 0x49, 0x49, 0x41, // E 
....................                          0x7F, 0x09, 0x09, 0x09, 0x01, // F 
....................                          0x3E, 0x41, 0x41, 0x49, 0x3A, // G 
....................                          0x7F, 0x08, 0x08, 0x08, 0x7F, // H 
....................                          0x00, 0x41, 0x7F, 0x41, 0x00, // I 
....................                          0x30, 0x40, 0x40, 0x40, 0x3F, // J 
....................                          0x7F, 0x08, 0x14, 0x22, 0x41, // K 
....................                          0x7F, 0x40, 0x40, 0x40, 0x40, // L 
....................                          0x7F, 0x02, 0x0C, 0x02, 0x7F, // M 
....................                          0x7F, 0x02, 0x04, 0x08, 0x7F, // N 
....................                          0x3E, 0x41, 0x41, 0x41, 0x3E, // O 
....................                          0x7F, 0x09, 0x09, 0x09, 0x06, // P 
....................                          0x1E, 0x21, 0x21, 0x21, 0x5E, // Q 
....................                          0x7F, 0x09, 0x09, 0x09, 0x76};// R 
....................  
.................... const unsigned int8 FONT2[44][5]={ 
....................                          0x26, 0x49, 0x49, 0x49, 0x32, // S 
....................                          0x01, 0x01, 0x7F, 0x01, 0x01, // T 
....................                          0x3F, 0x40, 0x40, 0x40, 0x3F, // U 
....................                          0x1F, 0x20, 0x40, 0x20, 0x1F, // V 
....................                          0x7F, 0x20, 0x10, 0x20, 0x7F, // W 
....................                          0x41, 0x22, 0x1C, 0x22, 0x41, // X 
....................                          0x07, 0x08, 0x70, 0x08, 0x07, // Y 
....................                          0x61, 0x51, 0x49, 0x45, 0x43, // Z 
....................                          0x00, 0x7F, 0x41, 0x00, 0x00, // [ 
....................                          0x02, 0x04, 0x08, 0x10, 0x20, // \ 
....................                          0x00, 0x00, 0x41, 0x7F, 0x00, // ] 
....................                          0x04, 0x02, 0x01, 0x02, 0x04, // ^ 
....................                          0x40, 0x40, 0x40, 0x40, 0x40, // _ 
....................                          0x00, 0x01, 0x02, 0x04, 0x00, // ` 
....................                          0x20, 0x54, 0x54, 0x54, 0x78, // a 
....................                          0x7F, 0x44, 0x44, 0x44, 0x38, // b 
....................                          0x38, 0x44, 0x44, 0x44, 0x44, // c 
....................                          0x38, 0x44, 0x44, 0x44, 0x7F, // d 
....................                          0x38, 0x54, 0x54, 0x54, 0x18, // e 
....................                          0x04, 0x04, 0x7E, 0x05, 0x05, // f 
....................                          0x08, 0x54, 0x54, 0x54, 0x3C, // g 
....................                          0x7F, 0x08, 0x04, 0x04, 0x78, // h 
....................                          0x00, 0x44, 0x7D, 0x40, 0x00, // i 
....................                          0x20, 0x40, 0x44, 0x3D, 0x00, // j 
....................                          0x7F, 0x10, 0x28, 0x44, 0x00, // k 
....................                          0x00, 0x41, 0x7F, 0x40, 0x00, // l 
....................                          0x7C, 0x04, 0x78, 0x04, 0x78, // m 
....................                          0x7C, 0x08, 0x04, 0x04, 0x78, // n 
....................                          0x38, 0x44, 0x44, 0x44, 0x38, // o 
....................                          0x7C, 0x14, 0x14, 0x14, 0x08, // p 
....................                          0x08, 0x14, 0x14, 0x14, 0x7C, // q 
....................                          0x00, 0x7C, 0x08, 0x04, 0x04, // r 
....................                          0x48, 0x54, 0x54, 0x54, 0x20, // s 
....................                          0x04, 0x04, 0x3F, 0x44, 0x44, // t 
....................                          0x3C, 0x40, 0x40, 0x20, 0x7C, // u 
....................                          0x1C, 0x20, 0x40, 0x20, 0x1C, // v 
....................                          0x3C, 0x40, 0x30, 0x40, 0x3C, // w 
....................                          0x44, 0x28, 0x10, 0x28, 0x44, // x 
....................                          0x0C, 0x50, 0x50, 0x50, 0x3C, // y 
....................                          0x44, 0x64, 0x54, 0x4C, 0x44, // z 
....................                          0x00, 0x08, 0x36, 0x41, 0x41, // { 
....................                          0x00, 0x00, 0x7F, 0x00, 0x00, // | 
....................                          0x41, 0x41, 0x36, 0x08, 0x00, // } 
....................                          0x02, 0x01, 0x02, 0x04, 0x02};// ~ 
.................... ///////////////////////////////////////////////////////////////////////// 
....................  
....................  
.................... ///////////////////////////////////////////////////////////////////////// 
.................... // Purpose:       Draw a line on a graphic LCD using Bresenham's 
.................... //                line drawing algorithm 
.................... // Inputs:        (x1, y1) - the start coordinate 
.................... //                (x2, y2) - the end coordinate 
.................... //                color - ON or OFF 
.................... // Dependencies:  glcd_pixel() 
.................... ///////////////////////////////////////////////////////////////////////// 
.................... #ifdef LARGE_LCD 
.................... void glcd_line(unsigned int16 x1, unsigned int16 y1, unsigned int16 x2, iunsigned nt16 y2, int1 color) 
.................... #else 
.................... void glcd_line(unsigned int8 x1, unsigned int8 y1, unsigned int8 x2, unsigned int8 y2, int1 color) 
.................... #endif 
*
020A2:  MOVLW  01
020A4:  MOVLB  B
020A6:  MOVWF  x3A
020A8:  MOVWF  x3B
020AA:  CLRF   x40
.................... { 
....................    unsigned int16        dy, dx; 
....................    signed int8  addx=1, addy=1; 
....................    signed int16 P, diff; 
....................  
....................    #ifdef LARGE_LCD 
....................    unsigned int16 i=0; 
....................    dx = abs((signed int16)(x2 - x1)); 
....................    dy = abs((signed int16)(y2 - y1)); 
....................    #else 
....................    unsigned int8 i=0; 
....................    dx = abs((signed int8)(x2 - x1)); 
020AC:  MOVF   x31,W
020AE:  SUBWF  x33,W
020B0:  MOVWF  x41
020B2:  MOVF   x41,W
020B4:  BTFSS  x41.7
020B6:  BRA    20BE
020B8:  MOVLW  00
020BA:  BSF    FD8.0
020BC:  SUBFWB x41,W
020BE:  CLRF   03
020C0:  MOVWF  x38
020C2:  MOVFF  03,B39
....................    dy = abs((signed int8)(y2 - y1)); 
020C6:  MOVF   x32,W
020C8:  SUBWF  x34,W
020CA:  MOVWF  x41
020CC:  MOVF   x41,W
020CE:  BTFSS  x41.7
020D0:  BRA    20D8
020D2:  MOVLW  00
020D4:  BSF    FD8.0
020D6:  SUBFWB x41,W
020D8:  CLRF   03
020DA:  MOVWF  x36
020DC:  MOVFF  03,B37
....................    #endif 
....................  
....................    if(x1 > x2) 
020E0:  MOVF   x31,W
020E2:  SUBWF  x33,W
020E4:  BC    20E8
....................       addx = -1; 
020E6:  SETF   x3A
....................    if(y1 > y2) 
020E8:  MOVF   x32,W
020EA:  SUBWF  x34,W
020EC:  BC    20F0
....................       addy = -1; 
020EE:  SETF   x3B
....................  
....................    if(dx >= dy) 
020F0:  MOVF   x37,W
020F2:  SUBWF  x39,W
020F4:  BNC   216A
020F6:  BNZ   20FE
020F8:  MOVF   x36,W
020FA:  SUBWF  x38,W
020FC:  BNC   216A
....................    { 
....................       dy *= 2; 
020FE:  BCF    FD8.0
02100:  RLCF   x36,F
02102:  RLCF   x37,F
....................       P = dy - dx; 
02104:  MOVF   x38,W
02106:  SUBWF  x36,W
02108:  MOVWF  00
0210A:  MOVF   x39,W
0210C:  SUBWFB x37,W
0210E:  MOVFF  00,B3C
02112:  MOVWF  x3D
....................       diff = P - dx; 
02114:  MOVF   x38,W
02116:  SUBWF  x3C,W
02118:  MOVWF  x3E
0211A:  MOVF   x39,W
0211C:  SUBWFB x3D,W
0211E:  MOVWF  x3F
....................  
....................       for(; i<=dx; ++i) 
02120:  MOVF   x39,F
02122:  BNZ   212A
02124:  MOVF   x40,W
02126:  SUBWF  x38,W
02128:  BNC   2168
....................       { 
....................          glcd_pixel(x1, y1, color); 
0212A:  MOVFF  B31,B41
0212E:  MOVFF  B32,B42
02132:  MOVFF  B35,B43
02136:  MOVLB  0
02138:  RCALL  1D56
....................  
....................          if(P < 0) 
0213A:  MOVLB  B
0213C:  BTFSS  x3D.7
0213E:  BRA    2150
....................          { 
....................             P  += dy; 
02140:  MOVF   x36,W
02142:  ADDWF  x3C,F
02144:  MOVF   x37,W
02146:  ADDWFC x3D,F
....................             x1 += addx; 
02148:  MOVF   x3A,W
0214A:  ADDWF  x31,W
0214C:  MOVWF  x31
....................          } 
0214E:  BRA    2164
....................          else 
....................          { 
....................             P  += diff; 
02150:  MOVF   x3E,W
02152:  ADDWF  x3C,F
02154:  MOVF   x3F,W
02156:  ADDWFC x3D,F
....................             x1 += addx; 
02158:  MOVF   x3A,W
0215A:  ADDWF  x31,W
0215C:  MOVWF  x31
....................             y1 += addy; 
0215E:  MOVF   x3B,W
02160:  ADDWF  x32,W
02162:  MOVWF  x32
....................          } 
02164:  INCF   x40,F
02166:  BRA    2120
....................       } 
....................    } 
02168:  BRA    21D4
....................    else 
....................    { 
....................       dx *= 2; 
0216A:  BCF    FD8.0
0216C:  RLCF   x38,F
0216E:  RLCF   x39,F
....................       P = dx - dy; 
02170:  MOVF   x36,W
02172:  SUBWF  x38,W
02174:  MOVWF  00
02176:  MOVF   x37,W
02178:  SUBWFB x39,W
0217A:  MOVFF  00,B3C
0217E:  MOVWF  x3D
....................       diff = P - dy; 
02180:  MOVF   x36,W
02182:  SUBWF  x3C,W
02184:  MOVWF  x3E
02186:  MOVF   x37,W
02188:  SUBWFB x3D,W
0218A:  MOVWF  x3F
....................  
....................       for(; i<=dy; ++i) 
0218C:  MOVF   x37,F
0218E:  BNZ   2196
02190:  MOVF   x40,W
02192:  SUBWF  x36,W
02194:  BNC   21D4
....................       { 
....................          glcd_pixel(x1, y1, color); 
02196:  MOVFF  B31,B41
0219A:  MOVFF  B32,B42
0219E:  MOVFF  B35,B43
021A2:  MOVLB  0
021A4:  RCALL  1D56
....................  
....................          if(P < 0) 
021A6:  MOVLB  B
021A8:  BTFSS  x3D.7
021AA:  BRA    21BC
....................          { 
....................             P  += dx; 
021AC:  MOVF   x38,W
021AE:  ADDWF  x3C,F
021B0:  MOVF   x39,W
021B2:  ADDWFC x3D,F
....................             y1 += addy; 
021B4:  MOVF   x3B,W
021B6:  ADDWF  x32,W
021B8:  MOVWF  x32
....................          } 
021BA:  BRA    21D0
....................          else 
....................          { 
....................             P  += diff; 
021BC:  MOVF   x3E,W
021BE:  ADDWF  x3C,F
021C0:  MOVF   x3F,W
021C2:  ADDWFC x3D,F
....................             x1 += addx; 
021C4:  MOVF   x3A,W
021C6:  ADDWF  x31,W
021C8:  MOVWF  x31
....................             y1 += addy; 
021CA:  MOVF   x3B,W
021CC:  ADDWF  x32,W
021CE:  MOVWF  x32
....................          } 
021D0:  INCF   x40,F
021D2:  BRA    218C
....................       } 
....................    } 
021D4:  MOVLB  0
021D6:  RETURN 0
.................... } 
....................  
....................  
.................... ///////////////////////////////////////////////////////////////////////// 
.................... // Purpose:       Draw a rectangle on a graphic LCD 
.................... // Inputs:        (x1, y1) - the start coordinate 
.................... //                (x2, y2) - the end coordinate 
.................... //                fill  - YES or NO 
.................... //                color - ON or OFF 
.................... // Dependencies:  glcd_pixel(), glcd_line() 
.................... ///////////////////////////////////////////////////////////////////////// 
.................... #ifdef LARGE_LCD 
.................... void glcd_rect(unsigned int16 x1, unsigned int16 y1, unsigned int16 x2, unsigned int16 y2, int1 fill, int1 color) 
.................... #else 
.................... void glcd_rect(unsigned int8 x1, unsigned int8 y1, unsigned int8 x2, unsigned int8 y2, int1 fill, int1 color) 
.................... #endif 
.................... { 
....................    if(fill) 
021D8:  MOVLB  B
021DA:  MOVF   x29,F
021DC:  BZ    223A
....................    { 
....................       #ifdef LARGE_LCD 
....................       unsigned int16 i, xmin, xmax, ymin, ymax; 
....................       #else 
....................       unsigned int8  i, xmin, xmax, ymin, ymax; 
....................       #endif 
....................  
....................       if(x1 < x2)                            //  Find x min and max 
021DE:  MOVF   x27,W
021E0:  SUBWF  x25,W
021E2:  BC    21EE
....................       { 
....................          xmin = x1; 
021E4:  MOVFF  B25,B2C
....................          xmax = x2; 
021E8:  MOVFF  B27,B2D
....................       } 
021EC:  BRA    21F6
....................       else 
....................       { 
....................          xmin = x2; 
021EE:  MOVFF  B27,B2C
....................          xmax = x1; 
021F2:  MOVFF  B25,B2D
....................       } 
....................  
....................       if(y1 < y2)                            // Find the y min and max 
021F6:  MOVF   x28,W
021F8:  SUBWF  x26,W
021FA:  BC    2206
....................       { 
....................          ymin = y1; 
021FC:  MOVFF  B26,B2E
....................          ymax = y2; 
02200:  MOVFF  B28,B2F
....................       } 
02204:  BRA    220E
....................       else 
....................       { 
....................          ymin = y2; 
02206:  MOVFF  B28,B2E
....................          ymax = y1; 
0220A:  MOVFF  B26,B2F
....................       } 
....................  
....................       for(; xmin <= xmax; ++xmin) 
0220E:  MOVF   x2C,W
02210:  SUBWF  x2D,W
02212:  BNC   2238
....................       { 
....................          for(i=ymin; i<=ymax; ++i) 
02214:  MOVFF  B2E,B2B
02218:  MOVF   x2B,W
0221A:  SUBWF  x2F,W
0221C:  BNC   2234
....................          { 
....................             glcd_pixel(xmin, i, color); 
0221E:  MOVFF  B2C,B41
02222:  MOVFF  B2B,B42
02226:  MOVFF  B2A,B43
0222A:  MOVLB  0
0222C:  RCALL  1D56
0222E:  MOVLB  B
02230:  INCF   x2B,F
02232:  BRA    2218
....................          } 
02234:  INCF   x2C,F
02236:  BRA    220E
....................       } 
....................    } 
02238:  BRA    2296
....................    else 
....................    { 
....................       glcd_line(x1, y1, x2, y1, color);      // Draw the 4 sides 
0223A:  MOVFF  B25,B31
0223E:  MOVFF  B26,B32
02242:  MOVFF  B27,B33
02246:  MOVFF  B26,B34
0224A:  MOVFF  B2A,B35
0224E:  MOVLB  0
02250:  RCALL  20A2
....................       glcd_line(x1, y2, x2, y2, color); 
02252:  MOVFF  B25,B31
02256:  MOVFF  B28,B32
0225A:  MOVFF  B27,B33
0225E:  MOVFF  B28,B34
02262:  MOVFF  B2A,B35
02266:  RCALL  20A2
....................       glcd_line(x1, y1, x1, y2, color); 
02268:  MOVFF  B25,B31
0226C:  MOVFF  B26,B32
02270:  MOVFF  B25,B33
02274:  MOVFF  B28,B34
02278:  MOVFF  B2A,B35
0227C:  RCALL  20A2
....................       glcd_line(x2, y1, x2, y2, color); 
0227E:  MOVFF  B27,B31
02282:  MOVFF  B26,B32
02286:  MOVFF  B27,B33
0228A:  MOVFF  B28,B34
0228E:  MOVFF  B2A,B35
02292:  RCALL  20A2
02294:  MOVLB  B
....................    } 
02296:  MOVLB  0
02298:  RETURN 0
.................... } 
....................  
.................... ///////////////////////////////////////////////////////////////////////// 
.................... // Purpose:       Draw a bar (wide line) on a graphic LCD 
.................... // Inputs:        (x1, y1) - the start coordinate 
.................... //                (x2, y2) - the end coordinate 
.................... //                width  - The number of pixels wide 
.................... //                color - ON or OFF 
.................... ///////////////////////////////////////////////////////////////////////// 
.................... #ifdef LARGE_LCD 
.................... void glcd_bar(unsigned int16 x1, unsigned int16 y1, unsigned int16 x2, unsigned int16 y2, unsigned int8 width, int1 color) 
.................... #else 
.................... void glcd_bar(unsigned int8 x1, unsigned int8 y1, unsigned int8 x2, unsigned int8 y2, unsigned int8 width, int1 color) 
.................... #endif 
.................... { 
....................    unsigned int8         half_width; 
....................    signed int16 dy, dx; 
....................    signed int8  addx=1, addy=1, j; 
....................    signed int16 P, diff, c1, c2; 
....................  
....................    #ifdef LARGE_LCD 
....................    unsigned int16 i=0; 
....................    dx = abs((signed int16)(x2 - x1)); 
....................    dy = abs((signed int16)(y2 - y1)); 
....................    #else 
....................    unsigned int8 i=0; 
....................    dx = abs((signed int8)(x2 - x1)); 
....................    dy = abs((signed int8)(y2 - y1)); 
....................    #endif 
....................  
....................    half_width = width/2; 
....................    c1 = -(dx*x1 + dy*y1); 
....................    c2 = -(dx*x2 + dy*y2); 
....................  
....................    if(x1 > x2) 
....................    { 
....................       signed int16 temp; 
....................       temp = c1; 
....................       c1 = c2; 
....................       c2 = temp; 
....................       addx = -1; 
....................    } 
....................    if(y1 > y2) 
....................    { 
....................       signed int16 temp; 
....................       temp = c1; 
....................       c1 = c2; 
....................       c2 = temp; 
....................       addy = -1; 
....................    } 
....................  
....................    if(dx >= dy) 
....................    { 
....................       P = 2*dy - dx; 
....................       diff = P - dx; 
....................  
....................       for(i=0; i<=dx; ++i) 
....................       { 
....................          for(j=-half_width; j<half_width+width%2; ++j) 
....................          { 
....................                glcd_pixel(x1, y1+j, color); 
....................          } 
....................          if(P < 0) 
....................          { 
....................             P  += 2*dy; 
....................             x1 += addx; 
....................          } 
....................          else 
....................          { 
....................             P  += diff; 
....................             x1 += addx; 
....................             y1 += addy; 
....................          } 
....................       } 
....................    } 
....................    else 
....................    { 
....................       P = 2*dx - dy; 
....................       diff = P - dy; 
....................  
....................       for(i=0; i<=dy; ++i) 
....................       { 
....................          if(P < 0) 
....................          { 
....................             P  += 2*dx; 
....................             y1 += addy; 
....................          } 
....................          else 
....................          { 
....................             P  += diff; 
....................             x1 += addx; 
....................             y1 += addy; 
....................          } 
....................          for(j=-half_width; j<half_width+width%2; ++j) 
....................          { 
....................                glcd_pixel(x1+j, y1, color); 
....................          } 
....................       } 
....................    } 
.................... } 
....................  
....................  
.................... ///////////////////////////////////////////////////////////////////////// 
.................... // Purpose:       Draw a circle on a graphic LCD 
.................... // Inputs:        (x,y) - the center of the circle 
.................... //                radius - the radius of the circle 
.................... //                fill - YES or NO 
.................... //                color - ON or OFF 
.................... ///////////////////////////////////////////////////////////////////////// 
.................... #ifdef LARGE_LCD 
.................... void glcd_circle(unsigned int16 x, unsigned int16 y, unsigned int16 radius, int1 fill, int1 color) 
.................... #else 
.................... void glcd_circle(unsigned int8 x, unsigned int8 y, unsigned int8 radius, int1 fill, int1 color) 
.................... #endif 
.................... { 
....................    #ifdef LARGE_LCD 
....................    signed int16 a, b, P; 
....................    #else 
....................    signed int8  a, b, P; 
....................    #endif 
....................  
....................    a = 0; 
*
04612:  MOVLB  B
04614:  CLRF   x2A
....................    b = radius; 
04616:  MOVFF  B27,B2B
....................    P = 1 - radius; 
0461A:  MOVLW  01
0461C:  BSF    FD8.0
0461E:  SUBFWB x27,W
04620:  MOVWF  x2C
....................  
....................    do 
....................    { 
....................       if(fill) 
04622:  MOVF   x28,F
04624:  BZ    46F0
....................       { 
....................          glcd_line(x-a, y+b, x+a, y+b, color); 
04626:  MOVF   x2A,W
04628:  SUBWF  x25,W
0462A:  MOVWF  x2D
0462C:  MOVF   x2B,W
0462E:  ADDWF  x26,W
04630:  MOVWF  x2E
04632:  MOVF   x2A,W
04634:  ADDWF  x25,W
04636:  MOVWF  x2F
04638:  MOVF   x2B,W
0463A:  ADDWF  x26,W
0463C:  MOVWF  x30
0463E:  MOVFF  B2D,B31
04642:  MOVFF  B2E,B32
04646:  MOVFF  B2F,B33
0464A:  MOVWF  x34
0464C:  MOVFF  B29,B35
04650:  MOVLB  0
04652:  CALL   20A2
....................          glcd_line(x-a, y-b, x+a, y-b, color); 
04656:  MOVLB  B
04658:  MOVF   x2A,W
0465A:  SUBWF  x25,W
0465C:  MOVWF  x2D
0465E:  MOVF   x2B,W
04660:  SUBWF  x26,W
04662:  MOVWF  x2E
04664:  MOVF   x2A,W
04666:  ADDWF  x25,W
04668:  MOVWF  x2F
0466A:  MOVF   x2B,W
0466C:  SUBWF  x26,W
0466E:  MOVWF  x30
04670:  MOVFF  B2D,B31
04674:  MOVFF  B2E,B32
04678:  MOVFF  B2F,B33
0467C:  MOVWF  x34
0467E:  MOVFF  B29,B35
04682:  MOVLB  0
04684:  CALL   20A2
....................          glcd_line(x-b, y+a, x+b, y+a, color); 
04688:  MOVLB  B
0468A:  MOVF   x2B,W
0468C:  SUBWF  x25,W
0468E:  MOVWF  x2D
04690:  MOVF   x2A,W
04692:  ADDWF  x26,W
04694:  MOVWF  x2E
04696:  MOVF   x2B,W
04698:  ADDWF  x25,W
0469A:  MOVWF  x2F
0469C:  MOVF   x2A,W
0469E:  ADDWF  x26,W
046A0:  MOVWF  x30
046A2:  MOVFF  B2D,B31
046A6:  MOVFF  B2E,B32
046AA:  MOVFF  B2F,B33
046AE:  MOVWF  x34
046B0:  MOVFF  B29,B35
046B4:  MOVLB  0
046B6:  CALL   20A2
....................          glcd_line(x-b, y-a, x+b, y-a, color); 
046BA:  MOVLB  B
046BC:  MOVF   x2B,W
046BE:  SUBWF  x25,W
046C0:  MOVWF  x2D
046C2:  MOVF   x2A,W
046C4:  SUBWF  x26,W
046C6:  MOVWF  x2E
046C8:  MOVF   x2B,W
046CA:  ADDWF  x25,W
046CC:  MOVWF  x2F
046CE:  MOVF   x2A,W
046D0:  SUBWF  x26,W
046D2:  MOVWF  x30
046D4:  MOVFF  B2D,B31
046D8:  MOVFF  B2E,B32
046DC:  MOVFF  B2F,B33
046E0:  MOVWF  x34
046E2:  MOVFF  B29,B35
046E6:  MOVLB  0
046E8:  CALL   20A2
....................       } 
046EC:  BRA    47DE
046EE:  MOVLB  B
....................       else 
....................       { 
....................          glcd_pixel(a+x, b+y, color); 
046F0:  MOVF   x25,W
046F2:  ADDWF  x2A,W
046F4:  MOVWF  x2D
046F6:  MOVF   x26,W
046F8:  ADDWF  x2B,W
046FA:  MOVWF  x2E
046FC:  MOVFF  B2D,B41
04700:  MOVWF  x42
04702:  MOVFF  B29,B43
04706:  MOVLB  0
04708:  CALL   1D56
....................          glcd_pixel(b+x, a+y, color); 
0470C:  MOVLB  B
0470E:  MOVF   x25,W
04710:  ADDWF  x2B,W
04712:  MOVWF  x2D
04714:  MOVF   x26,W
04716:  ADDWF  x2A,W
04718:  MOVWF  x2E
0471A:  MOVFF  B2D,B41
0471E:  MOVWF  x42
04720:  MOVFF  B29,B43
04724:  MOVLB  0
04726:  CALL   1D56
....................          glcd_pixel(x-a, b+y, color); 
0472A:  MOVLB  B
0472C:  MOVF   x2A,W
0472E:  SUBWF  x25,W
04730:  MOVWF  x2D
04732:  MOVF   x26,W
04734:  ADDWF  x2B,W
04736:  MOVWF  x2E
04738:  MOVFF  B2D,B41
0473C:  MOVWF  x42
0473E:  MOVFF  B29,B43
04742:  MOVLB  0
04744:  CALL   1D56
....................          glcd_pixel(x-b, a+y, color); 
04748:  MOVLB  B
0474A:  MOVF   x2B,W
0474C:  SUBWF  x25,W
0474E:  MOVWF  x2D
04750:  MOVF   x26,W
04752:  ADDWF  x2A,W
04754:  MOVWF  x2E
04756:  MOVFF  B2D,B41
0475A:  MOVWF  x42
0475C:  MOVFF  B29,B43
04760:  MOVLB  0
04762:  CALL   1D56
....................          glcd_pixel(b+x, y-a, color); 
04766:  MOVLB  B
04768:  MOVF   x25,W
0476A:  ADDWF  x2B,W
0476C:  MOVWF  x2D
0476E:  MOVF   x2A,W
04770:  SUBWF  x26,W
04772:  MOVWF  x2E
04774:  MOVFF  B2D,B41
04778:  MOVWF  x42
0477A:  MOVFF  B29,B43
0477E:  MOVLB  0
04780:  CALL   1D56
....................          glcd_pixel(a+x, y-b, color); 
04784:  MOVLB  B
04786:  MOVF   x25,W
04788:  ADDWF  x2A,W
0478A:  MOVWF  x2D
0478C:  MOVF   x2B,W
0478E:  SUBWF  x26,W
04790:  MOVWF  x2E
04792:  MOVFF  B2D,B41
04796:  MOVWF  x42
04798:  MOVFF  B29,B43
0479C:  MOVLB  0
0479E:  CALL   1D56
....................          glcd_pixel(x-a, y-b, color); 
047A2:  MOVLB  B
047A4:  MOVF   x2A,W
047A6:  SUBWF  x25,W
047A8:  MOVWF  x2D
047AA:  MOVF   x2B,W
047AC:  SUBWF  x26,W
047AE:  MOVWF  x2E
047B0:  MOVFF  B2D,B41
047B4:  MOVWF  x42
047B6:  MOVFF  B29,B43
047BA:  MOVLB  0
047BC:  CALL   1D56
....................          glcd_pixel(x-b, y-a, color); 
047C0:  MOVLB  B
047C2:  MOVF   x2B,W
047C4:  SUBWF  x25,W
047C6:  MOVWF  x2D
047C8:  MOVF   x2A,W
047CA:  SUBWF  x26,W
047CC:  MOVWF  x2E
047CE:  MOVFF  B2D,B41
047D2:  MOVWF  x42
047D4:  MOVFF  B29,B43
047D8:  MOVLB  0
047DA:  CALL   1D56
....................       } 
....................  
....................       if(P < 0) 
047DE:  MOVLB  B
047E0:  BTFSS  x2C.7
047E2:  BRA    4800
....................          P += 3 + 2 * a++; 
047E4:  MOVF   x2A,W
047E6:  INCF   x2A,F
047E8:  MOVWF  x2D
047EA:  MOVLW  02
047EC:  MOVWF  x2E
047EE:  MOVFF  B2D,B2F
047F2:  MOVLB  0
047F4:  RCALL  45C4
047F6:  MOVF   01,W
047F8:  ADDLW  03
047FA:  MOVLB  B
047FC:  ADDWF  x2C,F
047FE:  BRA    4822
....................       else 
....................          P += 5 + 2 * (a++ - b--); 
04800:  MOVF   x2A,W
04802:  INCF   x2A,F
04804:  MOVWF  x2D
04806:  MOVF   x2B,W
04808:  DECF   x2B,F
0480A:  SUBWF  x2D,W
0480C:  MOVWF  x2D
0480E:  MOVLW  02
04810:  MOVWF  x2E
04812:  MOVFF  B2D,B2F
04816:  MOVLB  0
04818:  RCALL  45C4
0481A:  MOVF   01,W
0481C:  ADDLW  05
0481E:  MOVLB  B
04820:  ADDWF  x2C,F
....................     } while(a <= b); 
04822:  MOVF   x2A,W
04824:  XORLW  80
04826:  MOVWF  00
04828:  MOVF   x2B,W
0482A:  XORLW  80
0482C:  SUBWF  00,W
0482E:  BTFSC  FD8.2
04830:  BRA    4622
04832:  BTFSS  FD8.0
04834:  BRA    4622
04836:  MOVLB  0
04838:  RETURN 0
.................... } 
....................  
....................  
.................... ///////////////////////////////////////////////////////////////////////// 
.................... // Purpose:       Write text on a graphic LCD 
.................... // Inputs:        (x,y) - The upper left coordinate of the first letter 
.................... //                textptr - A pointer to an array of text to display 
.................... //                size - The size of the text: 1 = 5x7, 2 = 10x14, ... 
.................... //                color - ON or OFF 
.................... ///////////////////////////////////////////////////////////////////////// 
.................... #ifdef LARGE_LCD 
.................... void glcd_text57(unsigned int16 x, unsigned int16 y, char* textptr, unsigned int8 size, int1 color) 
.................... #else 
.................... void glcd_text57(unsigned int8 x, unsigned int8 y, char* textptr, unsigned int8 size, int1 color) 
.................... #endif 
.................... { 
....................    unsigned int8 j, k, l, m;                       // Loop counters 
....................    unsigned int8 pixelData[5];                     // Stores character data 
....................  
....................    for(; *textptr != '\0'; ++textptr, ++x)// Loop through the passed string 
*
0229A:  MOVFF  B28,03
0229E:  MOVLB  B
022A0:  MOVFF  B27,FE9
022A4:  MOVFF  B28,FEA
022A8:  MOVF   FEF,F
022AA:  BTFSC  FD8.2
022AC:  BRA    2450
....................    { 
....................       if(*textptr < 'S') // Checks if the letter is in the first font array 
022AE:  MOVFF  B28,03
022B2:  MOVFF  B27,FE9
022B6:  MOVFF  B28,FEA
022BA:  MOVF   FEF,W
022BC:  SUBLW  52
022BE:  BNC   230E
....................          memcpy(pixelData, FONT[*textptr - ' '], 5); 
022C0:  MOVFF  B28,03
022C4:  MOVFF  B27,FE9
022C8:  MOVFF  B28,FEA
022CC:  MOVLW  20
022CE:  SUBWF  FEF,W
022D0:  MULLW  05
022D2:  MOVF   FF3,W
022D4:  CLRF   03
022D6:  MOVWF  x34
022D8:  MOVLW  0B
022DA:  MOVWF  FEA
022DC:  MOVLW  2F
022DE:  MOVWF  FE9
022E0:  CLRF   x38
022E2:  MOVFF  B34,B37
022E6:  MOVFF  FF2,B35
022EA:  BCF    FF2.7
022EC:  MOVLW  05
022EE:  MOVWF  01
022F0:  CLRF   FF7
022F2:  MOVF   x34,W
022F4:  MOVLB  0
022F6:  CALL   00C6
022FA:  TBLRD*-
022FC:  TBLRD*+
022FE:  MOVFF  FF5,FEE
02302:  DECFSZ 01,F
02304:  BRA    22FC
02306:  MOVLB  B
02308:  BTFSC  x35.7
0230A:  BSF    FF2.7
0230C:  BRA    2378
....................       else if(*textptr <= '~') // Check if the letter is in the second font array 
0230E:  MOVFF  B28,03
02312:  MOVFF  B27,FE9
02316:  MOVFF  B28,FEA
0231A:  MOVF   FEF,W
0231C:  SUBLW  7E
0231E:  BNC   236E
....................          memcpy(pixelData, FONT2[*textptr - 'S'], 5); 
02320:  MOVFF  B28,03
02324:  MOVFF  B27,FE9
02328:  MOVFF  B28,FEA
0232C:  MOVLW  53
0232E:  SUBWF  FEF,W
02330:  MULLW  05
02332:  MOVF   FF3,W
02334:  CLRF   03
02336:  MOVWF  x34
02338:  MOVLW  0B
0233A:  MOVWF  FEA
0233C:  MOVLW  2F
0233E:  MOVWF  FE9
02340:  CLRF   x38
02342:  MOVFF  B34,B37
02346:  MOVFF  FF2,B35
0234A:  BCF    FF2.7
0234C:  MOVLW  05
0234E:  MOVWF  01
02350:  CLRF   FF7
02352:  MOVF   x34,W
02354:  MOVLB  0
02356:  CALL   01E0
0235A:  TBLRD*-
0235C:  TBLRD*+
0235E:  MOVFF  FF5,FEE
02362:  DECFSZ 01,F
02364:  BRA    235C
02366:  MOVLB  B
02368:  BTFSC  x35.7
0236A:  BSF    FF2.7
0236C:  BRA    2378
....................       else 
....................          memcpy(pixelData, FONT[0], 5);   // Default to space 
0236E:  CLRF   x2F
02370:  CLRF   x30
02372:  CLRF   x31
02374:  CLRF   x32
02376:  CLRF   x33
....................  
....................       // Handles newline and carriage returns 
....................       switch(*textptr) 
02378:  MOVFF  B28,03
0237C:  MOVF   x27,W
0237E:  MOVWF  FE9
02380:  MOVFF  03,FEA
02384:  MOVF   FEF,W
02386:  XORLW  0A
02388:  MOVLB  0
0238A:  BZ    2392
0238C:  XORLW  07
0238E:  BZ    23A2
02390:  BRA    23AA
....................       { 
....................          case '\n': 
....................             y += 7*size + 1; 
02392:  MOVLB  B
02394:  MOVF   x29,W
02396:  MULLW  07
02398:  MOVF   FF3,W
0239A:  ADDLW  01
0239C:  ADDWF  x26,F
....................             continue; 
0239E:  BRA    2442
023A0:  MOVLB  0
....................          case '\r': 
....................             x = 0; 
023A2:  MOVLB  B
023A4:  CLRF   x25
....................             continue; 
023A6:  BRA    2442
023A8:  MOVLB  0
....................       } 
....................  
....................       if(x+5*size >= GLCD_WIDTH)          // Performs character wrapping 
023AA:  MOVLB  B
023AC:  MOVF   x29,W
023AE:  MULLW  05
023B0:  MOVF   FF3,W
023B2:  ADDWF  x25,W
023B4:  SUBLW  7F
023B6:  BC    23C4
....................       { 
....................          x = 0;                           // Set x at far left position 
023B8:  CLRF   x25
....................          y += 7*size + 1;                 // Set y at next position down 
023BA:  MOVF   x29,W
023BC:  MULLW  07
023BE:  MOVF   FF3,W
023C0:  ADDLW  01
023C2:  ADDWF  x26,F
....................       } 
....................       for(j=0; j<5; ++j, x+=size)         // Loop through character byte data 
023C4:  CLRF   x2B
023C6:  MOVF   x2B,W
023C8:  SUBLW  04
023CA:  BNC   2442
....................       { 
....................          for(k=0; k < 7; ++k)             // Loop through the vertical pixels 
023CC:  CLRF   x2C
023CE:  MOVF   x2C,W
023D0:  SUBLW  06
023D2:  BNC   243A
....................          { 
....................             if(bit_test(pixelData[j], k)) // Check if the pixel should be set 
023D4:  CLRF   03
023D6:  MOVF   x2B,W
023D8:  ADDLW  2F
023DA:  MOVWF  FE9
023DC:  MOVLW  0B
023DE:  ADDWFC 03,W
023E0:  MOVWF  FEA
023E2:  MOVFF  FEF,B34
023E6:  MOVFF  B34,00
023EA:  MOVF   x2C,W
023EC:  MOVWF  01
023EE:  BZ    23F8
023F0:  BCF    FD8.0
023F2:  RRCF   00,F
023F4:  DECFSZ 01,F
023F6:  BRA    23F0
023F8:  BTFSS  00.0
023FA:  BRA    2436
....................             { 
....................                for(l=0; l < size; ++l)    // These two loops change the 
023FC:  CLRF   x2D
023FE:  MOVF   x29,W
02400:  SUBWF  x2D,W
02402:  BC    2436
....................                {                          // character's size 
....................                   for(m=0; m < size; ++m) 
02404:  CLRF   x2E
02406:  MOVF   x29,W
02408:  SUBWF  x2E,W
0240A:  BC    2432
....................                   { 
....................                      glcd_pixel(x+m, y+k*size+l, color); // Draws the pixel 
0240C:  MOVF   x2E,W
0240E:  ADDWF  x25,W
02410:  MOVWF  x34
02412:  MOVF   x2C,W
02414:  MULWF  x29
02416:  MOVF   FF3,W
02418:  ADDWF  x26,W
0241A:  ADDWF  x2D,W
0241C:  MOVWF  x35
0241E:  MOVFF  B34,B41
02422:  MOVWF  x42
02424:  MOVFF  B2A,B43
02428:  MOVLB  0
0242A:  RCALL  1D56
0242C:  MOVLB  B
0242E:  INCF   x2E,F
02430:  BRA    2406
....................                   } 
02432:  INCF   x2D,F
02434:  BRA    23FE
....................                } 
....................             } 
02436:  INCF   x2C,F
02438:  BRA    23CE
....................          } 
0243A:  INCF   x2B,F
0243C:  MOVF   x29,W
0243E:  ADDWF  x25,F
02440:  BRA    23C6
....................       } 
02442:  INCF   x27,F
02444:  BTFSC  FD8.2
02446:  INCF   x28,F
02448:  INCF   x25,F
0244A:  MOVLB  0
0244C:  BRA    229A
0244E:  MOVLB  B
....................    } 
02450:  MOVLB  0
02452:  RETURN 0
.................... } 
....................  
.................... #endif 
....................  
.................... #include <finalizado.h> 
.................... //------------------------------------------------------------------------------ 
.................... // File generated by LCD Assistant 
.................... // http://en.radzio.dxp.pl/bitmap_converter/ 
.................... //------------------------------------------------------------------------------ 
....................  
.................... const unsigned char finalizado [64][16] = { 
.................... 0x00, 0x00, 0x00, 0x00, 0x00, 0x00, 0x00, 0x00, 0x00, 0x00, 0x00, 0x00, 0x00, 0x00, 0x00, 0x00, 
.................... 0x00, 0x00, 0x00, 0x00, 0x00, 0x00, 0x00, 0x00, 0x00, 0x00, 0x00, 0x00, 0x00, 0x00, 0x00, 0x00, 
.................... 0x00, 0x00, 0x00, 0x00, 0x00, 0x00, 0x00, 0x00, 0x00, 0x00, 0x00, 0x00, 0x00, 0x00, 0x00, 0x00, 
.................... 0x00, 0x00, 0x00, 0x00, 0x00, 0x00, 0x00, 0x00, 0x00, 0x00, 0x00, 0x00, 0x00, 0x00, 0x00, 0x00, 
.................... 0x00, 0x00, 0x00, 0x00, 0x00, 0x00, 0x00, 0x00, 0x00, 0x00, 0x00, 0x00, 0x00, 0x00, 0x00, 0x00, 
.................... 0x00, 0x00, 0x00, 0x00, 0x00, 0x00, 0x00, 0x00, 0x00, 0x00, 0x00, 0x00, 0x00, 0x00, 0x00, 0x00, 
.................... 0x00, 0x00, 0x00, 0x00, 0x00, 0x00, 0x00, 0x00, 0x00, 0x00, 0x00, 0x00, 0x00, 0x00, 0x00, 0x00, 
.................... 0x00, 0x00, 0x00, 0x00, 0x00, 0x00, 0x00, 0x00, 0x00, 0x00, 0x00, 0x00, 0x00, 0x00, 0x00, 0x00, 
.................... 0x00, 0x00, 0x00, 0x00, 0x00, 0x00, 0x00, 0x00, 0x00, 0x00, 0x00, 0x00, 0x00, 0x00, 0x00, 0x00, 
.................... 0x00, 0x00, 0x00, 0x00, 0x00, 0x00, 0x00, 0x00, 0x00, 0x00, 0x00, 0x00, 0x00, 0x00, 0x00, 0x00, 
.................... 0x00, 0x00, 0x00, 0x00, 0x00, 0x00, 0x00, 0x00, 0x00, 0x00, 0x00, 0x00, 0x00, 0x00, 0x00, 0x00, 
.................... 0x00, 0x00, 0x00, 0x00, 0x00, 0x00, 0x00, 0x00, 0x00, 0x00, 0x00, 0x00, 0x00, 0x00, 0x00, 0x00, 
.................... 0x00, 0x00, 0x00, 0x00, 0x00, 0x00, 0x00, 0x00, 0x00, 0x00, 0x00, 0x00, 0x00, 0x00, 0x00, 0x00, 
.................... 0x00, 0x00, 0x00, 0x00, 0x00, 0x00, 0x00, 0x00, 0x00, 0x00, 0x00, 0x00, 0x00, 0x00, 0x00, 0x00, 
.................... 0x00, 0x00, 0x00, 0x00, 0x00, 0x00, 0x00, 0x00, 0x00, 0x00, 0x00, 0x00, 0x00, 0x00, 0x00, 0x00, 
.................... 0x00, 0x01, 0xFF, 0x00, 0x00, 0x00, 0x00, 0x00, 0x00, 0x00, 0x00, 0x00, 0x00, 0x00, 0x00, 0x00, 
.................... 0x00, 0x0F, 0xFF, 0xE0, 0x00, 0x00, 0x00, 0x00, 0x00, 0x00, 0x00, 0x00, 0x00, 0x00, 0x00, 0x00, 
.................... 0x00, 0x3F, 0xFF, 0xF8, 0x00, 0x00, 0x00, 0x00, 0x00, 0x00, 0x00, 0x00, 0x00, 0x00, 0x00, 0x00, 
.................... 0x00, 0xFF, 0x01, 0xFE, 0x00, 0x00, 0x00, 0x00, 0x00, 0x00, 0x00, 0x00, 0x00, 0x00, 0x00, 0x00, 
.................... 0x01, 0xF8, 0x00, 0x1F, 0x00, 0x00, 0x00, 0x00, 0x00, 0x00, 0x00, 0x00, 0x00, 0x00, 0x00, 0x00, 
.................... 0x03, 0xE0, 0x00, 0x07, 0x80, 0x00, 0x00, 0x00, 0x00, 0x00, 0x00, 0x00, 0x00, 0x00, 0x00, 0x00, 
.................... 0x07, 0x80, 0x00, 0x03, 0xC0, 0x00, 0x00, 0x00, 0x00, 0x00, 0x00, 0x00, 0x00, 0x00, 0x00, 0x00, 
.................... 0x0F, 0x00, 0x00, 0x01, 0xE0, 0x00, 0x00, 0x00, 0x00, 0x00, 0x00, 0x00, 0x00, 0x00, 0x00, 0x00, 
.................... 0x1E, 0x00, 0x00, 0x00, 0xF0, 0x00, 0x00, 0x00, 0x00, 0x00, 0x00, 0x00, 0x00, 0x00, 0x00, 0x00, 
.................... 0x1C, 0x00, 0x00, 0x07, 0x70, 0x00, 0x00, 0x00, 0x00, 0x00, 0x00, 0x00, 0x00, 0x00, 0x00, 0x00, 
.................... 0x3C, 0x00, 0x00, 0x1E, 0x38, 0x00, 0x00, 0x00, 0x00, 0x00, 0x00, 0x00, 0x00, 0x00, 0x00, 0x00, 
.................... 0x38, 0x00, 0x00, 0x78, 0x38, 0x00, 0x00, 0x00, 0x00, 0x00, 0x00, 0x00, 0x00, 0x00, 0x00, 0x00, 
.................... 0x38, 0x00, 0x01, 0xF0, 0x3C, 0x00, 0x00, 0x00, 0x00, 0x00, 0x00, 0x00, 0x00, 0x00, 0x00, 0x00, 
.................... 0x70, 0x00, 0x07, 0xC0, 0x1C, 0x00, 0x00, 0x00, 0x00, 0x00, 0x00, 0x00, 0x00, 0x00, 0x00, 0x00, 
.................... 0x70, 0x00, 0x1F, 0x80, 0x1C, 0x00, 0x00, 0x00, 0x00, 0x00, 0x00, 0x00, 0x00, 0x00, 0x00, 0x00, 
.................... 0x70, 0x60, 0x3F, 0x00, 0x1C, 0x00, 0x00, 0x00, 0x00, 0x00, 0x00, 0x00, 0x00, 0x00, 0x00, 0x00, 
.................... 0x70, 0x78, 0x7E, 0x00, 0x1C, 0x00, 0x00, 0x00, 0x00, 0x00, 0x00, 0x00, 0x00, 0x00, 0x00, 0x00, 
.................... 0x70, 0x3C, 0xFC, 0x00, 0x1C, 0x00, 0x00, 0x00, 0x00, 0x00, 0x00, 0x00, 0x00, 0x00, 0x00, 0x00, 
.................... 0x70, 0x1F, 0xF8, 0x00, 0x1C, 0x00, 0x00, 0x00, 0x00, 0x00, 0x00, 0x00, 0x00, 0x00, 0x00, 0x00, 
.................... 0x38, 0x0F, 0xF0, 0x00, 0x3C, 0x00, 0x00, 0x00, 0x00, 0x00, 0x00, 0x00, 0x00, 0x00, 0x00, 0x00, 
.................... 0x38, 0x07, 0xF0, 0x00, 0x38, 0x00, 0x00, 0x00, 0x00, 0x00, 0x00, 0x00, 0x00, 0x00, 0x00, 0x00, 
.................... 0x38, 0x07, 0xE0, 0x00, 0x38, 0x00, 0x00, 0x00, 0x00, 0x00, 0x00, 0x00, 0x00, 0x00, 0x00, 0x00, 
.................... 0x1C, 0x03, 0xC0, 0x00, 0x70, 0x00, 0x00, 0x00, 0x00, 0x00, 0x00, 0x00, 0x00, 0x00, 0x00, 0x00, 
.................... 0x1E, 0x01, 0x80, 0x00, 0xF0, 0x00, 0x00, 0x00, 0x00, 0x00, 0x00, 0x00, 0x00, 0x00, 0x00, 0x00, 
.................... 0x0F, 0x00, 0x00, 0x01, 0xE0, 0x00, 0x00, 0x00, 0x00, 0x00, 0x00, 0x00, 0x00, 0x00, 0x00, 0x00, 
.................... 0x07, 0x80, 0x00, 0x03, 0xC0, 0x00, 0x00, 0x00, 0x00, 0x00, 0x00, 0x00, 0x00, 0x00, 0x00, 0x00, 
.................... 0x03, 0xC0, 0x00, 0x07, 0x80, 0x00, 0x00, 0x00, 0x00, 0x00, 0x00, 0x00, 0x00, 0x00, 0x00, 0x00, 
.................... 0x01, 0xF0, 0x00, 0x1F, 0x00, 0x00, 0x00, 0x00, 0x00, 0x00, 0x00, 0x00, 0x00, 0x00, 0x00, 0x00, 
.................... 0x00, 0xFE, 0x00, 0xFE, 0x00, 0x00, 0x00, 0x00, 0x00, 0x00, 0x00, 0x00, 0x00, 0x00, 0x00, 0x00, 
.................... 0x00, 0x3F, 0xFF, 0xF8, 0x00, 0x00, 0x00, 0x00, 0x00, 0x00, 0x00, 0x00, 0x00, 0x00, 0x00, 0x00, 
.................... 0x00, 0x0F, 0xFF, 0xE0, 0x00, 0x00, 0x00, 0x00, 0x00, 0x00, 0x00, 0x00, 0x00, 0x00, 0x00, 0x00, 
.................... 0x00, 0x01, 0xFF, 0x00, 0x00, 0x00, 0x00, 0x00, 0x00, 0x00, 0x00, 0x00, 0x00, 0x00, 0x00, 0x00, 
.................... 0x00, 0x00, 0x00, 0x00, 0x00, 0x00, 0x00, 0x00, 0x00, 0x00, 0x00, 0x00, 0x00, 0x00, 0x00, 0x00, 
.................... 0x00, 0x00, 0x00, 0x00, 0x00, 0x00, 0x00, 0x00, 0x00, 0x00, 0x00, 0x00, 0x00, 0x00, 0x00, 0x00, 
.................... 0x00, 0x00, 0x00, 0x00, 0x00, 0x00, 0x00, 0x00, 0x00, 0x00, 0x00, 0x00, 0x00, 0x00, 0x00, 0x00, 
.................... 0x00, 0x00, 0x00, 0x00, 0x00, 0x00, 0x00, 0x00, 0x00, 0x00, 0x00, 0x00, 0x00, 0x00, 0x00, 0x00, 
.................... 0x00, 0x00, 0x00, 0x00, 0x00, 0x00, 0x00, 0x00, 0x00, 0x00, 0x00, 0x00, 0x00, 0x00, 0x00, 0x00, 
.................... 0x00, 0x00, 0x00, 0x00, 0x00, 0x00, 0x00, 0x00, 0x00, 0x00, 0x00, 0x00, 0x00, 0x00, 0x00, 0x00, 
.................... 0x00, 0x00, 0x00, 0x00, 0x00, 0x00, 0x00, 0x00, 0x00, 0x00, 0x00, 0x00, 0x00, 0x00, 0x00, 0x00, 
.................... 0x00, 0x00, 0x00, 0x00, 0x00, 0x00, 0x00, 0x00, 0x00, 0x00, 0x00, 0x00, 0x00, 0x00, 0x00, 0x00, 
.................... 0x00, 0x00, 0x00, 0x00, 0x00, 0x00, 0x00, 0x00, 0x00, 0x00, 0x00, 0x00, 0x00, 0x00, 0x00, 0x00, 
.................... 0x00, 0x00, 0x00, 0x00, 0x00, 0x00, 0x00, 0x00, 0x00, 0x00, 0x00, 0x00, 0x00, 0x00, 0x00, 0x00, 
.................... 0x00, 0x00, 0x00, 0x00, 0x00, 0x00, 0x00, 0x00, 0x00, 0x00, 0x00, 0x00, 0x00, 0x00, 0x00, 0x00, 
.................... 0x00, 0x00, 0x00, 0x00, 0x00, 0x00, 0x00, 0x00, 0x00, 0x00, 0x00, 0x00, 0x00, 0x00, 0x00, 0x00, 
.................... 0x00, 0x00, 0x00, 0x00, 0x00, 0x00, 0x00, 0x00, 0x00, 0x00, 0x00, 0x00, 0x00, 0x00, 0x00, 0x00, 
.................... 0x00, 0x00, 0x00, 0x00, 0x00, 0x00, 0x00, 0x00, 0x00, 0x00, 0x00, 0x00, 0x00, 0x00, 0x00, 0x00, 
.................... 0x00, 0x00, 0x00, 0x00, 0x00, 0x00, 0x00, 0x00, 0x00, 0x00, 0x00, 0x00, 0x00, 0x00, 0x00, 0x00, 
.................... 0x00, 0x00, 0x00, 0x00, 0x00, 0x00, 0x00, 0x00, 0x00, 0x00, 0x00, 0x00, 0x00, 0x00, 0x00, 0x00, 
.................... 0x00, 0x00, 0x00, 0x00, 0x00, 0x00, 0x00, 0x00, 0x00, 0x00, 0x00, 0x00, 0x00, 0x00, 0x00, 0x00 
.................... }; 
.................... void glcd_finalizado() 
.................... {  
....................    char i,j;  
....................    signed char k;  
....................    for( i = 0 ; i < 64 ; i ++ )  
*
02992:  MOVLB  B
02994:  CLRF   x25
02996:  MOVF   x25,W
02998:  SUBLW  3F
0299A:  BNC   2A38
....................    {   
....................       for( j = 0 ; j < 16 ; j ++)  
0299C:  CLRF   x26
0299E:  MOVF   x26,W
029A0:  SUBLW  0F
029A2:  BNC   2A34
....................       {     
....................          for(k=7;k>-1;k--)  
029A4:  MOVLW  07
029A6:  MOVWF  x27
029A8:  MOVF   x27,W
029AA:  XORLW  80
029AC:  SUBLW  7F
029AE:  BC    2A30
....................          {       
....................             if( bit_test(finalizado[i][j] ,7-k ))  
029B0:  CLRF   x29
029B2:  MOVFF  B25,B28
029B6:  CLRF   x2B
029B8:  MOVLW  10
029BA:  MOVWF  x2A
029BC:  MOVLB  0
029BE:  CALL   1CFA
029C2:  MOVFF  02,B29
029C6:  MOVFF  01,B28
029CA:  MOVLB  B
029CC:  MOVF   x26,W
029CE:  ADDWF  01,W
029D0:  MOVWF  01
029D2:  MOVLW  00
029D4:  ADDWFC 02,W
029D6:  MOVWF  03
029D8:  MOVF   01,W
029DA:  MOVFF  FF2,B28
029DE:  BCF    FF2.7
029E0:  MOVFF  03,FF7
029E4:  MOVLB  0
029E6:  CALL   02D6
029EA:  MOVLB  B
029EC:  BTFSC  x28.7
029EE:  BSF    FF2.7
029F0:  MOVWF  x28
029F2:  MOVLW  07
029F4:  BSF    FD8.0
029F6:  SUBFWB x27,W
029F8:  MOVWF  x29
029FA:  MOVFF  B28,00
029FE:  MOVF   x29,W
02A00:  MOVWF  01
02A02:  BZ    2A0C
02A04:  BCF    FD8.0
02A06:  RRCF   00,F
02A08:  DECFSZ 01,F
02A0A:  BRA    2A04
02A0C:  BTFSS  00.0
02A0E:  BRA    2A2C
....................                glcd_pixel( j*8+k,i, ON );  
02A10:  MOVF   x26,W
02A12:  MULLW  08
02A14:  MOVF   FF3,W
02A16:  ADDWF  x27,W
02A18:  MOVWF  x28
02A1A:  MOVWF  x41
02A1C:  MOVFF  B25,B42
02A20:  MOVLW  01
02A22:  MOVWF  x43
02A24:  MOVLB  0
02A26:  CALL   1D56
02A2A:  MOVLB  B
02A2C:  DECF   x27,F
02A2E:  BRA    29A8
....................                  
....................          }   
02A30:  INCF   x26,F
02A32:  BRA    299E
....................       }  
02A34:  INCF   x25,F
02A36:  BRA    2996
....................    }  
02A38:  MOVLB  0
02A3A:  GOTO   69F6 (RETURN)
.................... }  
....................  
.................... #include <Interfaz.h> 
.................... //------------------------------------------------------------------------------ 
.................... // File generated by LCD Assistant 
.................... // http://en.radzio.dxp.pl/bitmap_converter/ 
.................... //------------------------------------------------------------------------------ 
....................  
.................... const unsigned char Interfaz [64][16] = { 
.................... 0xFF, 0xFF, 0xFF, 0xFF, 0xFF, 0xFF, 0xFF, 0xFF, 0xFF, 0xFF, 0xFF, 0xFF, 0xFF, 0xFF, 0xFF, 0xFF, 
.................... 0xFF, 0xFF, 0xFF, 0xFF, 0xFF, 0xFF, 0xFF, 0xFF, 0xFF, 0xFF, 0xFF, 0xFF, 0xFF, 0xFF, 0xFF, 0xFF, 
.................... 0xFF, 0xFF, 0xE0, 0x00, 0x00, 0x00, 0x00, 0x00, 0x00, 0x00, 0x00, 0x00, 0x00, 0x07, 0xFF, 0xFF, 
.................... 0xFF, 0xFF, 0x80, 0x00, 0x00, 0x00, 0x00, 0x00, 0x00, 0x00, 0x00, 0x00, 0x00, 0x01, 0xFF, 0xFF, 
.................... 0xFF, 0xFF, 0x00, 0x00, 0x00, 0x00, 0x00, 0x00, 0x00, 0x00, 0x00, 0x00, 0x00, 0x00, 0xFF, 0xFF, 
.................... 0xFF, 0xFF, 0x00, 0x00, 0x00, 0x00, 0x00, 0x00, 0x00, 0x00, 0x00, 0x00, 0x00, 0x00, 0xFF, 0xFF, 
.................... 0xFF, 0xFE, 0x00, 0x00, 0x00, 0x00, 0x00, 0x00, 0x00, 0x00, 0x00, 0x00, 0x00, 0x00, 0x7F, 0xFF, 
.................... 0xFF, 0xFE, 0x0C, 0x19, 0xF3, 0x1B, 0x7E, 0xF9, 0xF3, 0x7C, 0x63, 0x1B, 0xE1, 0xF0, 0x7F, 0xFF, 
.................... 0xFF, 0xFE, 0x0E, 0x3B, 0x1B, 0x9B, 0x19, 0x8D, 0x9B, 0x0C, 0x63, 0x9B, 0x33, 0x18, 0x7F, 0xFF, 
.................... 0xFF, 0xFE, 0x0E, 0x3B, 0x1B, 0x9B, 0x19, 0x8D, 0x9B, 0x18, 0xF3, 0x9B, 0x1B, 0x18, 0x7F, 0xFF, 
.................... 0xFF, 0xFE, 0x0F, 0x7B, 0x1B, 0x5B, 0x19, 0x8D, 0xF3, 0x18, 0x93, 0x5B, 0x1B, 0x18, 0x7F, 0xFF, 
.................... 0xFF, 0xFE, 0x0D, 0x5B, 0x1B, 0x5B, 0x19, 0x8D, 0xB3, 0x31, 0x9B, 0x5B, 0x1B, 0x18, 0x7F, 0xFF, 
.................... 0xFF, 0xFE, 0x0D, 0xDB, 0x1B, 0x3B, 0x19, 0x8D, 0x9B, 0x31, 0xFB, 0x3B, 0x1B, 0x18, 0x7F, 0xFF, 
.................... 0xFF, 0xFE, 0x0C, 0x9B, 0x1B, 0x3B, 0x19, 0x8D, 0x9B, 0x61, 0x9B, 0x3B, 0x33, 0x18, 0x7F, 0xFF, 
.................... 0xFF, 0xFE, 0x0C, 0x99, 0xF3, 0x1B, 0x18, 0xF9, 0x9B, 0x7D, 0x9B, 0x1B, 0xE1, 0xF0, 0x7F, 0xFF, 
.................... 0xFF, 0xFE, 0x00, 0x00, 0x00, 0x00, 0x00, 0x00, 0x00, 0x00, 0x00, 0x00, 0x00, 0x00, 0x7F, 0xFF, 
.................... 0xFF, 0xFF, 0x00, 0x00, 0x00, 0x00, 0x00, 0x00, 0x00, 0x00, 0x00, 0x00, 0x00, 0x00, 0xFF, 0xFF, 
.................... 0xFF, 0xFF, 0x00, 0x00, 0x00, 0x00, 0x00, 0x00, 0x00, 0x00, 0x00, 0x00, 0x00, 0x00, 0xFF, 0xFF, 
.................... 0xFF, 0xFF, 0x80, 0x00, 0x00, 0x00, 0x00, 0x00, 0x00, 0x00, 0x00, 0x00, 0x00, 0x01, 0xFF, 0xFF, 
.................... 0xFF, 0xFF, 0xE0, 0x00, 0x00, 0x00, 0x00, 0x00, 0x00, 0x00, 0x00, 0x00, 0x00, 0x07, 0xFF, 0xFF, 
.................... 0xFF, 0xFF, 0xFF, 0xFF, 0xFF, 0xFF, 0xFF, 0xFF, 0xFF, 0xFF, 0xFF, 0xFF, 0xFF, 0xFF, 0xFF, 0xFF, 
.................... 0xFF, 0xFF, 0xFF, 0xFF, 0xFF, 0xFF, 0xFF, 0xFF, 0xFF, 0xFF, 0xFF, 0xFF, 0xFF, 0xFF, 0xFF, 0xFF, 
.................... 0xF8, 0x00, 0x00, 0x00, 0x00, 0x00, 0x00, 0x7F, 0xC0, 0x00, 0x00, 0x00, 0x00, 0x00, 0x00, 0x3F, 
.................... 0xF0, 0xFE, 0x00, 0x00, 0x00, 0x00, 0x00, 0x1F, 0x00, 0x00, 0x00, 0x00, 0x00, 0x00, 0x00, 0x0F, 
.................... 0xE1, 0xFF, 0x00, 0x00, 0x00, 0x00, 0x00, 0x0E, 0x00, 0x00, 0x00, 0x00, 0x00, 0x00, 0x00, 0x07, 
.................... 0xC1, 0xFF, 0x00, 0x00, 0x00, 0x00, 0x00, 0x0E, 0x7F, 0x00, 0x00, 0x00, 0x00, 0x00, 0x00, 0x07, 
.................... 0xFF, 0xFF, 0x00, 0x00, 0x00, 0x00, 0x00, 0x04, 0x21, 0x40, 0x00, 0x00, 0x00, 0x00, 0x00, 0x03, 
.................... 0xFF, 0xFF, 0x00, 0x00, 0x00, 0x00, 0x00, 0x04, 0x10, 0x00, 0x00, 0x00, 0x00, 0x00, 0x00, 0x03, 
.................... 0xFF, 0xFF, 0x00, 0x00, 0x00, 0x00, 0x00, 0x04, 0x08, 0x00, 0x00, 0x00, 0x00, 0x00, 0x00, 0x03, 
.................... 0xFF, 0xFF, 0x00, 0x00, 0x00, 0x00, 0x00, 0x04, 0x10, 0x00, 0x00, 0x00, 0x00, 0x00, 0x00, 0x03, 
.................... 0xC1, 0xFF, 0x00, 0x00, 0x00, 0x00, 0x00, 0x04, 0x21, 0x40, 0x00, 0x00, 0x00, 0x00, 0x00, 0x03, 
.................... 0xE0, 0xAA, 0x00, 0x00, 0x00, 0x00, 0x00, 0x0E, 0x7F, 0x00, 0x00, 0x00, 0x00, 0x00, 0x00, 0x07, 
.................... 0xE0, 0x00, 0x00, 0x00, 0x00, 0x00, 0x00, 0x0E, 0x00, 0x00, 0x00, 0x00, 0x00, 0x00, 0x00, 0x07, 
.................... 0xF0, 0xAA, 0x00, 0x00, 0x00, 0x00, 0x00, 0x1F, 0x00, 0x00, 0x00, 0x00, 0x00, 0x00, 0x00, 0x0F, 
.................... 0xFC, 0x00, 0x00, 0x00, 0x00, 0x00, 0x00, 0x7F, 0xC0, 0x00, 0x00, 0x00, 0x00, 0x00, 0x00, 0x3F, 
.................... 0xFF, 0xFF, 0xFF, 0xFF, 0xFF, 0xFF, 0xFF, 0xFF, 0xFF, 0xFF, 0xFF, 0xFF, 0xFF, 0xFF, 0xFF, 0xFF, 
.................... 0xFC, 0x00, 0x00, 0x00, 0x00, 0x00, 0x00, 0x7F, 0xC0, 0x00, 0x00, 0x10, 0x00, 0x00, 0x00, 0x3F, 
.................... 0xF0, 0x70, 0x00, 0x00, 0x00, 0x00, 0x00, 0x1F, 0x1C, 0x00, 0x00, 0x10, 0x00, 0x00, 0x00, 0x0F, 
.................... 0xE0, 0xF8, 0x00, 0x00, 0x00, 0x00, 0x00, 0x0E, 0x7F, 0x00, 0x00, 0x10, 0x00, 0x00, 0x00, 0x07, 
.................... 0xE0, 0xF8, 0x00, 0x00, 0x00, 0x00, 0x00, 0x0E, 0x5F, 0x00, 0x00, 0x10, 0xE0, 0x00, 0x00, 0x07, 
.................... 0xC0, 0xF8, 0x00, 0x00, 0x00, 0x00, 0x00, 0x04, 0x7F, 0x00, 0x00, 0x11, 0xF0, 0x00, 0x00, 0x03, 
.................... 0xC0, 0x70, 0x00, 0x00, 0x00, 0x00, 0x00, 0x04, 0x7F, 0x20, 0x00, 0x11, 0xB1, 0x10, 0x00, 0x03, 
.................... 0xC7, 0x77, 0x00, 0x00, 0x00, 0x00, 0x00, 0x04, 0x1C, 0x00, 0x00, 0x11, 0x84, 0x80, 0x00, 0x03, 
.................... 0xC2, 0x72, 0x00, 0x00, 0x00, 0x00, 0x00, 0x04, 0x7F, 0x00, 0x00, 0x11, 0x92, 0x80, 0x00, 0x03, 
.................... 0xCF, 0xFF, 0x80, 0x00, 0x00, 0x00, 0x00, 0x04, 0x7F, 0x00, 0x00, 0x11, 0x84, 0x80, 0x00, 0x03, 
.................... 0xEF, 0xFF, 0x80, 0x00, 0x00, 0x00, 0x00, 0x0E, 0x3E, 0x20, 0x00, 0x13, 0xF1, 0x10, 0x00, 0x07, 
.................... 0xE0, 0x00, 0x00, 0x00, 0x00, 0x00, 0x00, 0x0E, 0x1C, 0x00, 0x00, 0x10, 0x00, 0x00, 0x00, 0x07, 
.................... 0xF0, 0x00, 0x00, 0x00, 0x00, 0x00, 0x00, 0x1F, 0x00, 0x00, 0x00, 0x10, 0x00, 0x00, 0x00, 0x0F, 
.................... 0xFC, 0x00, 0x00, 0x00, 0x00, 0x00, 0x00, 0x7F, 0xC0, 0x00, 0x00, 0x10, 0x00, 0x00, 0x00, 0x3F, 
.................... 0xFF, 0xFF, 0xFF, 0xFF, 0xFF, 0xFF, 0xFF, 0xFF, 0xFF, 0xFF, 0xFF, 0xFF, 0xFF, 0xFF, 0xFF, 0xFF, 
.................... 0xFC, 0x00, 0x00, 0x00, 0x00, 0x00, 0x00, 0x7F, 0xC0, 0x00, 0x00, 0x00, 0x00, 0x00, 0x00, 0x3F, 
.................... 0xF0, 0x38, 0x00, 0x00, 0x00, 0x00, 0x00, 0x1F, 0x36, 0xC0, 0x00, 0x00, 0x00, 0x00, 0x00, 0x0F, 
.................... 0xE2, 0x10, 0x00, 0x00, 0x00, 0x00, 0x00, 0x0E, 0x7F, 0xE0, 0x00, 0x00, 0x00, 0x00, 0x00, 0x07, 
.................... 0xE3, 0x18, 0x00, 0x00, 0x00, 0x00, 0x00, 0x0E, 0x7F, 0xE0, 0x00, 0x00, 0x00, 0x00, 0x00, 0x07, 
.................... 0xC7, 0x90, 0x00, 0x00, 0x00, 0x00, 0x00, 0x04, 0x60, 0x20, 0x00, 0x00, 0x00, 0x00, 0x00, 0x03, 
.................... 0xCF, 0xD8, 0x00, 0x00, 0x00, 0x00, 0x00, 0x04, 0x62, 0xA0, 0x00, 0x00, 0x00, 0x00, 0x00, 0x03, 
.................... 0xCF, 0xD0, 0x00, 0x00, 0x00, 0x00, 0x00, 0x04, 0x60, 0x20, 0x00, 0x00, 0x00, 0x00, 0x00, 0x03, 
.................... 0xCF, 0xD8, 0x00, 0x00, 0x00, 0x00, 0x00, 0x04, 0x6A, 0xA0, 0x00, 0x00, 0x00, 0x00, 0x00, 0x03, 
.................... 0xED, 0xD0, 0x00, 0x00, 0x00, 0x00, 0x00, 0x0E, 0x60, 0x20, 0x00, 0x00, 0x00, 0x00, 0x00, 0x07, 
.................... 0xE7, 0xB8, 0x00, 0x00, 0x00, 0x00, 0x00, 0x0E, 0x7F, 0xE0, 0x00, 0x00, 0x00, 0x00, 0x00, 0x07, 
.................... 0xF0, 0x00, 0x00, 0x00, 0x00, 0x00, 0x00, 0x1F, 0x00, 0x00, 0x00, 0x00, 0x00, 0x00, 0x00, 0x0F, 
.................... 0xFC, 0x00, 0x00, 0x00, 0x00, 0x00, 0x00, 0x7F, 0xC0, 0x00, 0x00, 0x00, 0x00, 0x00, 0x00, 0x3F, 
.................... 0xFF, 0xFF, 0xFF, 0xFF, 0xFF, 0xFF, 0xFF, 0xFF, 0xFF, 0xFF, 0xFF, 0xFF, 0xFF, 0xFF, 0xFF, 0xFF, 
.................... 0xFF, 0xFF, 0xFF, 0xFF, 0xFF, 0xFF, 0xFF, 0xFF, 0xFF, 0xFF, 0xFF, 0xFF, 0xFF, 0xFF, 0xFF, 0xFF 
.................... }; 
.................... void glcd_interfaz() 
.................... {  
....................    char i,j;  
....................    signed char k;  
....................    for( i = 0 ; i < 64 ; i ++ )  
*
04194:  MOVLB  B
04196:  CLRF   x25
04198:  MOVF   x25,W
0419A:  SUBLW  3F
0419C:  BNC   423A
....................    {   
....................       for( j = 0 ; j < 16 ; j ++)  
0419E:  CLRF   x26
041A0:  MOVF   x26,W
041A2:  SUBLW  0F
041A4:  BNC   4236
....................       {     
....................          for(k=7;k>-1;k--)  
041A6:  MOVLW  07
041A8:  MOVWF  x27
041AA:  MOVF   x27,W
041AC:  XORLW  80
041AE:  SUBLW  7F
041B0:  BC    4232
....................          {       
....................             if( bit_test(Interfaz[i][j] ,7-k ))  
041B2:  CLRF   x29
041B4:  MOVFF  B25,B28
041B8:  CLRF   x2B
041BA:  MOVLW  10
041BC:  MOVWF  x2A
041BE:  MOVLB  0
041C0:  CALL   1CFA
041C4:  MOVFF  02,B29
041C8:  MOVFF  01,B28
041CC:  MOVLB  B
041CE:  MOVF   x26,W
041D0:  ADDWF  01,W
041D2:  MOVWF  01
041D4:  MOVLW  00
041D6:  ADDWFC 02,W
041D8:  MOVWF  03
041DA:  MOVF   01,W
041DC:  MOVFF  FF2,B28
041E0:  BCF    FF2.7
041E2:  MOVFF  03,FF7
041E6:  MOVLB  0
041E8:  CALL   06EE
041EC:  MOVLB  B
041EE:  BTFSC  x28.7
041F0:  BSF    FF2.7
041F2:  MOVWF  x28
041F4:  MOVLW  07
041F6:  BSF    FD8.0
041F8:  SUBFWB x27,W
041FA:  MOVWF  x29
041FC:  MOVFF  B28,00
04200:  MOVF   x29,W
04202:  MOVWF  01
04204:  BZ    420E
04206:  BCF    FD8.0
04208:  RRCF   00,F
0420A:  DECFSZ 01,F
0420C:  BRA    4206
0420E:  BTFSS  00.0
04210:  BRA    422E
....................                glcd_pixel( j*8+k,i, ON );  
04212:  MOVF   x26,W
04214:  MULLW  08
04216:  MOVF   FF3,W
04218:  ADDWF  x27,W
0421A:  MOVWF  x28
0421C:  MOVWF  x41
0421E:  MOVFF  B25,B42
04222:  MOVLW  01
04224:  MOVWF  x43
04226:  MOVLB  0
04228:  CALL   1D56
0422C:  MOVLB  B
0422E:  DECF   x27,F
04230:  BRA    41AA
....................                  
....................          }   
04232:  INCF   x26,F
04234:  BRA    41A0
....................       }  
04236:  INCF   x25,F
04238:  BRA    4198
....................    }  
0423A:  MOVLB  0
0423C:  RETURN 0
.................... }  
....................  
.................... #include <Portada.h> 
.................... //------------------------------------------------------------------------------ 
.................... // File generated by LCD Assistant 
.................... // http://en.radzio.dxp.pl/bitmap_converter/ 
.................... //------------------------------------------------------------------------------ 
....................  
.................... const unsigned char PORTADA [64][16] = { 
.................... 0xFF, 0xFF, 0xFF, 0xFF, 0xFF, 0xFF, 0xFF, 0xFF, 0xFF, 0xFF, 0xFF, 0xFF, 0xFF, 0xFF, 0xFF, 0xFF, 
.................... 0xFF, 0xFF, 0xFF, 0xFF, 0xFF, 0xFF, 0xFF, 0xFF, 0xFF, 0xFF, 0xFF, 0xFF, 0xFF, 0xFF, 0xFF, 0xFF, 
.................... 0xFF, 0xFF, 0xFF, 0xFF, 0xFF, 0xFF, 0xFF, 0xFF, 0xFF, 0xFF, 0xFF, 0xFF, 0xFF, 0xFF, 0xFF, 0xFF, 
.................... 0xE0, 0x00, 0x00, 0x00, 0x00, 0x00, 0x00, 0x00, 0x00, 0x00, 0x00, 0x00, 0x00, 0x00, 0x00, 0x07, 
.................... 0xE0, 0x00, 0x00, 0x00, 0x00, 0x00, 0x00, 0x00, 0x00, 0x00, 0x00, 0x00, 0x00, 0x00, 0x00, 0x07, 
.................... 0xE0, 0x00, 0x00, 0x00, 0x00, 0x00, 0x00, 0x00, 0x00, 0x00, 0x00, 0x00, 0x00, 0x00, 0x00, 0x07, 
.................... 0xE0, 0x00, 0x00, 0x00, 0x00, 0x00, 0x00, 0x00, 0x00, 0x00, 0x00, 0x00, 0x00, 0x00, 0x00, 0x07, 
.................... 0xE0, 0x00, 0x00, 0x00, 0x00, 0x00, 0x00, 0x00, 0x00, 0x00, 0x00, 0x00, 0x00, 0x00, 0x00, 0x07, 
.................... 0xE0, 0x00, 0x00, 0x00, 0x00, 0x00, 0x00, 0x00, 0x00, 0x00, 0x00, 0x00, 0x00, 0x00, 0x00, 0x07, 
.................... 0xE0, 0x00, 0x00, 0x00, 0x00, 0x00, 0x00, 0x00, 0x00, 0x00, 0x00, 0x7F, 0xFF, 0xFF, 0xFF, 0xFF, 
.................... 0xE0, 0x00, 0x00, 0x00, 0x00, 0x00, 0x00, 0x00, 0x00, 0x00, 0x00, 0x80, 0x00, 0x00, 0x00, 0x0F, 
.................... 0xE0, 0x00, 0x00, 0x00, 0x00, 0x00, 0x00, 0x00, 0x00, 0x00, 0x01, 0x1F, 0x8F, 0x00, 0x00, 0x17, 
.................... 0xE0, 0x00, 0x00, 0x00, 0x00, 0x00, 0x00, 0x00, 0x00, 0x00, 0x02, 0x00, 0x1F, 0x3F, 0xFE, 0x27, 
.................... 0xE0, 0x00, 0x00, 0x00, 0x00, 0x00, 0x00, 0x00, 0x00, 0x00, 0x05, 0xFF, 0xDE, 0x40, 0x00, 0x47, 
.................... 0xE0, 0x04, 0x00, 0x00, 0x00, 0x00, 0x00, 0x00, 0x00, 0x00, 0x0B, 0x7F, 0xC0, 0x87, 0xF0, 0x87, 
.................... 0xE0, 0x06, 0x00, 0x0E, 0x67, 0x3F, 0x7D, 0x83, 0x1C, 0x00, 0x17, 0xFF, 0xE1, 0x08, 0x01, 0x07, 
.................... 0xE0, 0x07, 0x00, 0x19, 0x6C, 0x8C, 0x61, 0xC7, 0x1C, 0x00, 0x2F, 0xFF, 0x3E, 0x10, 0x02, 0x07, 
.................... 0xE0, 0x07, 0x80, 0x18, 0x6C, 0x0C, 0x61, 0xC7, 0x36, 0x00, 0x5F, 0xFF, 0x80, 0x21, 0x84, 0x07, 
.................... 0xE0, 0x07, 0x80, 0x1E, 0x6F, 0x0C, 0x7D, 0xEF, 0x36, 0x00, 0xBF, 0xFC, 0xFF, 0xC2, 0x08, 0x07, 
.................... 0xE0, 0x07, 0xC0, 0x0F, 0x67, 0x8C, 0x61, 0xAB, 0x36, 0x01, 0x7F, 0xFE, 0x00, 0x04, 0x10, 0x07, 
.................... 0xE0, 0x0F, 0xE0, 0x03, 0x61, 0x8C, 0x61, 0xBB, 0x7F, 0x02, 0xFF, 0xF3, 0xFF, 0xF8, 0x20, 0x07, 
.................... 0xE0, 0x0F, 0xE0, 0x13, 0x69, 0x8C, 0x61, 0x93, 0x63, 0x05, 0xFF, 0xF8, 0x00, 0x00, 0x40, 0x07, 
.................... 0xE0, 0x0F, 0xF0, 0x0E, 0x67, 0x0C, 0x7D, 0x93, 0x63, 0x09, 0xFF, 0xCF, 0xFF, 0xF8, 0x80, 0x07, 
.................... 0xE0, 0x1F, 0xF8, 0x00, 0x00, 0x00, 0x00, 0x00, 0x00, 0x10, 0x00, 0x00, 0x00, 0x01, 0x00, 0x07, 
.................... 0xE0, 0x1F, 0xF8, 0x00, 0x00, 0x00, 0x00, 0x00, 0x00, 0x3F, 0xFF, 0xFF, 0xFF, 0xFE, 0x00, 0x07, 
.................... 0xE0, 0x3F, 0xFC, 0x00, 0x00, 0x00, 0x00, 0x00, 0x00, 0x00, 0x00, 0x00, 0x00, 0x00, 0x00, 0x07, 
.................... 0xE0, 0x7F, 0xFC, 0x00, 0x00, 0x00, 0x00, 0x00, 0x00, 0x00, 0x00, 0x00, 0x00, 0x00, 0x00, 0x07, 
.................... 0xE0, 0xFF, 0xFE, 0x00, 0x00, 0x00, 0x00, 0x00, 0x00, 0x00, 0x00, 0x00, 0x00, 0x00, 0x00, 0x07, 
.................... 0xE0, 0xFF, 0xFE, 0x00, 0x00, 0x00, 0x00, 0x00, 0x00, 0x00, 0x00, 0x00, 0x00, 0x00, 0x00, 0x07, 
.................... 0xE1, 0xFF, 0xFF, 0x00, 0x00, 0x00, 0x00, 0x00, 0x00, 0x00, 0x00, 0x00, 0x00, 0x00, 0x00, 0x07, 
.................... 0xE1, 0xFF, 0xFF, 0x0F, 0x9E, 0x3E, 0x31, 0x8F, 0x8C, 0x1B, 0x7E, 0x70, 0xF8, 0x7C, 0x7C, 0x07, 
.................... 0xE1, 0xFF, 0xFF, 0x0C, 0x31, 0x63, 0x39, 0x98, 0xCE, 0x3B, 0x06, 0x70, 0xCC, 0xC6, 0x66, 0x07, 
.................... 0xE1, 0xFF, 0xFF, 0x0C, 0x30, 0x63, 0x39, 0x98, 0xCE, 0x3B, 0x0C, 0xD8, 0xCC, 0xC6, 0x66, 0x07, 
.................... 0xE1, 0xFF, 0xFF, 0x0F, 0xB0, 0x63, 0x35, 0x98, 0xCF, 0x7B, 0x18, 0xD8, 0xCC, 0xC6, 0x7C, 0x07, 
.................... 0xE0, 0xEF, 0xFE, 0x0C, 0x30, 0x63, 0x35, 0x98, 0xCD, 0x5B, 0x18, 0xD8, 0xCC, 0xC6, 0x6C, 0x07, 
.................... 0xE0, 0xE7, 0xFE, 0x0C, 0x30, 0x63, 0x33, 0x98, 0xCD, 0xDB, 0x31, 0xFC, 0xCC, 0xC6, 0x66, 0x07, 
.................... 0xE0, 0x7F, 0xFC, 0x0C, 0x31, 0x63, 0x33, 0x98, 0xCC, 0x9B, 0x61, 0x8C, 0xCC, 0xC6, 0x66, 0x07, 
.................... 0xE0, 0x3F, 0xF8, 0x0F, 0x9E, 0x3E, 0x31, 0x8F, 0x8C, 0x9B, 0x7F, 0x8C, 0xF8, 0x7C, 0x66, 0x07, 
.................... 0xE0, 0x1F, 0xF0, 0x00, 0x00, 0x00, 0x00, 0x00, 0x00, 0x00, 0x00, 0x00, 0x00, 0x00, 0x00, 0x07, 
.................... 0xE0, 0x07, 0xC0, 0x00, 0x00, 0x00, 0x00, 0x00, 0x00, 0x00, 0x00, 0x00, 0x00, 0x00, 0x00, 0x07, 
.................... 0xE0, 0x00, 0x00, 0x00, 0x00, 0x00, 0x00, 0x00, 0x00, 0x00, 0x00, 0x00, 0x00, 0x00, 0x00, 0x07, 
.................... 0xE0, 0x00, 0x00, 0x00, 0x00, 0x00, 0x00, 0x00, 0x00, 0x00, 0x00, 0x00, 0x00, 0x00, 0x00, 0x07, 
.................... 0xE0, 0x00, 0x00, 0x00, 0x00, 0x00, 0x00, 0x00, 0x00, 0x00, 0x00, 0x00, 0x00, 0x00, 0x00, 0x07, 
.................... 0xE0, 0x00, 0x00, 0x08, 0x00, 0x00, 0x00, 0x00, 0x00, 0x00, 0x00, 0x00, 0x00, 0x00, 0x00, 0x07, 
.................... 0xE0, 0x00, 0x00, 0x0C, 0x00, 0x00, 0x00, 0x00, 0x00, 0x00, 0x00, 0xE0, 0x30, 0x00, 0x00, 0x07, 
.................... 0xE0, 0x00, 0x00, 0x06, 0x00, 0x00, 0x00, 0x07, 0xFF, 0x00, 0x00, 0x70, 0x63, 0x00, 0x00, 0x07, 
.................... 0xE0, 0x00, 0x00, 0x07, 0x00, 0x00, 0x00, 0xFF, 0xFF, 0xF0, 0x00, 0x38, 0xC7, 0x00, 0x00, 0x07, 
.................... 0xE0, 0x00, 0x00, 0x03, 0x00, 0xE0, 0x03, 0x7F, 0xFF, 0xEC, 0x00, 0x1D, 0xCE, 0x00, 0x00, 0x07, 
.................... 0xE0, 0x00, 0x00, 0x03, 0x83, 0xC0, 0x0E, 0x3F, 0xFF, 0xE3, 0x80, 0x1D, 0x8C, 0x00, 0x00, 0x07, 
.................... 0xE0, 0x00, 0x00, 0x01, 0xC7, 0x80, 0x30, 0x0F, 0xFF, 0x80, 0xC0, 0x0F, 0x9C, 0x00, 0x00, 0x07, 
.................... 0xE0, 0x00, 0xE0, 0x01, 0xCF, 0x00, 0x60, 0x0D, 0xF1, 0x84, 0x20, 0x0F, 0xB8, 0x00, 0x00, 0x07, 
.................... 0xE0, 0x00, 0x71, 0xC1, 0xEF, 0x01, 0x80, 0x00, 0x00, 0x00, 0xB8, 0x07, 0xF8, 0x00, 0x60, 0x37, 
.................... 0xE0, 0x00, 0x3B, 0x81, 0xFE, 0x03, 0x30, 0x00, 0x00, 0x02, 0x3C, 0x07, 0xF8, 0x00, 0x38, 0x77, 
.................... 0xE0, 0x00, 0x3F, 0x01, 0xFE, 0x07, 0xE0, 0xB8, 0x00, 0x06, 0x7E, 0x07, 0xF8, 0x00, 0x1C, 0x67, 
.................... 0xF9, 0x86, 0x1E, 0x01, 0xFC, 0x06, 0x8C, 0x3E, 0x00, 0x69, 0xFE, 0x07, 0xF0, 0x38, 0x7E, 0xC7, 
.................... 0xFD, 0xCE, 0x1E, 0x48, 0xFC, 0x0F, 0xEB, 0x7F, 0x00, 0x67, 0xFF, 0x03, 0xF0, 0x1C, 0xCF, 0xC7, 
.................... 0xEC, 0xFC, 0x1E, 0x78, 0xF8, 0x1F, 0xD3, 0x7F, 0x01, 0x0F, 0xFF, 0x83, 0xF0, 0x07, 0x87, 0x87, 
.................... 0xEC, 0x78, 0x1E, 0x78, 0xF8, 0x1F, 0xFC, 0xFF, 0x03, 0xBF, 0xFF, 0x83, 0xF1, 0xE3, 0x07, 0xC7, 
.................... 0xFF, 0xFF, 0xFF, 0xFF, 0xF8, 0x3F, 0xF6, 0x3E, 0x03, 0xBF, 0xFF, 0xC3, 0xFF, 0xFF, 0xFF, 0xFF, 
.................... 0xFF, 0xFF, 0xFF, 0xFF, 0xF8, 0x3F, 0xFF, 0x3C, 0x07, 0xBF, 0xFF, 0xC3, 0xFF, 0xFF, 0xFF, 0xFF, 
.................... 0xFF, 0xFF, 0xFF, 0xFF, 0xF8, 0x7F, 0xBB, 0xF8, 0x0F, 0xB7, 0x3F, 0xE3, 0xFF, 0xFF, 0xFF, 0xFF, 
.................... 0xFF, 0xFF, 0xFF, 0xFF, 0xFF, 0xFF, 0xFF, 0xFF, 0xFF, 0xFF, 0xFF, 0xFF, 0xFF, 0xFF, 0xFF, 0xFF, 
.................... 0xFF, 0xFF, 0xFF, 0xFF, 0xFF, 0xFF, 0xFF, 0xFF, 0xFF, 0xFF, 0xFF, 0xFF, 0xFF, 0xFF, 0xFF, 0xFF, 
.................... 0xFF, 0xFF, 0xFF, 0xFF, 0xFF, 0xFF, 0xFF, 0xFF, 0xFF, 0xFF, 0xFF, 0xFF, 0xFF, 0xFF, 0xFF, 0xFF 
.................... }; 
....................  
.................... void glcd_portada() 
.................... {  
....................    char i,j;  
....................    signed char k;  
....................    for( i = 0 ; i < 64 ; i ++ )  
*
01E42:  MOVLB  B
01E44:  CLRF   x25
01E46:  MOVF   x25,W
01E48:  SUBLW  3F
01E4A:  BNC   1EE4
....................    {   
....................       for( j = 0 ; j < 16 ; j ++)  
01E4C:  CLRF   x26
01E4E:  MOVF   x26,W
01E50:  SUBLW  0F
01E52:  BNC   1EE0
....................       {     
....................          for(k=7;k>-1;k--)  
01E54:  MOVLW  07
01E56:  MOVWF  x27
01E58:  MOVF   x27,W
01E5A:  XORLW  80
01E5C:  SUBLW  7F
01E5E:  BC    1EDC
....................          {       
....................             if( bit_test(PORTADA[i][j] ,7-k ))  
01E60:  CLRF   x29
01E62:  MOVFF  B25,B28
01E66:  CLRF   x2B
01E68:  MOVLW  10
01E6A:  MOVWF  x2A
01E6C:  MOVLB  0
01E6E:  RCALL  1CFA
01E70:  MOVFF  02,B29
01E74:  MOVFF  01,B28
01E78:  MOVLB  B
01E7A:  MOVF   x26,W
01E7C:  ADDWF  01,W
01E7E:  MOVWF  01
01E80:  MOVLW  00
01E82:  ADDWFC 02,W
01E84:  MOVWF  03
01E86:  MOVF   01,W
01E88:  MOVFF  FF2,B28
01E8C:  BCF    FF2.7
01E8E:  MOVFF  03,FF7
01E92:  MOVLB  0
01E94:  CALL   0B06
01E98:  MOVLB  B
01E9A:  BTFSC  x28.7
01E9C:  BSF    FF2.7
01E9E:  MOVWF  x28
01EA0:  MOVLW  07
01EA2:  BSF    FD8.0
01EA4:  SUBFWB x27,W
01EA6:  MOVWF  x29
01EA8:  MOVFF  B28,00
01EAC:  MOVF   x29,W
01EAE:  MOVWF  01
01EB0:  BZ    1EBA
01EB2:  BCF    FD8.0
01EB4:  RRCF   00,F
01EB6:  DECFSZ 01,F
01EB8:  BRA    1EB2
01EBA:  BTFSS  00.0
01EBC:  BRA    1ED8
....................                glcd_pixel( j*8+k,i, ON );  
01EBE:  MOVF   x26,W
01EC0:  MULLW  08
01EC2:  MOVF   FF3,W
01EC4:  ADDWF  x27,W
01EC6:  MOVWF  x28
01EC8:  MOVWF  x41
01ECA:  MOVFF  B25,B42
01ECE:  MOVLW  01
01ED0:  MOVWF  x43
01ED2:  MOVLB  0
01ED4:  RCALL  1D56
01ED6:  MOVLB  B
01ED8:  DECF   x27,F
01EDA:  BRA    1E58
....................                  
....................          }   
01EDC:  INCF   x26,F
01EDE:  BRA    1E4E
....................       }  
01EE0:  INCF   x25,F
01EE2:  BRA    1E46
....................    }  
01EE4:  MOVLB  0
01EE6:  GOTO   5228 (RETURN)
.................... }  
....................  
.................... #include <DataAsist.h> 
.................... //------------------------------------------------------------------------------ 
.................... // File generated by LCD Assistant 
.................... // http://en.radzio.dxp.pl/bitmap_converter/ 
.................... //------------------------------------------------------------------------------ 
....................  
.................... const unsigned char RDATA [64][16] = { 
.................... 0xFF, 0xFF, 0xFF, 0xFF, 0xFF, 0xFF, 0xFF, 0xFF, 0xFF, 0xFF, 0xFF, 0xFF, 0xFF, 0xFF, 0xFF, 0xFF, 
.................... 0xF8, 0x00, 0x00, 0x00, 0x00, 0x00, 0x00, 0x00, 0x00, 0x00, 0x00, 0x00, 0x00, 0x00, 0x00, 0x1F, 
.................... 0xE0, 0x00, 0x00, 0x00, 0x00, 0x00, 0x00, 0x00, 0x00, 0x00, 0x00, 0x00, 0x00, 0x00, 0x00, 0x07, 
.................... 0xC0, 0x00, 0x00, 0x00, 0x00, 0x00, 0x00, 0x00, 0x00, 0x00, 0x00, 0x00, 0x00, 0x00, 0x00, 0x03, 
.................... 0xC0, 0x00, 0x00, 0x00, 0x00, 0x00, 0x00, 0x00, 0x00, 0x00, 0x00, 0x00, 0x00, 0x00, 0x00, 0x03, 
.................... 0x80, 0x00, 0x00, 0x00, 0x00, 0x00, 0x00, 0x00, 0x00, 0x00, 0x00, 0x00, 0x00, 0x00, 0x00, 0x01, 
.................... 0x80, 0x00, 0x00, 0x00, 0x00, 0x00, 0x00, 0x00, 0x00, 0x00, 0x00, 0x00, 0x00, 0x00, 0x00, 0x01, 
.................... 0x80, 0x00, 0x00, 0x00, 0x00, 0x00, 0x00, 0x00, 0x00, 0x00, 0x00, 0x00, 0x00, 0x00, 0x00, 0x01, 
.................... 0x80, 0x00, 0x00, 0x00, 0x00, 0x00, 0x00, 0x00, 0x00, 0x00, 0x00, 0x00, 0x00, 0x00, 0x00, 0x01, 
.................... 0x80, 0x00, 0x00, 0x00, 0x00, 0x00, 0x00, 0x00, 0x00, 0x00, 0x00, 0x00, 0x00, 0x00, 0x00, 0x03, 
.................... 0xC0, 0x00, 0x00, 0x00, 0x00, 0x00, 0x00, 0x00, 0x00, 0x00, 0x00, 0x00, 0x00, 0x00, 0x00, 0x03, 
.................... 0xC0, 0x00, 0x00, 0x00, 0x00, 0x00, 0x00, 0x00, 0x00, 0x00, 0x00, 0x00, 0x00, 0x00, 0x00, 0x03, 
.................... 0xE0, 0x00, 0x00, 0x00, 0x00, 0x00, 0x00, 0x00, 0x00, 0x00, 0x00, 0x00, 0x00, 0x00, 0x00, 0x07, 
.................... 0xF8, 0x00, 0x00, 0x00, 0x00, 0x00, 0x00, 0x00, 0x00, 0x00, 0x00, 0x00, 0x00, 0x00, 0x00, 0x3F, 
.................... 0xFF, 0xFF, 0xFF, 0xFF, 0xFF, 0xFF, 0xFF, 0xFF, 0xFF, 0xFF, 0xFF, 0xFF, 0xFF, 0xFF, 0xFF, 0xFF, 
.................... 0xF8, 0x00, 0x00, 0x00, 0x00, 0x00, 0x00, 0x7F, 0xC0, 0x00, 0x00, 0x00, 0x00, 0x00, 0x00, 0x3F, 
.................... 0xF0, 0xFE, 0x00, 0x00, 0x00, 0x00, 0x00, 0x1F, 0x00, 0x00, 0x00, 0x00, 0x00, 0x00, 0x00, 0x0F, 
.................... 0xE1, 0xFF, 0x00, 0x00, 0x00, 0x00, 0x00, 0x0E, 0x00, 0x00, 0x00, 0x00, 0x00, 0x00, 0x00, 0x07, 
.................... 0xC1, 0xFF, 0x00, 0x00, 0x00, 0x00, 0x00, 0x0E, 0x3F, 0x80, 0x00, 0x00, 0x00, 0x00, 0x00, 0x07, 
.................... 0xFF, 0xFF, 0x00, 0x00, 0x00, 0x00, 0x00, 0x04, 0x10, 0xA0, 0x00, 0x00, 0x00, 0x00, 0x00, 0x03, 
.................... 0xFF, 0xFF, 0x00, 0x00, 0x00, 0x00, 0x00, 0x04, 0x08, 0x00, 0x00, 0x00, 0x00, 0x00, 0x00, 0x03, 
.................... 0xFF, 0xFF, 0x00, 0x00, 0x00, 0x00, 0x00, 0x04, 0x04, 0x00, 0x00, 0x00, 0x00, 0x00, 0x00, 0x03, 
.................... 0xFF, 0xFF, 0x00, 0x00, 0x00, 0x00, 0x00, 0x04, 0x08, 0x00, 0x00, 0x00, 0x00, 0x00, 0x00, 0x03, 
.................... 0xC1, 0xFF, 0x00, 0x00, 0x00, 0x00, 0x00, 0x04, 0x10, 0xA0, 0x00, 0x00, 0x00, 0x00, 0x00, 0x03, 
.................... 0xE0, 0xAA, 0x00, 0x00, 0x00, 0x00, 0x00, 0x0E, 0x3F, 0x80, 0x00, 0x00, 0x00, 0x00, 0x00, 0x07, 
.................... 0xE0, 0x00, 0x00, 0x00, 0x00, 0x00, 0x00, 0x0E, 0x00, 0x00, 0x00, 0x00, 0x00, 0x00, 0x00, 0x07, 
.................... 0xF0, 0xAA, 0x00, 0x00, 0x00, 0x00, 0x00, 0x1F, 0x00, 0x00, 0x00, 0x00, 0x00, 0x00, 0x00, 0x0F, 
.................... 0xFC, 0x00, 0x00, 0x00, 0x00, 0x00, 0x00, 0x7F, 0xC0, 0x00, 0x00, 0x00, 0x00, 0x00, 0x00, 0x3F, 
.................... 0xFF, 0xFF, 0xFF, 0xFF, 0xFF, 0xFF, 0xFF, 0xFF, 0xFF, 0xFF, 0xFF, 0xFF, 0xFF, 0xFF, 0xFF, 0xFF, 
.................... 0xFC, 0x00, 0x00, 0x00, 0x00, 0x00, 0x00, 0x7F, 0xC0, 0x00, 0x00, 0x00, 0x00, 0x00, 0x00, 0x3F, 
.................... 0xF0, 0x70, 0x00, 0x00, 0x00, 0x00, 0x00, 0x1F, 0x00, 0x00, 0x00, 0x00, 0x00, 0x00, 0x00, 0x0F, 
.................... 0xE0, 0xF8, 0x00, 0x00, 0x00, 0x00, 0x00, 0x0E, 0x6D, 0x80, 0x00, 0x00, 0x00, 0x00, 0x00, 0x07, 
.................... 0xE0, 0xF8, 0x00, 0x00, 0x00, 0x00, 0x00, 0x0E, 0xFF, 0xC0, 0x00, 0x00, 0x00, 0x00, 0x00, 0x07, 
.................... 0xC0, 0xF8, 0x00, 0x00, 0x00, 0x00, 0x00, 0x04, 0xFF, 0xC0, 0x00, 0x00, 0x00, 0x00, 0x00, 0x03, 
.................... 0xC0, 0x70, 0x00, 0x00, 0x00, 0x00, 0x00, 0x04, 0xC0, 0x40, 0x00, 0x00, 0x00, 0x00, 0x00, 0x03, 
.................... 0xC7, 0x77, 0x00, 0x00, 0x00, 0x00, 0x00, 0x04, 0xC5, 0x40, 0x00, 0x00, 0x00, 0x00, 0x00, 0x03, 
.................... 0xC2, 0x72, 0x00, 0x00, 0x00, 0x00, 0x00, 0x04, 0xC0, 0x40, 0x00, 0x00, 0x00, 0x00, 0x00, 0x03, 
.................... 0xCF, 0xFF, 0x80, 0x00, 0x00, 0x00, 0x00, 0x04, 0xD5, 0x40, 0x00, 0x00, 0x00, 0x00, 0x00, 0x03, 
.................... 0xEF, 0xFF, 0x80, 0x00, 0x00, 0x00, 0x00, 0x0E, 0xC0, 0x40, 0x00, 0x00, 0x00, 0x00, 0x00, 0x07, 
.................... 0xE0, 0x00, 0x00, 0x00, 0x00, 0x00, 0x00, 0x0E, 0xFF, 0xC0, 0x00, 0x00, 0x00, 0x00, 0x00, 0x07, 
.................... 0xF0, 0x00, 0x00, 0x00, 0x00, 0x00, 0x00, 0x1F, 0x00, 0x00, 0x00, 0x00, 0x00, 0x00, 0x00, 0x0F, 
.................... 0xFC, 0x00, 0x00, 0x00, 0x00, 0x00, 0x00, 0x7F, 0xC0, 0x00, 0x00, 0x00, 0x00, 0x00, 0x00, 0x3F, 
.................... 0xFF, 0xFF, 0xFF, 0xFF, 0xFF, 0xFF, 0xFF, 0xFF, 0xFF, 0xFF, 0xFF, 0xFF, 0xFF, 0xFF, 0xFF, 0xFF, 
.................... 0x00, 0x00, 0x00, 0x00, 0x00, 0x00, 0x00, 0x00, 0x00, 0x00, 0x00, 0x00, 0x00, 0x00, 0x00, 0x00, 
.................... 0x00, 0x00, 0x00, 0x00, 0x00, 0x00, 0x00, 0x00, 0x00, 0x00, 0x00, 0x00, 0x00, 0x00, 0x00, 0x00, 
.................... 0x00, 0x00, 0x00, 0x00, 0x00, 0x00, 0x00, 0x00, 0x00, 0x00, 0x00, 0x00, 0x00, 0x00, 0x00, 0x00, 
.................... 0x00, 0x00, 0x00, 0x00, 0x00, 0x00, 0x00, 0x00, 0x00, 0x00, 0x00, 0x00, 0x00, 0x00, 0x00, 0x00, 
.................... 0x00, 0x00, 0x00, 0x00, 0x00, 0x00, 0x00, 0x00, 0x00, 0x00, 0x00, 0x00, 0x00, 0x00, 0x00, 0x00, 
.................... 0x00, 0x00, 0x00, 0x00, 0x00, 0x00, 0x00, 0x00, 0x00, 0x00, 0x00, 0x00, 0x00, 0x00, 0x00, 0x00, 
.................... 0x00, 0x00, 0x00, 0x00, 0x00, 0x00, 0x00, 0x00, 0x00, 0x00, 0x00, 0x00, 0x00, 0x00, 0x00, 0x00, 
.................... 0x00, 0x00, 0x00, 0x00, 0x00, 0x00, 0x00, 0x00, 0x00, 0x00, 0x00, 0x00, 0x00, 0x00, 0x00, 0x00, 
.................... 0x00, 0x00, 0x00, 0x00, 0x00, 0x00, 0x00, 0x00, 0x00, 0x00, 0x00, 0x00, 0x00, 0x00, 0x00, 0x00, 
.................... 0x00, 0x00, 0x00, 0x00, 0x00, 0x00, 0x00, 0x00, 0x00, 0x00, 0x00, 0x00, 0x00, 0x00, 0x00, 0x00, 
.................... 0x00, 0x00, 0x00, 0x00, 0x00, 0x00, 0x00, 0x00, 0x00, 0x00, 0x00, 0x00, 0x00, 0x00, 0x00, 0x00, 
.................... 0x00, 0x00, 0x00, 0x00, 0x00, 0x00, 0x00, 0x00, 0x00, 0x00, 0x00, 0x00, 0x00, 0x00, 0x00, 0x00, 
.................... 0x00, 0x00, 0x00, 0x00, 0x00, 0x00, 0x00, 0x00, 0x00, 0x00, 0x00, 0x00, 0x00, 0x00, 0x00, 0x00, 
.................... 0x00, 0x00, 0x00, 0x00, 0x00, 0x00, 0x00, 0x00, 0x00, 0x00, 0x00, 0x00, 0x00, 0x00, 0x00, 0x00, 
.................... 0x00, 0x00, 0x00, 0x00, 0x00, 0x00, 0x00, 0x00, 0x00, 0x00, 0x00, 0x00, 0x00, 0x00, 0x00, 0x00, 
.................... 0x00, 0x00, 0x00, 0x00, 0x00, 0x00, 0x00, 0x00, 0x00, 0x00, 0x00, 0x00, 0x00, 0x00, 0x00, 0x00, 
.................... 0x00, 0x00, 0x00, 0x00, 0x00, 0x00, 0x00, 0x00, 0x00, 0x00, 0x00, 0x00, 0x00, 0x00, 0x00, 0x00, 
.................... 0x00, 0x00, 0x00, 0x00, 0x00, 0x00, 0x00, 0x00, 0x00, 0x00, 0x00, 0x00, 0x00, 0x00, 0x00, 0x00, 
.................... 0x00, 0x00, 0x00, 0x00, 0x00, 0x00, 0x00, 0x00, 0x00, 0x00, 0x00, 0x00, 0x00, 0x00, 0x00, 0x00, 
.................... 0x00, 0x00, 0x00, 0x00, 0x00, 0x00, 0x00, 0x00, 0x00, 0x00, 0x00, 0x00, 0x00, 0x00, 0x00, 0x00, 
.................... 0x00, 0x00, 0x00, 0x00, 0x00, 0x00, 0x00, 0x00, 0x00, 0x00, 0x00, 0x00, 0x00, 0x00, 0x00, 0x00 
.................... }; 
....................  
.................... void glcd_assist() 
.................... {  
....................    char i,j;  
....................    signed char k;  
....................    for( i = 0 ; i < 64 ; i ++ )  
*
02D36:  MOVLB  B
02D38:  CLRF   x25
02D3A:  MOVF   x25,W
02D3C:  SUBLW  3F
02D3E:  BNC   2DDC
....................    {   
....................       for( j = 0 ; j < 16 ; j ++)  
02D40:  CLRF   x26
02D42:  MOVF   x26,W
02D44:  SUBLW  0F
02D46:  BNC   2DD8
....................       {     
....................          for(k=7;k>-1;k--)  
02D48:  MOVLW  07
02D4A:  MOVWF  x27
02D4C:  MOVF   x27,W
02D4E:  XORLW  80
02D50:  SUBLW  7F
02D52:  BC    2DD4
....................          {       
....................             if( bit_test(RDATA[i][j] ,7-k ))  
02D54:  CLRF   x29
02D56:  MOVFF  B25,B28
02D5A:  CLRF   x2B
02D5C:  MOVLW  10
02D5E:  MOVWF  x2A
02D60:  MOVLB  0
02D62:  CALL   1CFA
02D66:  MOVFF  02,B29
02D6A:  MOVFF  01,B28
02D6E:  MOVLB  B
02D70:  MOVF   x26,W
02D72:  ADDWF  01,W
02D74:  MOVWF  01
02D76:  MOVLW  00
02D78:  ADDWFC 02,W
02D7A:  MOVWF  03
02D7C:  MOVF   01,W
02D7E:  MOVFF  FF2,B28
02D82:  BCF    FF2.7
02D84:  MOVFF  03,FF7
02D88:  MOVLB  0
02D8A:  CALL   0F1E
02D8E:  MOVLB  B
02D90:  BTFSC  x28.7
02D92:  BSF    FF2.7
02D94:  MOVWF  x28
02D96:  MOVLW  07
02D98:  BSF    FD8.0
02D9A:  SUBFWB x27,W
02D9C:  MOVWF  x29
02D9E:  MOVFF  B28,00
02DA2:  MOVF   x29,W
02DA4:  MOVWF  01
02DA6:  BZ    2DB0
02DA8:  BCF    FD8.0
02DAA:  RRCF   00,F
02DAC:  DECFSZ 01,F
02DAE:  BRA    2DA8
02DB0:  BTFSS  00.0
02DB2:  BRA    2DD0
....................                glcd_pixel( j*8+k,i, ON );  
02DB4:  MOVF   x26,W
02DB6:  MULLW  08
02DB8:  MOVF   FF3,W
02DBA:  ADDWF  x27,W
02DBC:  MOVWF  x28
02DBE:  MOVWF  x41
02DC0:  MOVFF  B25,B42
02DC4:  MOVLW  01
02DC6:  MOVWF  x43
02DC8:  MOVLB  0
02DCA:  CALL   1D56
02DCE:  MOVLB  B
02DD0:  DECF   x27,F
02DD2:  BRA    2D4C
....................                  
....................          }   
02DD4:  INCF   x26,F
02DD6:  BRA    2D42
....................       }  
02DD8:  INCF   x25,F
02DDA:  BRA    2D3A
....................    }  
02DDC:  MOVLB  0
02DDE:  GOTO   386A (RETURN)
.................... }  
....................  
.................... #include <saving.h> 
.................... //------------------------------------------------------------------------------ 
.................... // File generated by LCD Assistant 
.................... // http://en.radzio.dxp.pl/bitmap_converter/ 
.................... //------------------------------------------------------------------------------ 
....................  
.................... const unsigned char saving [64][16] = { 
.................... 0xFF, 0xFF, 0xFF, 0xFF, 0xFF, 0xFF, 0xFF, 0xFF, 0xFF, 0xFF, 0xFF, 0xFF, 0xFF, 0xFF, 0xFF, 0xFF, 
.................... 0xFF, 0xFF, 0xFF, 0xFF, 0xFF, 0xFF, 0xFF, 0xFF, 0xFF, 0xFF, 0xFF, 0xFF, 0xFF, 0xFF, 0xFF, 0xFF, 
.................... 0xFF, 0xFF, 0xFF, 0xFF, 0xFF, 0xFF, 0xFF, 0xFF, 0xFF, 0xFF, 0xFF, 0xFF, 0xFF, 0xFF, 0xFF, 0xFF, 
.................... 0xE0, 0x00, 0x00, 0x00, 0x00, 0x00, 0x00, 0x00, 0x00, 0x00, 0x00, 0x00, 0x00, 0x00, 0x00, 0x07, 
.................... 0xE0, 0x00, 0x00, 0x00, 0x00, 0x00, 0x00, 0x00, 0x00, 0x00, 0x00, 0x00, 0x00, 0x00, 0x00, 0x07, 
.................... 0xE0, 0x00, 0x00, 0x00, 0x00, 0x00, 0x00, 0x00, 0x00, 0x00, 0x00, 0x00, 0x00, 0x00, 0x00, 0x07, 
.................... 0xE0, 0x00, 0x00, 0x00, 0x00, 0x00, 0x00, 0x00, 0x00, 0x00, 0x00, 0x00, 0x00, 0x00, 0x00, 0x07, 
.................... 0xE0, 0x00, 0x00, 0x00, 0x00, 0x00, 0x00, 0x06, 0x00, 0x00, 0x60, 0x00, 0x00, 0x00, 0x00, 0x07, 
.................... 0xE1, 0xFF, 0xFF, 0x80, 0x78, 0x00, 0x00, 0x06, 0x00, 0x00, 0x60, 0x00, 0x00, 0x00, 0x00, 0x07, 
.................... 0xE1, 0xF8, 0x03, 0xC0, 0xC4, 0x00, 0x00, 0x06, 0x00, 0x00, 0x60, 0x00, 0x00, 0x00, 0x00, 0x07, 
.................... 0xE1, 0xF8, 0x3B, 0xE0, 0xC1, 0x9B, 0xCF, 0x3E, 0xF3, 0xE3, 0xE7, 0x80, 0x00, 0x00, 0x00, 0x07, 
.................... 0xE1, 0xF8, 0x3B, 0xF0, 0xC1, 0x98, 0x6C, 0x66, 0x1B, 0x36, 0x6C, 0xC0, 0x00, 0x00, 0x00, 0x07, 
.................... 0xE1, 0xF8, 0x3B, 0xF0, 0xDD, 0x99, 0xEC, 0x66, 0x7B, 0x36, 0x6C, 0xC0, 0x00, 0x00, 0x00, 0x07, 
.................... 0xE1, 0xF8, 0x3B, 0xF0, 0xCD, 0x9B, 0x6C, 0x66, 0xDB, 0x36, 0x6C, 0xC0, 0x00, 0x00, 0x00, 0x07, 
.................... 0xE1, 0xF8, 0x3B, 0xF0, 0xCD, 0x9B, 0x6C, 0x66, 0xDB, 0x36, 0x6C, 0xC0, 0x00, 0x00, 0x00, 0x07, 
.................... 0xE1, 0xF8, 0x03, 0xF0, 0x7C, 0xF9, 0xEC, 0x3E, 0x7B, 0x33, 0xE7, 0x80, 0x00, 0x00, 0x00, 0x07, 
.................... 0xE1, 0xFF, 0xFF, 0xF0, 0x00, 0x00, 0x00, 0x00, 0x00, 0x00, 0x00, 0x00, 0x00, 0x00, 0x00, 0x07, 
.................... 0xE1, 0xFF, 0xFF, 0xF0, 0x00, 0x00, 0x00, 0x00, 0x00, 0x00, 0x00, 0x00, 0x00, 0x00, 0x00, 0x07, 
.................... 0xE1, 0xFF, 0xFF, 0xB0, 0x00, 0x00, 0x00, 0x00, 0x00, 0x00, 0x00, 0x00, 0x00, 0x00, 0x00, 0x07, 
.................... 0xE1, 0xFF, 0xFF, 0xF0, 0x00, 0x00, 0x00, 0x00, 0x00, 0x00, 0x00, 0x00, 0x00, 0x00, 0x00, 0x07, 
.................... 0xE1, 0xFF, 0xFF, 0xF0, 0x00, 0x00, 0x00, 0x00, 0x00, 0x00, 0x00, 0x00, 0x00, 0x00, 0x00, 0x07, 
.................... 0xE1, 0xC0, 0x00, 0x70, 0x00, 0x00, 0x00, 0x00, 0x00, 0x00, 0x00, 0x00, 0x00, 0x00, 0x00, 0x07, 
.................... 0xE1, 0xC0, 0x00, 0x70, 0x00, 0x00, 0x00, 0x00, 0x00, 0x00, 0x00, 0x00, 0x00, 0x00, 0x00, 0x07, 
.................... 0xE1, 0xCF, 0xFF, 0x70, 0xF8, 0x03, 0x00, 0x00, 0x00, 0x00, 0x00, 0x00, 0x00, 0x00, 0x00, 0x07, 
.................... 0xE1, 0xC0, 0x00, 0x70, 0xCC, 0x03, 0x00, 0x00, 0x00, 0x00, 0x00, 0x00, 0x00, 0x00, 0x00, 0x07, 
.................... 0xE1, 0xC0, 0x00, 0x70, 0xCD, 0xE7, 0x9E, 0x38, 0x00, 0x00, 0x00, 0x00, 0x00, 0x00, 0x00, 0x07, 
.................... 0xE1, 0xCF, 0xFF, 0x70, 0xCC, 0x33, 0x33, 0x60, 0x00, 0x00, 0x00, 0x00, 0x00, 0x00, 0x00, 0x07, 
.................... 0xE1, 0xC0, 0x00, 0x70, 0xCC, 0xF3, 0x33, 0x70, 0x00, 0x00, 0x07, 0xFF, 0xFF, 0xFF, 0xFF, 0x87, 
.................... 0xE1, 0xC0, 0x00, 0x70, 0xCD, 0xB3, 0x33, 0x38, 0x00, 0x00, 0x08, 0x00, 0x00, 0x00, 0x00, 0x87, 
.................... 0xE1, 0xFF, 0xFF, 0xF0, 0xCD, 0xB3, 0x33, 0x1B, 0x6C, 0x00, 0x11, 0xF8, 0xF0, 0x00, 0x01, 0x07, 
.................... 0xE0, 0x00, 0x00, 0x00, 0xF8, 0xF1, 0x9E, 0x73, 0x6C, 0x00, 0x20, 0x01, 0xF3, 0xFF, 0xE2, 0x07, 
.................... 0xE0, 0x00, 0x00, 0x00, 0x00, 0x00, 0x00, 0x00, 0x00, 0x00, 0x5F, 0xFD, 0xE4, 0x00, 0x04, 0x07, 
.................... 0xE0, 0x00, 0x00, 0x00, 0x00, 0x00, 0x00, 0x00, 0x00, 0x00, 0xB7, 0xFC, 0x08, 0x7F, 0x08, 0x07, 
.................... 0xE0, 0x00, 0x00, 0x00, 0x00, 0x00, 0x00, 0x00, 0x00, 0x01, 0x7F, 0xFE, 0x10, 0x80, 0x10, 0x07, 
.................... 0xE0, 0x00, 0x00, 0x00, 0x00, 0x00, 0x00, 0x00, 0x00, 0x02, 0xFF, 0xF3, 0xE1, 0x00, 0x20, 0x07, 
.................... 0xE0, 0x00, 0x00, 0x00, 0x00, 0x00, 0x00, 0x00, 0x00, 0x05, 0xFF, 0xF8, 0x02, 0x18, 0x40, 0x07, 
.................... 0xE0, 0x00, 0x00, 0x00, 0x00, 0x00, 0x00, 0x00, 0x00, 0x0B, 0xFF, 0xCF, 0xFC, 0x20, 0x80, 0x07, 
.................... 0xE0, 0x00, 0x00, 0x07, 0xAF, 0x57, 0xAF, 0x78, 0x00, 0x17, 0xFF, 0xE0, 0x00, 0x41, 0x00, 0x07, 
.................... 0xE0, 0x00, 0x00, 0x04, 0xA9, 0x54, 0xA9, 0x48, 0x00, 0x2F, 0xFF, 0x3F, 0xFF, 0x82, 0x00, 0x07, 
.................... 0xE0, 0x00, 0x00, 0x04, 0xA9, 0x54, 0xA9, 0x48, 0x00, 0x5F, 0xFF, 0x80, 0x00, 0x04, 0x00, 0x07, 
.................... 0xE0, 0x00, 0x00, 0x04, 0xA9, 0x54, 0xA9, 0x48, 0x00, 0x9F, 0xFC, 0xFF, 0xFF, 0x88, 0x00, 0x07, 
.................... 0xE0, 0x00, 0x00, 0x04, 0xA9, 0x54, 0xA9, 0x48, 0x01, 0x00, 0x00, 0x00, 0x00, 0x10, 0x00, 0x07, 
.................... 0xE0, 0x00, 0x00, 0x07, 0xAF, 0x57, 0xAF, 0x78, 0x03, 0xFF, 0xFF, 0xFF, 0xFF, 0xE0, 0x00, 0x07, 
.................... 0xE0, 0x00, 0x00, 0x00, 0x00, 0x00, 0x00, 0x00, 0x00, 0x00, 0x00, 0x00, 0x00, 0x00, 0x00, 0x07, 
.................... 0xE0, 0x00, 0x00, 0x00, 0x00, 0x00, 0x00, 0x00, 0x00, 0x00, 0x00, 0x00, 0x00, 0x00, 0x00, 0x07, 
.................... 0xE0, 0x00, 0x00, 0x00, 0x00, 0x00, 0x00, 0x00, 0x00, 0x00, 0x00, 0x00, 0x00, 0x00, 0x00, 0x07, 
.................... 0xE0, 0x00, 0x00, 0x00, 0x00, 0x00, 0x00, 0x00, 0x00, 0x00, 0x00, 0x00, 0x00, 0x00, 0x00, 0x07, 
.................... 0xE0, 0x00, 0x00, 0x00, 0x00, 0x00, 0x00, 0x00, 0x00, 0x00, 0x00, 0x00, 0x00, 0x00, 0x00, 0x07, 
.................... 0xE0, 0x00, 0x00, 0x00, 0x00, 0x00, 0x00, 0x00, 0x00, 0x00, 0x00, 0x00, 0x00, 0x00, 0x00, 0x07, 
.................... 0xE0, 0x00, 0x00, 0x00, 0x00, 0x00, 0x00, 0x00, 0x00, 0x00, 0x00, 0x00, 0x00, 0x00, 0x00, 0x07, 
.................... 0xE0, 0x00, 0x00, 0x00, 0x00, 0x00, 0x00, 0x00, 0x00, 0x00, 0x00, 0x00, 0x00, 0x00, 0x00, 0x07, 
.................... 0xE0, 0x00, 0x00, 0x00, 0x00, 0x00, 0x00, 0x00, 0x00, 0x00, 0x00, 0x00, 0x00, 0x00, 0x00, 0x07, 
.................... 0xE0, 0x00, 0x00, 0x00, 0x00, 0x00, 0x00, 0x00, 0x00, 0x00, 0x00, 0x00, 0x00, 0x00, 0x00, 0x07, 
.................... 0xE0, 0x00, 0x00, 0x00, 0x00, 0x00, 0x00, 0x00, 0x00, 0x00, 0x00, 0x00, 0x00, 0x00, 0x00, 0x07, 
.................... 0xE0, 0x00, 0x00, 0x00, 0x00, 0x00, 0x00, 0x00, 0x00, 0x00, 0x00, 0x00, 0x00, 0x00, 0x00, 0x07, 
.................... 0xE0, 0x00, 0x00, 0x00, 0x00, 0x00, 0x00, 0x00, 0x00, 0x00, 0x00, 0x00, 0x00, 0x00, 0x00, 0x07, 
.................... 0xE0, 0x00, 0x00, 0x00, 0x00, 0x00, 0x00, 0x00, 0x00, 0x00, 0x00, 0x00, 0x00, 0x00, 0x00, 0x07, 
.................... 0xE0, 0x00, 0x00, 0x00, 0x00, 0x00, 0x00, 0x00, 0x00, 0x00, 0x00, 0x00, 0x00, 0x00, 0x00, 0x07, 
.................... 0xE0, 0x00, 0x00, 0x00, 0x00, 0x00, 0x00, 0x00, 0x00, 0x00, 0x00, 0x00, 0x00, 0x00, 0x00, 0x07, 
.................... 0xE0, 0x00, 0x00, 0x00, 0x00, 0x00, 0x00, 0x00, 0x00, 0x00, 0x00, 0x00, 0x00, 0x00, 0x00, 0x07, 
.................... 0xE0, 0x00, 0x00, 0x00, 0x00, 0x00, 0x00, 0x00, 0x00, 0x00, 0x00, 0x00, 0x00, 0x00, 0x00, 0x07, 
.................... 0xFF, 0xFF, 0xFF, 0xFF, 0xFF, 0xFF, 0xFF, 0xFF, 0xFF, 0xFF, 0xFF, 0xFF, 0xFF, 0xFF, 0xFF, 0xFF, 
.................... 0xFF, 0xFF, 0xFF, 0xFF, 0xFF, 0xFF, 0xFF, 0xFF, 0xFF, 0xFF, 0xFF, 0xFF, 0xFF, 0xFF, 0xFF, 0xFF, 
.................... 0xFF, 0xFF, 0xFF, 0xFF, 0xFF, 0xFF, 0xFF, 0xFF, 0xFF, 0xFF, 0xFF, 0xFF, 0xFF, 0xFF, 0xFF, 0xFF 
.................... }; 
.................... void glcd_saving() 
.................... {  
....................    char i,j;  
....................    signed char k;  
....................    for( i = 0 ; i < 64 ; i ++ )  
*
0483A:  MOVLB  B
0483C:  CLRF   x25
0483E:  MOVF   x25,W
04840:  SUBLW  3F
04842:  BNC   48E0
....................    {   
....................       for( j = 0 ; j < 16 ; j ++)  
04844:  CLRF   x26
04846:  MOVF   x26,W
04848:  SUBLW  0F
0484A:  BNC   48DC
....................       {     
....................          for(k=7;k>-1;k--)  
0484C:  MOVLW  07
0484E:  MOVWF  x27
04850:  MOVF   x27,W
04852:  XORLW  80
04854:  SUBLW  7F
04856:  BC    48D8
....................          {       
....................             if( bit_test(saving[i][j] ,7-k ))  
04858:  CLRF   x29
0485A:  MOVFF  B25,B28
0485E:  CLRF   x2B
04860:  MOVLW  10
04862:  MOVWF  x2A
04864:  MOVLB  0
04866:  CALL   1CFA
0486A:  MOVFF  02,B29
0486E:  MOVFF  01,B28
04872:  MOVLB  B
04874:  MOVF   x26,W
04876:  ADDWF  01,W
04878:  MOVWF  01
0487A:  MOVLW  00
0487C:  ADDWFC 02,W
0487E:  MOVWF  03
04880:  MOVF   01,W
04882:  MOVFF  FF2,B28
04886:  BCF    FF2.7
04888:  MOVFF  03,FF7
0488C:  MOVLB  0
0488E:  CALL   1336
04892:  MOVLB  B
04894:  BTFSC  x28.7
04896:  BSF    FF2.7
04898:  MOVWF  x28
0489A:  MOVLW  07
0489C:  BSF    FD8.0
0489E:  SUBFWB x27,W
048A0:  MOVWF  x29
048A2:  MOVFF  B28,00
048A6:  MOVF   x29,W
048A8:  MOVWF  01
048AA:  BZ    48B4
048AC:  BCF    FD8.0
048AE:  RRCF   00,F
048B0:  DECFSZ 01,F
048B2:  BRA    48AC
048B4:  BTFSS  00.0
048B6:  BRA    48D4
....................                glcd_pixel( j*8+k,i, ON );  
048B8:  MOVF   x26,W
048BA:  MULLW  08
048BC:  MOVF   FF3,W
048BE:  ADDWF  x27,W
048C0:  MOVWF  x28
048C2:  MOVWF  x41
048C4:  MOVFF  B25,B42
048C8:  MOVLW  01
048CA:  MOVWF  x43
048CC:  MOVLB  0
048CE:  CALL   1D56
048D2:  MOVLB  B
048D4:  DECF   x27,F
048D6:  BRA    4850
....................                  
....................          }   
048D8:  INCF   x26,F
048DA:  BRA    4846
....................       }  
048DC:  INCF   x25,F
048DE:  BRA    483E
....................    }  
048E0:  MOVLB  0
048E2:  GOTO   4A12 (RETURN)
.................... }  
....................  
.................... #include <Tipo_control.h> 
.................... //------------------------------------------------------------------------------ 
.................... // File generated by LCD Assistant 
.................... // http://en.radzio.dxp.pl/bitmap_converter/ 
.................... //------------------------------------------------------------------------------ 
....................  
.................... const unsigned char Tipo_control [64][16] = { 
.................... 0xFF, 0xFF, 0xFF, 0xFF, 0xFF, 0xFF, 0xFF, 0xFF, 0xFF, 0xFF, 0xFF, 0xFF, 0xFF, 0xFF, 0xFF, 0xFF, 
.................... 0xFF, 0xFF, 0xFF, 0xFF, 0xFF, 0xFF, 0xFF, 0xFF, 0xFF, 0xFF, 0xFF, 0xFF, 0xFF, 0xFF, 0xFF, 0xFF, 
.................... 0xFF, 0xFF, 0xFF, 0xFF, 0xFF, 0xFF, 0xFF, 0xFF, 0xFF, 0xFF, 0xFF, 0xFF, 0xFF, 0xFF, 0xFF, 0xFF, 
.................... 0xE0, 0x00, 0x00, 0x00, 0x00, 0x00, 0x00, 0x00, 0x00, 0x00, 0x00, 0x00, 0x00, 0x00, 0x00, 0x07, 
.................... 0xE0, 0x00, 0x00, 0x00, 0x00, 0x00, 0x00, 0x00, 0x00, 0x00, 0x00, 0x00, 0x00, 0x00, 0x00, 0x07, 
.................... 0xE0, 0x00, 0x00, 0x00, 0x00, 0x00, 0x00, 0x00, 0x00, 0x00, 0x00, 0x00, 0x00, 0x00, 0x00, 0x07, 
.................... 0xE0, 0x00, 0x00, 0x00, 0x00, 0x00, 0x00, 0x00, 0x00, 0x00, 0x00, 0x00, 0x00, 0x00, 0x00, 0x07, 
.................... 0xE0, 0x00, 0x00, 0x00, 0x00, 0x00, 0x00, 0x00, 0x00, 0x00, 0x00, 0x00, 0x00, 0x00, 0x00, 0x07, 
.................... 0xE0, 0x00, 0x00, 0x00, 0x00, 0x00, 0x00, 0x00, 0x00, 0x00, 0x00, 0x00, 0x00, 0x00, 0x00, 0x07, 
.................... 0xE0, 0x00, 0x00, 0x00, 0x00, 0x00, 0x00, 0x00, 0x00, 0x00, 0x00, 0x00, 0x00, 0x00, 0x00, 0x07, 
.................... 0xE0, 0x00, 0x00, 0x00, 0x00, 0x00, 0x00, 0x00, 0x00, 0x00, 0x00, 0x00, 0x00, 0x00, 0x00, 0x07, 
.................... 0xE0, 0x00, 0x00, 0x00, 0x00, 0x00, 0x00, 0x00, 0x00, 0x00, 0x00, 0x00, 0x00, 0x00, 0x00, 0x07, 
.................... 0xE0, 0x00, 0x00, 0x00, 0x00, 0x00, 0x00, 0x00, 0x00, 0x00, 0x00, 0x00, 0x00, 0x00, 0x00, 0x07, 
.................... 0xE0, 0x00, 0x00, 0x00, 0x00, 0x00, 0x00, 0x00, 0x00, 0x00, 0x00, 0x00, 0x00, 0x00, 0x00, 0x07, 
.................... 0xE0, 0x00, 0x00, 0x00, 0x00, 0x00, 0x00, 0x00, 0x00, 0x00, 0x00, 0x00, 0x00, 0x00, 0x00, 0x07, 
.................... 0xE0, 0x00, 0x00, 0x00, 0x00, 0x00, 0x00, 0x00, 0x00, 0x00, 0x00, 0x00, 0x00, 0x00, 0x00, 0x07, 
.................... 0xE0, 0x00, 0x00, 0x00, 0x00, 0x00, 0x00, 0x00, 0x00, 0x00, 0x00, 0x00, 0x00, 0x00, 0x00, 0x07, 
.................... 0xE0, 0x04, 0x00, 0x00, 0x00, 0x00, 0x00, 0x00, 0x08, 0x00, 0x00, 0x00, 0x00, 0x00, 0x00, 0x07, 
.................... 0xE0, 0x06, 0x00, 0x00, 0x00, 0x00, 0x00, 0x00, 0x0C, 0x00, 0x00, 0x00, 0x00, 0x00, 0x00, 0x07, 
.................... 0xE0, 0x0F, 0x40, 0x00, 0x00, 0x00, 0x00, 0x00, 0x1E, 0x80, 0x00, 0x00, 0x00, 0x00, 0x00, 0x07, 
.................... 0xE0, 0x0B, 0x40, 0x00, 0x00, 0x00, 0x00, 0x00, 0x16, 0x80, 0x00, 0x00, 0x00, 0x00, 0x00, 0x07, 
.................... 0xE0, 0x0F, 0x40, 0x00, 0x00, 0x00, 0x00, 0x00, 0x1E, 0x80, 0x00, 0x00, 0x00, 0x00, 0x00, 0x07, 
.................... 0xE0, 0x06, 0x50, 0x00, 0x00, 0x00, 0x00, 0x00, 0x0C, 0x80, 0x00, 0x00, 0x00, 0x00, 0x00, 0x07, 
.................... 0xE0, 0x00, 0x58, 0x00, 0x00, 0x00, 0x00, 0x00, 0x00, 0x80, 0x00, 0x00, 0x00, 0x00, 0x00, 0x07, 
.................... 0xE0, 0x00, 0x4C, 0x00, 0x00, 0x00, 0x00, 0x00, 0x00, 0x80, 0x00, 0x00, 0x00, 0x00, 0x00, 0x07, 
.................... 0xE0, 0x00, 0x46, 0x00, 0x00, 0x00, 0x00, 0x00, 0x00, 0x80, 0x00, 0x00, 0x00, 0x00, 0x00, 0x07, 
.................... 0xE0, 0x00, 0x43, 0x00, 0x00, 0x00, 0x00, 0x00, 0x00, 0x80, 0x00, 0x00, 0x00, 0x00, 0x00, 0x07, 
.................... 0xE0, 0x00, 0x41, 0x80, 0x00, 0x00, 0x00, 0x00, 0x00, 0x80, 0x00, 0x00, 0x00, 0x00, 0x00, 0x07, 
.................... 0xE0, 0x00, 0x40, 0xC0, 0x00, 0x00, 0x00, 0x00, 0x00, 0xBF, 0xFE, 0x00, 0x00, 0x00, 0x00, 0x07, 
.................... 0xE0, 0x00, 0x40, 0x60, 0x00, 0x00, 0x00, 0x00, 0x00, 0x80, 0x01, 0x00, 0x00, 0x00, 0x00, 0x07, 
.................... 0xE0, 0x00, 0x40, 0x30, 0x00, 0x00, 0x00, 0x00, 0x00, 0x80, 0x02, 0xC0, 0x00, 0x00, 0x00, 0x07, 
.................... 0xE0, 0x00, 0x40, 0x38, 0x00, 0x00, 0x00, 0x00, 0x00, 0x80, 0x00, 0x60, 0x00, 0x00, 0x00, 0x07, 
.................... 0xE0, 0x00, 0x40, 0x0C, 0x00, 0x00, 0x00, 0x00, 0x00, 0x80, 0x02, 0x20, 0x00, 0x00, 0x00, 0x07, 
.................... 0xE0, 0x00, 0x40, 0x26, 0x00, 0x00, 0x00, 0x00, 0x00, 0x80, 0x00, 0x20, 0x00, 0x00, 0x00, 0x07, 
.................... 0xE0, 0x00, 0x40, 0x03, 0x00, 0x00, 0x00, 0x00, 0x00, 0x80, 0x02, 0x10, 0x00, 0x00, 0x00, 0x07, 
.................... 0xE0, 0x00, 0x40, 0x21, 0x80, 0x00, 0x00, 0x00, 0x00, 0x80, 0x00, 0x10, 0x00, 0x00, 0x00, 0x07, 
.................... 0xE0, 0x00, 0x40, 0x00, 0xC0, 0x00, 0x00, 0x00, 0x00, 0x80, 0x02, 0x10, 0x00, 0x00, 0x00, 0x07, 
.................... 0xE0, 0x00, 0x40, 0x20, 0x60, 0x00, 0x00, 0x00, 0x00, 0x80, 0x00, 0x08, 0x00, 0x00, 0x00, 0x07, 
.................... 0xE0, 0x00, 0x40, 0x00, 0x30, 0x00, 0x00, 0x00, 0x00, 0x80, 0x02, 0x08, 0x00, 0x00, 0x00, 0x07, 
.................... 0xE0, 0x00, 0x40, 0x20, 0x10, 0x00, 0x00, 0x00, 0x00, 0x80, 0x00, 0x08, 0x00, 0x00, 0x00, 0x07, 
.................... 0xE0, 0x00, 0x40, 0x00, 0x00, 0x30, 0x04, 0x00, 0x00, 0x80, 0x02, 0x00, 0x60, 0x08, 0x00, 0x07, 
.................... 0xE0, 0x00, 0x7F, 0xFF, 0xFF, 0x43, 0x36, 0xE0, 0x00, 0xFF, 0xFF, 0xFE, 0x86, 0x6D, 0xC0, 0x07, 
.................... 0xE0, 0x00, 0x00, 0x00, 0x00, 0x59, 0xA4, 0xA0, 0x00, 0x00, 0x00, 0x00, 0xB3, 0x49, 0x40, 0x07, 
.................... 0xE0, 0x00, 0x00, 0x00, 0x00, 0x4A, 0x94, 0xA0, 0x00, 0x00, 0x00, 0x00, 0x95, 0x29, 0x40, 0x07, 
.................... 0xE0, 0x00, 0x00, 0x00, 0x00, 0x33, 0xB6, 0xE0, 0x00, 0x00, 0x00, 0x00, 0x67, 0x6D, 0xC0, 0x07, 
.................... 0xE0, 0x00, 0x00, 0x00, 0x00, 0x00, 0x00, 0x00, 0x00, 0x00, 0x00, 0x00, 0x00, 0x00, 0x00, 0x07, 
.................... 0xE0, 0x00, 0x00, 0x00, 0x00, 0x00, 0x00, 0x00, 0x00, 0x00, 0x00, 0x00, 0x00, 0x00, 0x00, 0x07, 
.................... 0xE0, 0x00, 0x00, 0x00, 0x00, 0x00, 0x00, 0x00, 0x00, 0x00, 0x00, 0x00, 0x00, 0x00, 0x00, 0x07, 
.................... 0xE0, 0x00, 0x00, 0x00, 0x00, 0x00, 0x00, 0x00, 0x00, 0x00, 0x00, 0x00, 0x00, 0x00, 0x00, 0x07, 
.................... 0xE0, 0x00, 0x00, 0x00, 0x00, 0x00, 0x00, 0x00, 0x00, 0x00, 0x00, 0x00, 0x00, 0x00, 0x00, 0x07, 
.................... 0xE0, 0x00, 0x00, 0x00, 0x00, 0x00, 0x00, 0x00, 0x00, 0x00, 0x00, 0x00, 0x00, 0x00, 0x00, 0x07, 
.................... 0xE0, 0x00, 0x00, 0x00, 0x00, 0x00, 0x00, 0x00, 0x00, 0x00, 0x00, 0x00, 0x00, 0x00, 0x00, 0x07, 
.................... 0xE0, 0x00, 0x00, 0x00, 0x00, 0x00, 0x00, 0x00, 0x00, 0x00, 0x00, 0x00, 0x00, 0x00, 0x00, 0x07, 
.................... 0xE0, 0x00, 0x00, 0x00, 0x00, 0x00, 0x00, 0x00, 0x00, 0x00, 0x00, 0x00, 0x00, 0x00, 0x00, 0x07, 
.................... 0xE0, 0x00, 0x00, 0x00, 0x00, 0x00, 0x00, 0x00, 0x00, 0x00, 0x00, 0x00, 0x00, 0x00, 0x00, 0x07, 
.................... 0xE0, 0x00, 0x00, 0x00, 0x00, 0x00, 0x00, 0x00, 0x00, 0x00, 0x00, 0x00, 0x00, 0x00, 0x00, 0x07, 
.................... 0xE0, 0x00, 0x00, 0x00, 0x00, 0x00, 0x00, 0x00, 0x00, 0x00, 0x00, 0x00, 0x00, 0x00, 0x00, 0x07, 
.................... 0xE0, 0x00, 0x00, 0x00, 0x00, 0x00, 0x00, 0x00, 0x00, 0x00, 0x00, 0x00, 0x00, 0x00, 0x00, 0x07, 
.................... 0xE0, 0x00, 0x00, 0x00, 0x00, 0x00, 0x00, 0x00, 0x00, 0x00, 0x00, 0x00, 0x00, 0x00, 0x00, 0x07, 
.................... 0xE0, 0x00, 0x00, 0x00, 0x00, 0x00, 0x00, 0x00, 0x00, 0x00, 0x00, 0x00, 0x00, 0x00, 0x00, 0x07, 
.................... 0xE0, 0x00, 0x00, 0x00, 0x00, 0x00, 0x00, 0x00, 0x00, 0x00, 0x00, 0x00, 0x00, 0x00, 0x00, 0x07, 
.................... 0xFF, 0xFF, 0xFF, 0xFF, 0xFF, 0xFF, 0xFF, 0xFF, 0xFF, 0xFF, 0xFF, 0xFF, 0xFF, 0xFF, 0xFF, 0xFF, 
.................... 0xFF, 0xFF, 0xFF, 0xFF, 0xFF, 0xFF, 0xFF, 0xFF, 0xFF, 0xFF, 0xFF, 0xFF, 0xFF, 0xFF, 0xFF, 0xFF, 
.................... 0xFF, 0xFF, 0xFF, 0xFF, 0xFF, 0xFF, 0xFF, 0xFF, 0xFF, 0xFF, 0xFF, 0xFF, 0xFF, 0xFF, 0xFF, 0xFF 
.................... }; 
.................... void glcd_control() 
.................... {  
....................    char i,j;  
....................    signed char k;  
....................    for( i = 0 ; i < 64 ; i ++ )  
*
040E8:  MOVLB  B
040EA:  CLRF   x25
040EC:  MOVF   x25,W
040EE:  SUBLW  3F
040F0:  BNC   418E
....................    {   
....................       for( j = 0 ; j < 16 ; j ++)  
040F2:  CLRF   x26
040F4:  MOVF   x26,W
040F6:  SUBLW  0F
040F8:  BNC   418A
....................       {     
....................          for(k=7;k>-1;k--)  
040FA:  MOVLW  07
040FC:  MOVWF  x27
040FE:  MOVF   x27,W
04100:  XORLW  80
04102:  SUBLW  7F
04104:  BC    4186
....................          {       
....................             if( bit_test(Tipo_control[i][j] ,7-k ))  
04106:  CLRF   x29
04108:  MOVFF  B25,B28
0410C:  CLRF   x2B
0410E:  MOVLW  10
04110:  MOVWF  x2A
04112:  MOVLB  0
04114:  CALL   1CFA
04118:  MOVFF  02,B29
0411C:  MOVFF  01,B28
04120:  MOVLB  B
04122:  MOVF   x26,W
04124:  ADDWF  01,W
04126:  MOVWF  01
04128:  MOVLW  00
0412A:  ADDWFC 02,W
0412C:  MOVWF  03
0412E:  MOVF   01,W
04130:  MOVFF  FF2,B28
04134:  BCF    FF2.7
04136:  MOVFF  03,FF7
0413A:  MOVLB  0
0413C:  CALL   174E
04140:  MOVLB  B
04142:  BTFSC  x28.7
04144:  BSF    FF2.7
04146:  MOVWF  x28
04148:  MOVLW  07
0414A:  BSF    FD8.0
0414C:  SUBFWB x27,W
0414E:  MOVWF  x29
04150:  MOVFF  B28,00
04154:  MOVF   x29,W
04156:  MOVWF  01
04158:  BZ    4162
0415A:  BCF    FD8.0
0415C:  RRCF   00,F
0415E:  DECFSZ 01,F
04160:  BRA    415A
04162:  BTFSS  00.0
04164:  BRA    4182
....................                glcd_pixel( j*8+k,i, ON );  
04166:  MOVF   x26,W
04168:  MULLW  08
0416A:  MOVF   FF3,W
0416C:  ADDWF  x27,W
0416E:  MOVWF  x28
04170:  MOVWF  x41
04172:  MOVFF  B25,B42
04176:  MOVLW  01
04178:  MOVWF  x43
0417A:  MOVLB  0
0417C:  CALL   1D56
04180:  MOVLB  B
04182:  DECF   x27,F
04184:  BRA    40FE
....................                  
....................          }   
04186:  INCF   x26,F
04188:  BRA    40F4
....................       }  
0418A:  INCF   x25,F
0418C:  BRA    40EC
....................    }  
0418E:  MOVLB  0
04190:  GOTO   786E (RETURN)
.................... }  
....................  
.................... #define trig      PIN_A6    
.................... #define echo    PIN_A7   
....................  
.................... #use rs232 (baud=9600, xmit=pin_C6, rcv=pin_C7)  
....................  
.................... //============================================================================================ 
.................... //=============================== DECLARACION DE VARIABLES ======================================= 
.................... int c,t0overflow,t1overflow,dayset,monthset,yrset,hrset,minset,hr,min,sec,oldsec,dia,mes,dow,yr,s; 
.................... unsigned int1 am_pm,lavamanos,tanquelleno,colorp,exitflag; 
.................... long int i=0,i2=0,pulsos_ducha,pulsos_lavamanos,tiempodist; 
.................... long int duty_cycle,Percent,L_wasted,l_ahorro,litrosd_int,litroslav_int,eread,actualbyte,oldactualbyte; 
.................... float pre_duty_cycle,litros_ducha,litros_lavamanos,litrosd_float,litroslav_float,nivel,oldnivel,t0count,oldt0count,t1count,oldt1count; 
.................... float totalwater,oldtotalwater,sum_lav,sum_ducha; 
.................... //============PARA CONSULTA DE DATOS========================= 
.................... float L_ducha,L_lav,Sum,buffer; 
.................... int c_dia,c_mes,c_yr,c_hr,c_min; 
.................... signed long int page; 
.................... //================================================================================== 
.................... //=============================== MENSAJES EN PANTALLA================================ 
....................  
.................... CHAR time[]; 
.................... CHAR Pgeneral[20]; 
.................... CHAR Pgeneral2[20]; 
.................... CHAR Pgeneral3[20]; 
.................... CHAR Pgeneral4[20]; 
.................... CHAR Pgeneral5[20]; 
....................  
....................  
.................... #reserve 0x080:0xAFF  
....................    
.................... CHAR MENSAJE1[]="SISTEMA ECONOMIZADOR"; 
.................... CHAR SETTIME[]="Configurar Sistema?"; 
.................... CHAR TIMENOW[]="Hora/Fecha Actual:"; 
.................... CHAR DOMINGO[]=   "Domingo"; 
.................... CHAR LUNES[]=       "Lunes"; 
.................... CHAR MARTES[]=     "Martes"; 
.................... CHAR MIERCOLES[]= "Miercoles"; 
.................... CHAR JUEVES[]=      "Jueves"; 
.................... CHAR VIERNES[]=     "Viernes"; 
.................... CHAR SABADO[]=     "Sabado"; 
.................... CHAR SI[]="Si"; 
.................... CHAR NOO[]="No"; 
.................... CHAR SET_TIME[]="Hora"; 
.................... CHAR SETDATE[]="Fecha"; 
.................... CHAR AJUSTEHORA[]="AJUSTE DE HORA"; 
.................... CHAR AJUSTEFECHA[]="AJUSTE DE FECHA"; 
.................... CHAR EEPROM[]="AJUSTE EEPROM"; 
.................... CHAR CONSUMO[]="CONSULTA DE CONSUMOS"; 
.................... CHAR CAPACITY[]="Capacidad:"; 
.................... CHAR UNREAD[]="N/A  / 4096 B"; 
.................... CHAR LEER[]="Leer"; 
.................... CHAR BORRAR[]="Borrar"; 
.................... CHAR SALIR[]="Salir"; 
.................... CHAR LOADING[]="..."; 
.................... CHAR AM[]="AM"; 
.................... CHAR PM[]="PM"; 
.................... CHAR ESTABLECER[]="Establecer"; 
.................... CHAR DATOS[]="Datos"; 
.................... CHAR DATOS2[]="Guardados!"; 
.................... CHAR READY[]="Sistema listo!"; 
.................... CHAR COMENZARS[]="Iniciar Ahora"; 
.................... CHAR CONSULTARC[]="Desea consultar los"; 
.................... CHAR CONSULTARC2[]="consumos a la fecha?"; 
.................... CHAR VOLVERR[]="Volver"; 
.................... CHAR SELECCIONAR[]="Seleccionar"; 
.................... CHAR T_CONTROL[]="TIPO DE CONTROL:"; 
.................... CHAR H_CONTROL[]="Habilitar control?"; 
.................... CHAR LIMITE[]="Consumo Maximo(L):"; 
.................... CHAR LIMITE_ALC[]="LIMITE ALCANZADO!"; 
....................  
.................... #locate MENSAJE1                   = 0X081 
.................... #locate SETTIME                     = 0X110 
.................... #locate TIMENOW                    = 0X135 
.................... #locate DOMINGO                     = 0X150 
.................... #locate LUNES                         = 0X170 
.................... #locate MARTES                       = 0X190 
.................... #locate MIERCOLES                   = 0X1B0 
.................... #locate JUEVES                        = 0X1D0 
.................... #locate VIERNES                       = 0X1F0 
.................... #locate SABADO                       = 0X210 
.................... #locate SI                            = 0X230 
.................... #locate NOO                           = 0X250 
.................... #locate SET_TIME                      = 0X270 
.................... #locate SETDATE                       = 0X290 
.................... #locate AJUSTEHORA                    = 0X2B5 
.................... #locate AJUSTEFECHA                   = 0X2E0 
.................... #locate EEPROM                        = 0X305 
.................... #locate CAPACIDAD                     = 0X325 
.................... #locate UNREAD                        = 0X345 
.................... #locate AM                            = 0X360 
.................... #locate PM                            = 0X375 
.................... #locate ESTABLECER                    =0X385 
.................... #locate DATOS                         =0X405 
.................... #locate DATOS2                        =0X420 
.................... #locate READY                         =0X440 
.................... #locate COMENZARS                     =0x465 
.................... #locate CONSUMO                       =0X480 
.................... #locate CONSULTARC                    =0x4A0 
.................... #locate CONSULTARC2                   =0x4C0 
.................... #locate VOLVERR                       =0x4E0 
.................... #locate SELECCIONAR                   =0X505 
.................... #locate T_CONTROL                     =0x520 
.................... #locate H_CONTROL                     =0x540 
.................... #locate LIMITE                        =0x565 
.................... #locate LIMITE_ALC                    =0x585 
.................... #locate Pgeneral                      =0x5A0 
.................... #locate LEER                          =0x5C0 
.................... #locate BORRAR                        =0x5D0 
.................... #locate SALIR                         =0x5E0 
.................... #locate LOADING                       =0x5F0 
....................  
.................... #locate Pgeneral2                     =0x600 
.................... #locate Pgeneral3                     =0x640 
.................... #locate Pgeneral4                     =0x680 
.................... #locate Pgeneral5                     =0x6B0 
....................  
....................          
....................  
.................... //================================================================================== 
.................... //========================INTERRUPCION LAVAMANOS====================================== 
.................... #INT_EXT  
.................... void  EXT_isr(void)   
.................... { 
....................     lavamanos = 1; 
*
01B66:  BSF    27.1
.................... } 
.................... //================================================================================== 
.................... //========================INTERRUPCION INODORO LLENO=================================== 
01B68:  BCF    FF2.1
01B6A:  GOTO   0084
.................... #INT_EXT1 
.................... void  EXT1_isr(void)  
.................... { 
....................     tanquelleno = 1; 
01B6E:  BSF    27.2
.................... } 
.................... //================================================================================== 
.................... //==========================INTERRUPCION ADICIONAL===================================== 
01B70:  BCF    FF0.0
01B72:  GOTO   0084
.................... #INT_EXT2 
.................... void  EXT2_isr(void)  
.................... { 
....................  
.................... } 
.................... //========================================================================================== 
.................... //========================================================================================== 
01B76:  BCF    FF0.1
01B78:  GOTO   0084
.................... #INT_TIMER0  
.................... void  TIMER0_isr(void)   
.................... { 
.................... t0overflow=t0overflow + 1; 
01B7C:  MOVLW  01
01B7E:  ADDWF  17,F
.................... } 
.................... //========================================================================================== 
.................... //========================================================================================== 
01B80:  BCF    FF2.2
01B82:  GOTO   0084
.................... #INT_TIMER1 
.................... void  TIMER1_isr(void)   
.................... { 
.................... t1overflow=t1overflow + 1; 
01B86:  MOVLW  01
01B88:  ADDWF  18,F
01B8A:  BCF    F9E.0
01B8C:  GOTO   0084
.................... } 
.................... //================================================================================== 
.................... //========================FUNCIN PARA LEER RTC======================================== 
.................... void leerRTC(){ 
....................     ds1307_get_time(hr,am_pm,min,sec); 
....................     ds1307_get_date(dia,mes,yr,dow); 
....................      
....................     if(am_pm==1) 
*
025E2:  BTFSS  27.0
025E4:  BRA    25F0
....................     time='P'; 
025E6:  MOVLW  50
025E8:  MOVLB  B
025EA:  MOVWF  x17
025EC:  BRA    25F6
025EE:  MOVLB  0
....................     else 
....................     time='A'; 
025F0:  MOVLW  41
025F2:  MOVLB  B
025F4:  MOVWF  x17
....................     delay_us(100); 
025F6:  MOVLW  42
025F8:  MOVWF  00
025FA:  DECFSZ 00,F
025FC:  BRA    25FA
025FE:  NOP   
02600:  MOVLB  0
02602:  RETURN 0
.................... } 
.................... //================================================================================== 
.................... //========================FUNCIN PARA LEER NIVEL======================================== 
.................... void leernivel(){ 
....................     output_high(trig);                        
....................     delay_us(20);                             
....................     output_low(trig); 
....................      
....................     while(input(echo)==0)                       
....................     {} 
....................     set_timer3(0);                           
....................     while(input(echo)==1)                       
....................     {} 
....................      
....................     tiempodist=get_timer1();      
....................     nivel=tiempodist*0.017; 
....................  
.................... } 
.................... //================================================================================== 
.................... //================================================================================== 
....................  
.................... void arrow(){ 
....................    glcd_pixel(110,48,0);  
*
0270C:  MOVLW  6E
0270E:  MOVLB  B
02710:  MOVWF  x41
02712:  MOVLW  30
02714:  MOVWF  x42
02716:  CLRF   x43
02718:  MOVLB  0
0271A:  CALL   1D56
....................    glcd_pixel(109,47,0);  
0271E:  MOVLW  6D
02720:  MOVLB  B
02722:  MOVWF  x41
02724:  MOVLW  2F
02726:  MOVWF  x42
02728:  CLRF   x43
0272A:  MOVLB  0
0272C:  CALL   1D56
....................    glcd_pixel(109,49,0);  
02730:  MOVLW  6D
02732:  MOVLB  B
02734:  MOVWF  x41
02736:  MOVLW  31
02738:  MOVWF  x42
0273A:  CLRF   x43
0273C:  MOVLB  0
0273E:  CALL   1D56
....................    glcd_pixel(108,46,0);  
02742:  MOVLW  6C
02744:  MOVLB  B
02746:  MOVWF  x41
02748:  MOVLW  2E
0274A:  MOVWF  x42
0274C:  CLRF   x43
0274E:  MOVLB  0
02750:  CALL   1D56
....................    glcd_pixel(108,50,0);  
02754:  MOVLW  6C
02756:  MOVLB  B
02758:  MOVWF  x41
0275A:  MOVLW  32
0275C:  MOVWF  x42
0275E:  CLRF   x43
02760:  MOVLB  0
02762:  CALL   1D56
....................    glcd_pixel(107,45,0); 
02766:  MOVLW  6B
02768:  MOVLB  B
0276A:  MOVWF  x41
0276C:  MOVLW  2D
0276E:  MOVWF  x42
02770:  CLRF   x43
02772:  MOVLB  0
02774:  CALL   1D56
....................    glcd_pixel(107,51,0); 
02778:  MOVLW  6B
0277A:  MOVLB  B
0277C:  MOVWF  x41
0277E:  MOVLW  33
02780:  MOVWF  x42
02782:  CLRF   x43
02784:  MOVLB  0
02786:  CALL   1D56
....................    glcd_pixel(106,48,0);  
0278A:  MOVLW  6A
0278C:  MOVLB  B
0278E:  MOVWF  x41
02790:  MOVLW  30
02792:  MOVWF  x42
02794:  CLRF   x43
02796:  MOVLB  0
02798:  CALL   1D56
....................    glcd_pixel(105,47,0);  
0279C:  MOVLW  69
0279E:  MOVLB  B
027A0:  MOVWF  x41
027A2:  MOVLW  2F
027A4:  MOVWF  x42
027A6:  CLRF   x43
027A8:  MOVLB  0
027AA:  CALL   1D56
....................    glcd_pixel(105,49,0);  
027AE:  MOVLW  69
027B0:  MOVLB  B
027B2:  MOVWF  x41
027B4:  MOVLW  31
027B6:  MOVWF  x42
027B8:  CLRF   x43
027BA:  MOVLB  0
027BC:  CALL   1D56
....................    glcd_pixel(104,46,0);  
027C0:  MOVLW  68
027C2:  MOVLB  B
027C4:  MOVWF  x41
027C6:  MOVLW  2E
027C8:  MOVWF  x42
027CA:  CLRF   x43
027CC:  MOVLB  0
027CE:  CALL   1D56
....................    glcd_pixel(104,50,0);  
027D2:  MOVLW  68
027D4:  MOVLB  B
027D6:  MOVWF  x41
027D8:  MOVLW  32
027DA:  MOVWF  x42
027DC:  CLRF   x43
027DE:  MOVLB  0
027E0:  CALL   1D56
....................    glcd_pixel(103,45,0); 
027E4:  MOVLW  67
027E6:  MOVLB  B
027E8:  MOVWF  x41
027EA:  MOVLW  2D
027EC:  MOVWF  x42
027EE:  CLRF   x43
027F0:  MOVLB  0
027F2:  CALL   1D56
....................    glcd_pixel(103,51,0);  
027F6:  MOVLW  67
027F8:  MOVLB  B
027FA:  MOVWF  x41
027FC:  MOVLW  33
027FE:  MOVWF  x42
02800:  CLRF   x43
02802:  MOVLB  0
02804:  CALL   1D56
....................    glcd_pixel(102,48,0);  
02808:  MOVLW  66
0280A:  MOVLB  B
0280C:  MOVWF  x41
0280E:  MOVLW  30
02810:  MOVWF  x42
02812:  CLRF   x43
02814:  MOVLB  0
02816:  CALL   1D56
....................    glcd_pixel(101,47,0);  
0281A:  MOVLW  65
0281C:  MOVLB  B
0281E:  MOVWF  x41
02820:  MOVLW  2F
02822:  MOVWF  x42
02824:  CLRF   x43
02826:  MOVLB  0
02828:  CALL   1D56
....................    glcd_pixel(101,49,0);  
0282C:  MOVLW  65
0282E:  MOVLB  B
02830:  MOVWF  x41
02832:  MOVLW  31
02834:  MOVWF  x42
02836:  CLRF   x43
02838:  MOVLB  0
0283A:  CALL   1D56
....................    glcd_pixel(100,46,0);  
0283E:  MOVLW  64
02840:  MOVLB  B
02842:  MOVWF  x41
02844:  MOVLW  2E
02846:  MOVWF  x42
02848:  CLRF   x43
0284A:  MOVLB  0
0284C:  CALL   1D56
....................    glcd_pixel(100,50,0);  
02850:  MOVLW  64
02852:  MOVLB  B
02854:  MOVWF  x41
02856:  MOVLW  32
02858:  MOVWF  x42
0285A:  CLRF   x43
0285C:  MOVLB  0
0285E:  CALL   1D56
....................    glcd_pixel(99,45,0); 
02862:  MOVLW  63
02864:  MOVLB  B
02866:  MOVWF  x41
02868:  MOVLW  2D
0286A:  MOVWF  x42
0286C:  CLRF   x43
0286E:  MOVLB  0
02870:  CALL   1D56
....................    glcd_pixel(99,51,0); 
02874:  MOVLW  63
02876:  MOVLB  B
02878:  MOVWF  x41
0287A:  MOVLW  33
0287C:  MOVWF  x42
0287E:  CLRF   x43
02880:  MOVLB  0
02882:  CALL   1D56
02886:  RETURN 0
.................... } 
.................... //================================================================================== 
.................... //================================================================================== 
....................  
.................... void arrow2(){ 
....................    glcd_pixel(110,53,colorp);  
*
02DE2:  MOVLW  00
02DE4:  BTFSC  27.3
02DE6:  MOVLW  01
02DE8:  MOVLB  B
02DEA:  MOVWF  x25
02DEC:  MOVLW  6E
02DEE:  MOVWF  x41
02DF0:  MOVLW  35
02DF2:  MOVWF  x42
02DF4:  MOVFF  B25,B43
02DF8:  MOVLB  0
02DFA:  CALL   1D56
....................    glcd_pixel(109,52,colorp);  
02DFE:  MOVLW  00
02E00:  BTFSC  27.3
02E02:  MOVLW  01
02E04:  MOVLB  B
02E06:  MOVWF  x25
02E08:  MOVLW  6D
02E0A:  MOVWF  x41
02E0C:  MOVLW  34
02E0E:  MOVWF  x42
02E10:  MOVFF  B25,B43
02E14:  MOVLB  0
02E16:  CALL   1D56
....................    glcd_pixel(109,54,colorp);  
02E1A:  MOVLW  00
02E1C:  BTFSC  27.3
02E1E:  MOVLW  01
02E20:  MOVLB  B
02E22:  MOVWF  x25
02E24:  MOVLW  6D
02E26:  MOVWF  x41
02E28:  MOVLW  36
02E2A:  MOVWF  x42
02E2C:  MOVFF  B25,B43
02E30:  MOVLB  0
02E32:  CALL   1D56
....................    glcd_pixel(108,51,colorp);  
02E36:  MOVLW  00
02E38:  BTFSC  27.3
02E3A:  MOVLW  01
02E3C:  MOVLB  B
02E3E:  MOVWF  x25
02E40:  MOVLW  6C
02E42:  MOVWF  x41
02E44:  MOVLW  33
02E46:  MOVWF  x42
02E48:  MOVFF  B25,B43
02E4C:  MOVLB  0
02E4E:  CALL   1D56
....................    glcd_pixel(108,55,colorp);  
02E52:  MOVLW  00
02E54:  BTFSC  27.3
02E56:  MOVLW  01
02E58:  MOVLB  B
02E5A:  MOVWF  x25
02E5C:  MOVLW  6C
02E5E:  MOVWF  x41
02E60:  MOVLW  37
02E62:  MOVWF  x42
02E64:  MOVFF  B25,B43
02E68:  MOVLB  0
02E6A:  CALL   1D56
....................    glcd_pixel(107,50,0); 
02E6E:  MOVLW  6B
02E70:  MOVLB  B
02E72:  MOVWF  x41
02E74:  MOVLW  32
02E76:  MOVWF  x42
02E78:  CLRF   x43
02E7A:  MOVLB  0
02E7C:  CALL   1D56
....................    glcd_pixel(107,56,0); 
02E80:  MOVLW  6B
02E82:  MOVLB  B
02E84:  MOVWF  x41
02E86:  MOVLW  38
02E88:  MOVWF  x42
02E8A:  CLRF   x43
02E8C:  MOVLB  0
02E8E:  CALL   1D56
....................    glcd_pixel(106,53,0);  
02E92:  MOVLW  6A
02E94:  MOVLB  B
02E96:  MOVWF  x41
02E98:  MOVLW  35
02E9A:  MOVWF  x42
02E9C:  CLRF   x43
02E9E:  MOVLB  0
02EA0:  CALL   1D56
....................    glcd_pixel(105,52,0);  
02EA4:  MOVLW  69
02EA6:  MOVLB  B
02EA8:  MOVWF  x41
02EAA:  MOVLW  34
02EAC:  MOVWF  x42
02EAE:  CLRF   x43
02EB0:  MOVLB  0
02EB2:  CALL   1D56
....................    glcd_pixel(105,54,0);  
02EB6:  MOVLW  69
02EB8:  MOVLB  B
02EBA:  MOVWF  x41
02EBC:  MOVLW  36
02EBE:  MOVWF  x42
02EC0:  CLRF   x43
02EC2:  MOVLB  0
02EC4:  CALL   1D56
....................    glcd_pixel(104,51,0);  
02EC8:  MOVLW  68
02ECA:  MOVLB  B
02ECC:  MOVWF  x41
02ECE:  MOVLW  33
02ED0:  MOVWF  x42
02ED2:  CLRF   x43
02ED4:  MOVLB  0
02ED6:  CALL   1D56
....................    glcd_pixel(104,55,0);  
02EDA:  MOVLW  68
02EDC:  MOVLB  B
02EDE:  MOVWF  x41
02EE0:  MOVLW  37
02EE2:  MOVWF  x42
02EE4:  CLRF   x43
02EE6:  MOVLB  0
02EE8:  CALL   1D56
....................    glcd_pixel(103,50,0); 
02EEC:  MOVLW  67
02EEE:  MOVLB  B
02EF0:  MOVWF  x41
02EF2:  MOVLW  32
02EF4:  MOVWF  x42
02EF6:  CLRF   x43
02EF8:  MOVLB  0
02EFA:  CALL   1D56
....................    glcd_pixel(103,56,0);  
02EFE:  MOVLW  67
02F00:  MOVLB  B
02F02:  MOVWF  x41
02F04:  MOVLW  38
02F06:  MOVWF  x42
02F08:  CLRF   x43
02F0A:  MOVLB  0
02F0C:  CALL   1D56
....................    glcd_pixel(102,53,0);  
02F10:  MOVLW  66
02F12:  MOVLB  B
02F14:  MOVWF  x41
02F16:  MOVLW  35
02F18:  MOVWF  x42
02F1A:  CLRF   x43
02F1C:  MOVLB  0
02F1E:  CALL   1D56
....................    glcd_pixel(101,52,0);  
02F22:  MOVLW  65
02F24:  MOVLB  B
02F26:  MOVWF  x41
02F28:  MOVLW  34
02F2A:  MOVWF  x42
02F2C:  CLRF   x43
02F2E:  MOVLB  0
02F30:  CALL   1D56
....................    glcd_pixel(101,54,0);  
02F34:  MOVLW  65
02F36:  MOVLB  B
02F38:  MOVWF  x41
02F3A:  MOVLW  36
02F3C:  MOVWF  x42
02F3E:  CLRF   x43
02F40:  MOVLB  0
02F42:  CALL   1D56
....................    glcd_pixel(100,51,0);  
02F46:  MOVLW  64
02F48:  MOVLB  B
02F4A:  MOVWF  x41
02F4C:  MOVLW  33
02F4E:  MOVWF  x42
02F50:  CLRF   x43
02F52:  MOVLB  0
02F54:  CALL   1D56
....................    glcd_pixel(100,55,0);  
02F58:  MOVLW  64
02F5A:  MOVLB  B
02F5C:  MOVWF  x41
02F5E:  MOVLW  37
02F60:  MOVWF  x42
02F62:  CLRF   x43
02F64:  MOVLB  0
02F66:  CALL   1D56
....................    glcd_pixel(99,50,0); 
02F6A:  MOVLW  63
02F6C:  MOVLB  B
02F6E:  MOVWF  x41
02F70:  MOVLW  32
02F72:  MOVWF  x42
02F74:  CLRF   x43
02F76:  MOVLB  0
02F78:  CALL   1D56
....................    glcd_pixel(99,56,0); 
02F7C:  MOVLW  63
02F7E:  MOVLB  B
02F80:  MOVWF  x41
02F82:  MOVLW  38
02F84:  MOVWF  x42
02F86:  CLRF   x43
02F88:  MOVLB  0
02F8A:  CALL   1D56
....................     
....................    glcd_pixel(15,53,0);  
02F8E:  MOVLW  0F
02F90:  MOVLB  B
02F92:  MOVWF  x41
02F94:  MOVLW  35
02F96:  MOVWF  x42
02F98:  CLRF   x43
02F9A:  MOVLB  0
02F9C:  CALL   1D56
....................    glcd_pixel(16,52,0);  
02FA0:  MOVLW  10
02FA2:  MOVLB  B
02FA4:  MOVWF  x41
02FA6:  MOVLW  34
02FA8:  MOVWF  x42
02FAA:  CLRF   x43
02FAC:  MOVLB  0
02FAE:  CALL   1D56
....................    glcd_pixel(16,54,0); 
02FB2:  MOVLW  10
02FB4:  MOVLB  B
02FB6:  MOVWF  x41
02FB8:  MOVLW  36
02FBA:  MOVWF  x42
02FBC:  CLRF   x43
02FBE:  MOVLB  0
02FC0:  CALL   1D56
....................    glcd_pixel(17,51,0);  
02FC4:  MOVLW  11
02FC6:  MOVLB  B
02FC8:  MOVWF  x41
02FCA:  MOVLW  33
02FCC:  MOVWF  x42
02FCE:  CLRF   x43
02FD0:  MOVLB  0
02FD2:  CALL   1D56
....................    glcd_pixel(17,55,0); 
02FD6:  MOVLW  11
02FD8:  MOVLB  B
02FDA:  MOVWF  x41
02FDC:  MOVLW  37
02FDE:  MOVWF  x42
02FE0:  CLRF   x43
02FE2:  MOVLB  0
02FE4:  CALL   1D56
....................    glcd_pixel(18,50,0);  
02FE8:  MOVLW  12
02FEA:  MOVLB  B
02FEC:  MOVWF  x41
02FEE:  MOVLW  32
02FF0:  MOVWF  x42
02FF2:  CLRF   x43
02FF4:  MOVLB  0
02FF6:  CALL   1D56
....................    glcd_pixel(18,56,0); 
02FFA:  MOVLW  12
02FFC:  MOVLB  B
02FFE:  MOVWF  x41
03000:  MOVLW  38
03002:  MOVWF  x42
03004:  CLRF   x43
03006:  MOVLB  0
03008:  CALL   1D56
....................    glcd_pixel(19,53,0);  
0300C:  MOVLW  13
0300E:  MOVLB  B
03010:  MOVWF  x41
03012:  MOVLW  35
03014:  MOVWF  x42
03016:  CLRF   x43
03018:  MOVLB  0
0301A:  CALL   1D56
....................    glcd_pixel(20,52,0);  
0301E:  MOVLW  14
03020:  MOVLB  B
03022:  MOVWF  x41
03024:  MOVLW  34
03026:  MOVWF  x42
03028:  CLRF   x43
0302A:  MOVLB  0
0302C:  CALL   1D56
....................    glcd_pixel(20,54,0); 
03030:  MOVLW  14
03032:  MOVLB  B
03034:  MOVWF  x41
03036:  MOVLW  36
03038:  MOVWF  x42
0303A:  CLRF   x43
0303C:  MOVLB  0
0303E:  CALL   1D56
....................    glcd_pixel(21,51,0);  
03042:  MOVLW  15
03044:  MOVLB  B
03046:  MOVWF  x41
03048:  MOVLW  33
0304A:  MOVWF  x42
0304C:  CLRF   x43
0304E:  MOVLB  0
03050:  CALL   1D56
....................    glcd_pixel(21,55,0); 
03054:  MOVLW  15
03056:  MOVLB  B
03058:  MOVWF  x41
0305A:  MOVLW  37
0305C:  MOVWF  x42
0305E:  CLRF   x43
03060:  MOVLB  0
03062:  CALL   1D56
....................    glcd_pixel(22,50,0);  
03066:  MOVLW  16
03068:  MOVLB  B
0306A:  MOVWF  x41
0306C:  MOVLW  32
0306E:  MOVWF  x42
03070:  CLRF   x43
03072:  MOVLB  0
03074:  CALL   1D56
....................    glcd_pixel(22,56,0); 
03078:  MOVLW  16
0307A:  MOVLB  B
0307C:  MOVWF  x41
0307E:  MOVLW  38
03080:  MOVWF  x42
03082:  CLRF   x43
03084:  MOVLB  0
03086:  CALL   1D56
....................    glcd_pixel(23,53,0);  
0308A:  MOVLW  17
0308C:  MOVLB  B
0308E:  MOVWF  x41
03090:  MOVLW  35
03092:  MOVWF  x42
03094:  CLRF   x43
03096:  MOVLB  0
03098:  CALL   1D56
....................    glcd_pixel(24,52,0);  
0309C:  MOVLW  18
0309E:  MOVLB  B
030A0:  MOVWF  x41
030A2:  MOVLW  34
030A4:  MOVWF  x42
030A6:  CLRF   x43
030A8:  MOVLB  0
030AA:  CALL   1D56
....................    glcd_pixel(24,54,0); 
030AE:  MOVLW  18
030B0:  MOVLB  B
030B2:  MOVWF  x41
030B4:  MOVLW  36
030B6:  MOVWF  x42
030B8:  CLRF   x43
030BA:  MOVLB  0
030BC:  CALL   1D56
....................    glcd_pixel(25,51,0);  
030C0:  MOVLW  19
030C2:  MOVLB  B
030C4:  MOVWF  x41
030C6:  MOVLW  33
030C8:  MOVWF  x42
030CA:  CLRF   x43
030CC:  MOVLB  0
030CE:  CALL   1D56
....................    glcd_pixel(25,55,0); 
030D2:  MOVLW  19
030D4:  MOVLB  B
030D6:  MOVWF  x41
030D8:  MOVLW  37
030DA:  MOVWF  x42
030DC:  CLRF   x43
030DE:  MOVLB  0
030E0:  CALL   1D56
....................    glcd_pixel(26,50,0);  
030E4:  MOVLW  1A
030E6:  MOVLB  B
030E8:  MOVWF  x41
030EA:  MOVLW  32
030EC:  MOVWF  x42
030EE:  CLRF   x43
030F0:  MOVLB  0
030F2:  CALL   1D56
....................    glcd_pixel(26,56,0); 
030F6:  MOVLW  1A
030F8:  MOVLB  B
030FA:  MOVWF  x41
030FC:  MOVLW  38
030FE:  MOVWF  x42
03100:  CLRF   x43
03102:  MOVLB  0
03104:  CALL   1D56
03108:  RETURN 0
....................   
.................... } 
.................... //================================================================================== 
.................... //================================================================================== 
.................... void consulta_datos(){ 
....................  
.................... glcd_fillScreen(0); 
*
0385C:  MOVLB  B
0385E:  CLRF   x26
03860:  MOVLB  0
03862:  CALL   1BC8
.................... glcd_assist(); 
03866:  GOTO   2D36
.................... glcd_text57(5,4,CONSUMO, 1, 1); 
0386A:  MOVLW  05
0386C:  MOVLB  B
0386E:  MOVWF  x25
03870:  MOVLW  04
03872:  MOVWF  x26
03874:  MOVWF  x28
03876:  MOVLW  80
03878:  MOVWF  x27
0387A:  MOVLW  01
0387C:  MOVWF  x29
0387E:  MOVWF  x2A
03880:  MOVLB  0
03882:  CALL   229A
....................  
.................... glcd_rect(0,44,41,63,YES,ON); 
03886:  MOVLB  B
03888:  CLRF   x25
0388A:  MOVLW  2C
0388C:  MOVWF  x26
0388E:  MOVLW  29
03890:  MOVWF  x27
03892:  MOVLW  3F
03894:  MOVWF  x28
03896:  MOVLW  01
03898:  MOVWF  x29
0389A:  MOVWF  x2A
0389C:  MOVLB  0
0389E:  CALL   21D8
.................... glcd_rect(43,44,83,63,YES,ON); 
038A2:  MOVLW  2B
038A4:  MOVLB  B
038A6:  MOVWF  x25
038A8:  MOVLW  2C
038AA:  MOVWF  x26
038AC:  MOVLW  53
038AE:  MOVWF  x27
038B0:  MOVLW  3F
038B2:  MOVWF  x28
038B4:  MOVLW  01
038B6:  MOVWF  x29
038B8:  MOVWF  x2A
038BA:  MOVLB  0
038BC:  CALL   21D8
.................... glcd_rect(85,44,127,63,YES,ON); 
038C0:  MOVLW  55
038C2:  MOVLB  B
038C4:  MOVWF  x25
038C6:  MOVLW  2C
038C8:  MOVWF  x26
038CA:  MOVLW  7F
038CC:  MOVWF  x27
038CE:  MOVLW  3F
038D0:  MOVWF  x28
038D2:  MOVLW  01
038D4:  MOVWF  x29
038D6:  MOVWF  x2A
038D8:  MOVLB  0
038DA:  CALL   21D8
.................... glcd_text57(49,50,SALIR, 1, 0); 
038DE:  MOVLW  31
038E0:  MOVLB  B
038E2:  MOVWF  x25
038E4:  MOVLW  32
038E6:  MOVWF  x26
038E8:  MOVLW  05
038EA:  MOVWF  x28
038EC:  MOVLW  E0
038EE:  MOVWF  x27
038F0:  MOVLW  01
038F2:  MOVWF  x29
038F4:  CLRF   x2A
038F6:  MOVLB  0
038F8:  CALL   229A
.................... arrow2(); 
038FC:  CALL   2DE2
.................... page = 0; 
03900:  MOVLB  B
03902:  CLRF   x16
03904:  CLRF   x15
....................  
.................... goto PAGE1; 
03906:  BRA    39DE
....................  
.................... READ_PAGE: 
....................  
.................... if(page > 0) 
03908:  BTFSC  x16.7
0390A:  BRA    391E
0390C:  MOVF   x16,F
0390E:  BNZ   3916
03910:  MOVF   x15,W
03912:  SUBLW  00
03914:  BC    391E
.................... arrow2(); 
03916:  MOVLB  0
03918:  CALL   2DE2
0391C:  MOVLB  B
....................  
.................... s = read_adc(); 
0391E:  BSF    FC2.1
03920:  BTFSC  FC2.1
03922:  BRA    3920
03924:  MOVFF  FC4,26
.................... delay_ms(50); 
03928:  MOVLW  32
0392A:  MOVWF  x2D
0392C:  MOVLB  0
0392E:  CALL   1EEA
.................... while(s > 240){ 
03932:  MOVF   26,W
03934:  SUBLW  F0
03936:  BC    3950
....................     s = read_adc(); 
03938:  BSF    FC2.1
0393A:  BTFSC  FC2.1
0393C:  BRA    393A
0393E:  MOVFF  FC4,26
....................     delay_ms(50);//******************** 
03942:  MOVLW  32
03944:  MOVLB  B
03946:  MOVWF  x2D
03948:  MOVLB  0
0394A:  CALL   1EEA
0394E:  BRA    3932
.................... } 
....................  
....................  if(s > 195 && s < 225) {//enter 
03950:  MOVF   26,W
03952:  SUBLW  C3
03954:  BC    3960
03956:  MOVF   26,W
03958:  SUBLW  E0
0395A:  BNC   3960
....................      exitflag=1; 
0395C:  BSF    27.4
....................      return; 
0395E:  BRA    40E2
.................... } 
....................  
.................... if(s > 115 && s < 135){ //Devolver 
03960:  MOVF   26,W
03962:  SUBLW  73
03964:  BC    39A0
03966:  MOVF   26,W
03968:  SUBLW  86
0396A:  BNC   39A0
....................      
....................      if (page < 1){ 
0396C:  MOVLB  B
0396E:  BTFSC  x16.7
03970:  BRA    397C
03972:  MOVF   x16,F
03974:  BNZ   3982
03976:  MOVF   x15,W
03978:  SUBLW  00
0397A:  BNC   3982
....................          page = 0; 
0397C:  CLRF   x16
0397E:  CLRF   x15
....................          goto PAGE1; 
03980:  BRA    39DE
....................      } 
....................      if(page == 10) 
03982:  MOVF   x15,W
03984:  SUBLW  0A
03986:  BNZ   3996
03988:  MOVF   x16,F
0398A:  BNZ   3996
....................          page = page - 10; 
0398C:  MOVLW  0A
0398E:  SUBWF  x15,F
03990:  MOVLW  00
03992:  SUBWFB x16,F
03994:  BRA    399E
....................      else 
....................          page = page -9; 
03996:  MOVLW  09
03998:  SUBWF  x15,F
0399A:  MOVLW  00
0399C:  SUBWFB x16,F
0399E:  MOVLB  0
.................... } 
....................  
.................... if(s > 165 &&  s < 185){ //Avanzar 
039A0:  MOVF   26,W
039A2:  SUBLW  A5
039A4:  BC    39D0
039A6:  MOVF   26,W
039A8:  SUBLW  B8
039AA:  BNC   39D0
....................     if (page > 9) 
039AC:  MOVLB  B
039AE:  BTFSC  x16.7
039B0:  BRA    39C6
039B2:  MOVF   x16,F
039B4:  BNZ   39BC
039B6:  MOVF   x15,W
039B8:  SUBLW  09
039BA:  BC    39C6
....................         page = page + 9; 
039BC:  MOVLW  09
039BE:  ADDWF  x15,F
039C0:  MOVLW  00
039C2:  ADDWFC x16,F
039C4:  BRA    39CE
....................     else 
....................         page = page + 10; 
039C6:  MOVLW  0A
039C8:  ADDWF  x15,F
039CA:  MOVLW  00
039CC:  ADDWFC x16,F
039CE:  MOVLB  0
.................... //  if (page > 31) 
.................... //      page = 0;  
.................... } 
....................  
.................... if (page == 0) { //PRIMERA PAGINA 
039D0:  MOVLB  B
039D2:  MOVF   x15,F
039D4:  BTFSS  FD8.2
039D6:  BRA    3C88
039D8:  MOVF   x16,F
039DA:  BTFSS  FD8.2
039DC:  BRA    3C88
....................     PAGE1: 
....................     glcd_rect(0,44,41,63,YES,ON); 
039DE:  CLRF   x25
039E0:  MOVLW  2C
039E2:  MOVWF  x26
039E4:  MOVLW  29
039E6:  MOVWF  x27
039E8:  MOVLW  3F
039EA:  MOVWF  x28
039EC:  MOVLW  01
039EE:  MOVWF  x29
039F0:  MOVWF  x2A
039F2:  MOVLB  0
039F4:  CALL   21D8
.................... //================================================================================== 
....................     buffer = read_ext_eeprom(2); 
039F8:  MOVLB  B
039FA:  CLRF   x28
039FC:  MOVLW  02
039FE:  MOVWF  x27
03A00:  MOVLB  0
03A02:  CALL   2AEC
03A06:  MOVLB  B
03A08:  CLRF   x26
03A0A:  MOVFF  01,B25
03A0E:  MOVLB  0
03A10:  CALL   2B66
03A14:  MOVFF  03,B0F
03A18:  MOVFF  02,B0E
03A1C:  MOVFF  01,B0D
03A20:  MOVFF  00,B0C
....................     L_ducha = buffer; 
03A24:  MOVFF  B0F,B03
03A28:  MOVFF  B0E,B02
03A2C:  MOVFF  B0D,B01
03A30:  MOVFF  B0C,B00
....................     buffer = read_ext_eeprom(3);  
03A34:  MOVLB  B
03A36:  CLRF   x28
03A38:  MOVLW  03
03A3A:  MOVWF  x27
03A3C:  MOVLB  0
03A3E:  CALL   2AEC
03A42:  MOVLB  B
03A44:  CLRF   x26
03A46:  MOVFF  01,B25
03A4A:  MOVLB  0
03A4C:  CALL   2B66
03A50:  MOVFF  03,B0F
03A54:  MOVFF  02,B0E
03A58:  MOVFF  01,B0D
03A5C:  MOVFF  00,B0C
....................     L_ducha = L_ducha+(buffer/100); 
03A60:  MOVFF  B0F,B2C
03A64:  MOVFF  B0E,B2B
03A68:  MOVFF  B0D,B2A
03A6C:  MOVFF  B0C,B29
03A70:  MOVLB  B
03A72:  CLRF   x30
03A74:  CLRF   x2F
03A76:  MOVLW  48
03A78:  MOVWF  x2E
03A7A:  MOVLW  85
03A7C:  MOVWF  x2D
03A7E:  MOVLB  0
03A80:  CALL   310A
03A84:  BCF    FD8.1
03A86:  MOVFF  B03,B28
03A8A:  MOVFF  B02,B27
03A8E:  MOVFF  B01,B26
03A92:  MOVFF  B00,B25
03A96:  MOVFF  03,B2C
03A9A:  MOVFF  02,B2B
03A9E:  MOVFF  01,B2A
03AA2:  MOVFF  00,B29
03AA6:  CALL   3268
03AAA:  MOVFF  03,B03
03AAE:  MOVFF  02,B02
03AB2:  MOVFF  01,B01
03AB6:  MOVFF  00,B00
....................  //==================================================================================    
....................     buffer = read_ext_eeprom(4); 
03ABA:  MOVLB  B
03ABC:  CLRF   x28
03ABE:  MOVLW  04
03AC0:  MOVWF  x27
03AC2:  MOVLB  0
03AC4:  CALL   2AEC
03AC8:  MOVLB  B
03ACA:  CLRF   x26
03ACC:  MOVFF  01,B25
03AD0:  MOVLB  0
03AD2:  CALL   2B66
03AD6:  MOVFF  03,B0F
03ADA:  MOVFF  02,B0E
03ADE:  MOVFF  01,B0D
03AE2:  MOVFF  00,B0C
....................     L_lav = buffer; 
03AE6:  MOVFF  B0F,B07
03AEA:  MOVFF  B0E,B06
03AEE:  MOVFF  B0D,B05
03AF2:  MOVFF  B0C,B04
....................     buffer = read_ext_eeprom(5);  
03AF6:  MOVLB  B
03AF8:  CLRF   x28
03AFA:  MOVLW  05
03AFC:  MOVWF  x27
03AFE:  MOVLB  0
03B00:  CALL   2AEC
03B04:  MOVLB  B
03B06:  CLRF   x26
03B08:  MOVFF  01,B25
03B0C:  MOVLB  0
03B0E:  CALL   2B66
03B12:  MOVFF  03,B0F
03B16:  MOVFF  02,B0E
03B1A:  MOVFF  01,B0D
03B1E:  MOVFF  00,B0C
....................     L_lav = L_lav+(buffer/100);   
03B22:  MOVFF  B0F,B2C
03B26:  MOVFF  B0E,B2B
03B2A:  MOVFF  B0D,B2A
03B2E:  MOVFF  B0C,B29
03B32:  MOVLB  B
03B34:  CLRF   x30
03B36:  CLRF   x2F
03B38:  MOVLW  48
03B3A:  MOVWF  x2E
03B3C:  MOVLW  85
03B3E:  MOVWF  x2D
03B40:  MOVLB  0
03B42:  CALL   310A
03B46:  BCF    FD8.1
03B48:  MOVFF  B07,B28
03B4C:  MOVFF  B06,B27
03B50:  MOVFF  B05,B26
03B54:  MOVFF  B04,B25
03B58:  MOVFF  03,B2C
03B5C:  MOVFF  02,B2B
03B60:  MOVFF  01,B2A
03B64:  MOVFF  00,B29
03B68:  CALL   3268
03B6C:  MOVFF  03,B07
03B70:  MOVFF  02,B06
03B74:  MOVFF  01,B05
03B78:  MOVFF  00,B04
.................... //================================================================================== 
....................     c_hr = read_ext_eeprom(6); 
03B7C:  MOVLB  B
03B7E:  CLRF   x28
03B80:  MOVLW  06
03B82:  MOVWF  x27
03B84:  MOVLB  0
03B86:  CALL   2AEC
03B8A:  MOVFF  01,B13
....................     c_min = read_ext_eeprom(7); 
03B8E:  MOVLB  B
03B90:  CLRF   x28
03B92:  MOVLW  07
03B94:  MOVWF  x27
03B96:  MOVLB  0
03B98:  CALL   2AEC
03B9C:  MOVFF  01,B14
....................     c_dia = read_ext_eeprom(8); 
03BA0:  MOVLB  B
03BA2:  CLRF   x28
03BA4:  MOVLW  08
03BA6:  MOVWF  x27
03BA8:  MOVLB  0
03BAA:  CALL   2AEC
03BAE:  MOVFF  01,B10
....................     c_mes = read_ext_eeprom(9); 
03BB2:  MOVLB  B
03BB4:  CLRF   x28
03BB6:  MOVLW  09
03BB8:  MOVWF  x27
03BBA:  MOVLB  0
03BBC:  CALL   2AEC
03BC0:  MOVFF  01,B11
....................     c_yr = read_ext_eeprom(10); 
03BC4:  MOVLB  B
03BC6:  CLRF   x28
03BC8:  MOVLW  0A
03BCA:  MOVWF  x27
03BCC:  MOVLB  0
03BCE:  CALL   2AEC
03BD2:  MOVFF  01,B12
.................... //==================================================================================  
....................     Sum = L_ducha + L_lav; 
03BD6:  BCF    FD8.1
03BD8:  MOVFF  B03,B28
03BDC:  MOVFF  B02,B27
03BE0:  MOVFF  B01,B26
03BE4:  MOVFF  B00,B25
03BE8:  MOVFF  B07,B2C
03BEC:  MOVFF  B06,B2B
03BF0:  MOVFF  B05,B2A
03BF4:  MOVFF  B04,B29
03BF8:  CALL   3268
03BFC:  MOVFF  03,B0B
03C00:  MOVFF  02,B0A
03C04:  MOVFF  01,B09
03C08:  MOVFF  00,B08
....................     glcd_rect(76,32,122,39,YES,OFF); 
03C0C:  MOVLW  4C
03C0E:  MOVLB  B
03C10:  MOVWF  x25
03C12:  MOVLW  20
03C14:  MOVWF  x26
03C16:  MOVLW  7A
03C18:  MOVWF  x27
03C1A:  MOVLW  27
03C1C:  MOVWF  x28
03C1E:  MOVLW  01
03C20:  MOVWF  x29
03C22:  CLRF   x2A
03C24:  MOVLB  0
03C26:  CALL   21D8
....................     glcd_rect(19,18,57,26,YES,OFF); 
03C2A:  MOVLW  13
03C2C:  MOVLB  B
03C2E:  MOVWF  x25
03C30:  MOVLW  12
03C32:  MOVWF  x26
03C34:  MOVLW  39
03C36:  MOVWF  x27
03C38:  MOVLW  1A
03C3A:  MOVWF  x28
03C3C:  MOVLW  01
03C3E:  MOVWF  x29
03C40:  CLRF   x2A
03C42:  MOVLB  0
03C44:  CALL   21D8
....................     glcd_rect(19,32,57,39,YES,OFF); 
03C48:  MOVLW  13
03C4A:  MOVLB  B
03C4C:  MOVWF  x25
03C4E:  MOVLW  20
03C50:  MOVWF  x26
03C52:  MOVLW  39
03C54:  MOVWF  x27
03C56:  MOVLW  27
03C58:  MOVWF  x28
03C5A:  MOVLW  01
03C5C:  MOVWF  x29
03C5E:  CLRF   x2A
03C60:  MOVLB  0
03C62:  CALL   21D8
....................     glcd_rect(76,18,122,25,YES,OFF); 
03C66:  MOVLW  4C
03C68:  MOVLB  B
03C6A:  MOVWF  x25
03C6C:  MOVLW  12
03C6E:  MOVWF  x26
03C70:  MOVLW  7A
03C72:  MOVWF  x27
03C74:  MOVLW  19
03C76:  MOVWF  x28
03C78:  MOVLW  01
03C7A:  MOVWF  x29
03C7C:  CLRF   x2A
03C7E:  MOVLB  0
03C80:  CALL   21D8
.................... } 
03C84:  BRA    3F7E
03C86:  MOVLB  B
.................... else{ 
.................... //================================================================================== 
....................     buffer = read_ext_eeprom(page +1); 
03C88:  MOVLW  01
03C8A:  ADDWF  x15,W
03C8C:  MOVWF  x25
03C8E:  MOVLW  00
03C90:  ADDWFC x16,W
03C92:  MOVWF  x26
03C94:  MOVWF  x28
03C96:  MOVFF  B25,B27
03C9A:  MOVLB  0
03C9C:  CALL   2AEC
03CA0:  MOVLB  B
03CA2:  CLRF   x26
03CA4:  MOVFF  01,B25
03CA8:  MOVLB  0
03CAA:  CALL   2B66
03CAE:  MOVFF  03,B0F
03CB2:  MOVFF  02,B0E
03CB6:  MOVFF  01,B0D
03CBA:  MOVFF  00,B0C
....................     L_ducha = buffer; 
03CBE:  MOVFF  B0F,B03
03CC2:  MOVFF  B0E,B02
03CC6:  MOVFF  B0D,B01
03CCA:  MOVFF  B0C,B00
....................     buffer = read_ext_eeprom(page + 2);  
03CCE:  MOVLW  02
03CD0:  MOVLB  B
03CD2:  ADDWF  x15,W
03CD4:  MOVWF  x25
03CD6:  MOVLW  00
03CD8:  ADDWFC x16,W
03CDA:  MOVWF  x26
03CDC:  MOVWF  x28
03CDE:  MOVFF  B25,B27
03CE2:  MOVLB  0
03CE4:  CALL   2AEC
03CE8:  MOVLB  B
03CEA:  CLRF   x26
03CEC:  MOVFF  01,B25
03CF0:  MOVLB  0
03CF2:  CALL   2B66
03CF6:  MOVFF  03,B0F
03CFA:  MOVFF  02,B0E
03CFE:  MOVFF  01,B0D
03D02:  MOVFF  00,B0C
....................     L_ducha = L_ducha+(buffer/100); 
03D06:  MOVFF  B0F,B2C
03D0A:  MOVFF  B0E,B2B
03D0E:  MOVFF  B0D,B2A
03D12:  MOVFF  B0C,B29
03D16:  MOVLB  B
03D18:  CLRF   x30
03D1A:  CLRF   x2F
03D1C:  MOVLW  48
03D1E:  MOVWF  x2E
03D20:  MOVLW  85
03D22:  MOVWF  x2D
03D24:  MOVLB  0
03D26:  CALL   310A
03D2A:  BCF    FD8.1
03D2C:  MOVFF  B03,B28
03D30:  MOVFF  B02,B27
03D34:  MOVFF  B01,B26
03D38:  MOVFF  B00,B25
03D3C:  MOVFF  03,B2C
03D40:  MOVFF  02,B2B
03D44:  MOVFF  01,B2A
03D48:  MOVFF  00,B29
03D4C:  CALL   3268
03D50:  MOVFF  03,B03
03D54:  MOVFF  02,B02
03D58:  MOVFF  01,B01
03D5C:  MOVFF  00,B00
....................  //==================================================================================  
....................     buffer = read_ext_eeprom(page + 3); 
03D60:  MOVLW  03
03D62:  MOVLB  B
03D64:  ADDWF  x15,W
03D66:  MOVWF  x25
03D68:  MOVLW  00
03D6A:  ADDWFC x16,W
03D6C:  MOVWF  x26
03D6E:  MOVWF  x28
03D70:  MOVFF  B25,B27
03D74:  MOVLB  0
03D76:  CALL   2AEC
03D7A:  MOVLB  B
03D7C:  CLRF   x26
03D7E:  MOVFF  01,B25
03D82:  MOVLB  0
03D84:  CALL   2B66
03D88:  MOVFF  03,B0F
03D8C:  MOVFF  02,B0E
03D90:  MOVFF  01,B0D
03D94:  MOVFF  00,B0C
....................     L_lav = buffer; 
03D98:  MOVFF  B0F,B07
03D9C:  MOVFF  B0E,B06
03DA0:  MOVFF  B0D,B05
03DA4:  MOVFF  B0C,B04
....................     buffer = read_ext_eeprom(page + 4);  
03DA8:  MOVLW  04
03DAA:  MOVLB  B
03DAC:  ADDWF  x15,W
03DAE:  MOVWF  x25
03DB0:  MOVLW  00
03DB2:  ADDWFC x16,W
03DB4:  MOVWF  x26
03DB6:  MOVWF  x28
03DB8:  MOVFF  B25,B27
03DBC:  MOVLB  0
03DBE:  CALL   2AEC
03DC2:  MOVLB  B
03DC4:  CLRF   x26
03DC6:  MOVFF  01,B25
03DCA:  MOVLB  0
03DCC:  CALL   2B66
03DD0:  MOVFF  03,B0F
03DD4:  MOVFF  02,B0E
03DD8:  MOVFF  01,B0D
03DDC:  MOVFF  00,B0C
....................     L_lav = L_lav+(buffer/100);   
03DE0:  MOVFF  B0F,B2C
03DE4:  MOVFF  B0E,B2B
03DE8:  MOVFF  B0D,B2A
03DEC:  MOVFF  B0C,B29
03DF0:  MOVLB  B
03DF2:  CLRF   x30
03DF4:  CLRF   x2F
03DF6:  MOVLW  48
03DF8:  MOVWF  x2E
03DFA:  MOVLW  85
03DFC:  MOVWF  x2D
03DFE:  MOVLB  0
03E00:  CALL   310A
03E04:  BCF    FD8.1
03E06:  MOVFF  B07,B28
03E0A:  MOVFF  B06,B27
03E0E:  MOVFF  B05,B26
03E12:  MOVFF  B04,B25
03E16:  MOVFF  03,B2C
03E1A:  MOVFF  02,B2B
03E1E:  MOVFF  01,B2A
03E22:  MOVFF  00,B29
03E26:  CALL   3268
03E2A:  MOVFF  03,B07
03E2E:  MOVFF  02,B06
03E32:  MOVFF  01,B05
03E36:  MOVFF  00,B04
.................... //================================================================================== 
....................     c_hr = read_ext_eeprom(page + 5); 
03E3A:  MOVLW  05
03E3C:  MOVLB  B
03E3E:  ADDWF  x15,W
03E40:  MOVWF  x25
03E42:  MOVLW  00
03E44:  ADDWFC x16,W
03E46:  MOVWF  x26
03E48:  MOVWF  x28
03E4A:  MOVFF  B25,B27
03E4E:  MOVLB  0
03E50:  CALL   2AEC
03E54:  MOVFF  01,B13
....................     c_min = read_ext_eeprom(page + 6); 
03E58:  MOVLW  06
03E5A:  MOVLB  B
03E5C:  ADDWF  x15,W
03E5E:  MOVWF  x25
03E60:  MOVLW  00
03E62:  ADDWFC x16,W
03E64:  MOVWF  x26
03E66:  MOVWF  x28
03E68:  MOVFF  B25,B27
03E6C:  MOVLB  0
03E6E:  CALL   2AEC
03E72:  MOVFF  01,B14
....................     c_dia = read_ext_eeprom(page + 7); 
03E76:  MOVLW  07
03E78:  MOVLB  B
03E7A:  ADDWF  x15,W
03E7C:  MOVWF  x25
03E7E:  MOVLW  00
03E80:  ADDWFC x16,W
03E82:  MOVWF  x26
03E84:  MOVWF  x28
03E86:  MOVFF  B25,B27
03E8A:  MOVLB  0
03E8C:  CALL   2AEC
03E90:  MOVFF  01,B10
....................     c_mes = read_ext_eeprom(page + 8); 
03E94:  MOVLW  08
03E96:  MOVLB  B
03E98:  ADDWF  x15,W
03E9A:  MOVWF  x25
03E9C:  MOVLW  00
03E9E:  ADDWFC x16,W
03EA0:  MOVWF  x26
03EA2:  MOVWF  x28
03EA4:  MOVFF  B25,B27
03EA8:  MOVLB  0
03EAA:  CALL   2AEC
03EAE:  MOVFF  01,B11
....................     c_yr = read_ext_eeprom(page + 9); 
03EB2:  MOVLW  09
03EB4:  MOVLB  B
03EB6:  ADDWF  x15,W
03EB8:  MOVWF  x25
03EBA:  MOVLW  00
03EBC:  ADDWFC x16,W
03EBE:  MOVWF  x26
03EC0:  MOVWF  x28
03EC2:  MOVFF  B25,B27
03EC6:  MOVLB  0
03EC8:  CALL   2AEC
03ECC:  MOVFF  01,B12
.................... //==================================================================================  
....................     Sum = L_ducha + L_lav; 
03ED0:  BCF    FD8.1
03ED2:  MOVFF  B03,B28
03ED6:  MOVFF  B02,B27
03EDA:  MOVFF  B01,B26
03EDE:  MOVFF  B00,B25
03EE2:  MOVFF  B07,B2C
03EE6:  MOVFF  B06,B2B
03EEA:  MOVFF  B05,B2A
03EEE:  MOVFF  B04,B29
03EF2:  CALL   3268
03EF6:  MOVFF  03,B0B
03EFA:  MOVFF  02,B0A
03EFE:  MOVFF  01,B09
03F02:  MOVFF  00,B08
....................     glcd_rect(76,32,122,39,YES,OFF); 
03F06:  MOVLW  4C
03F08:  MOVLB  B
03F0A:  MOVWF  x25
03F0C:  MOVLW  20
03F0E:  MOVWF  x26
03F10:  MOVLW  7A
03F12:  MOVWF  x27
03F14:  MOVLW  27
03F16:  MOVWF  x28
03F18:  MOVLW  01
03F1A:  MOVWF  x29
03F1C:  CLRF   x2A
03F1E:  MOVLB  0
03F20:  CALL   21D8
....................     glcd_rect(19,18,57,26,YES,OFF); 
03F24:  MOVLW  13
03F26:  MOVLB  B
03F28:  MOVWF  x25
03F2A:  MOVLW  12
03F2C:  MOVWF  x26
03F2E:  MOVLW  39
03F30:  MOVWF  x27
03F32:  MOVLW  1A
03F34:  MOVWF  x28
03F36:  MOVLW  01
03F38:  MOVWF  x29
03F3A:  CLRF   x2A
03F3C:  MOVLB  0
03F3E:  CALL   21D8
....................     glcd_rect(19,32,57,39,YES,OFF); 
03F42:  MOVLW  13
03F44:  MOVLB  B
03F46:  MOVWF  x25
03F48:  MOVLW  20
03F4A:  MOVWF  x26
03F4C:  MOVLW  39
03F4E:  MOVWF  x27
03F50:  MOVLW  27
03F52:  MOVWF  x28
03F54:  MOVLW  01
03F56:  MOVWF  x29
03F58:  CLRF   x2A
03F5A:  MOVLB  0
03F5C:  CALL   21D8
....................     glcd_rect(76,18,122,25,YES,OFF); 
03F60:  MOVLW  4C
03F62:  MOVLB  B
03F64:  MOVWF  x25
03F66:  MOVLW  12
03F68:  MOVWF  x26
03F6A:  MOVLW  7A
03F6C:  MOVWF  x27
03F6E:  MOVLW  19
03F70:  MOVWF  x28
03F72:  MOVLW  01
03F74:  MOVWF  x29
03F76:  CLRF   x2A
03F78:  MOVLB  0
03F7A:  CALL   21D8
....................  
.................... } 
....................  
.................... sprintf(Pgeneral,"%02d/%02d/%02d",c_dia,c_mes,c_yr); 
03F7E:  MOVLW  05
03F80:  MOVLB  B
03F82:  MOVWF  x24
03F84:  MOVLW  A0
03F86:  MOVWF  x23
03F88:  MOVFF  B10,B25
03F8C:  MOVLW  01
03F8E:  MOVWF  x26
03F90:  MOVLB  0
03F92:  CALL   2650
03F96:  MOVLW  2F
03F98:  MOVLB  B
03F9A:  MOVWF  x32
03F9C:  MOVLB  0
03F9E:  CALL   2630
03FA2:  MOVFF  B11,B25
03FA6:  MOVLW  01
03FA8:  MOVLB  B
03FAA:  MOVWF  x26
03FAC:  MOVLB  0
03FAE:  CALL   2650
03FB2:  MOVLW  2F
03FB4:  MOVLB  B
03FB6:  MOVWF  x32
03FB8:  MOVLB  0
03FBA:  CALL   2630
03FBE:  MOVFF  B12,B25
03FC2:  MOVLW  01
03FC4:  MOVLB  B
03FC6:  MOVWF  x26
03FC8:  MOVLB  0
03FCA:  CALL   2650
.................... glcd_text57(76,32,Pgeneral, 1, 1); 
03FCE:  MOVLW  4C
03FD0:  MOVLB  B
03FD2:  MOVWF  x25
03FD4:  MOVLW  20
03FD6:  MOVWF  x26
03FD8:  MOVLW  05
03FDA:  MOVWF  x28
03FDC:  MOVLW  A0
03FDE:  MOVWF  x27
03FE0:  MOVLW  01
03FE2:  MOVWF  x29
03FE4:  MOVWF  x2A
03FE6:  MOVLB  0
03FE8:  CALL   229A
....................  
.................... sprintf(Pgeneral2,"%.2fL",L_ducha); 
03FEC:  MOVLW  06
03FEE:  MOVLB  B
03FF0:  MOVWF  x24
03FF2:  CLRF   x23
03FF4:  MOVLW  89
03FF6:  MOVWF  FE9
03FF8:  MOVFF  B03,B28
03FFC:  MOVFF  B02,B27
04000:  MOVFF  B01,B26
04004:  MOVFF  B00,B25
04008:  MOVLW  02
0400A:  MOVWF  x29
0400C:  MOVLB  0
0400E:  CALL   36AE
04012:  MOVLW  4C
04014:  MOVLB  B
04016:  MOVWF  x32
04018:  MOVLB  0
0401A:  CALL   2630
.................... glcd_text57(19,18,Pgeneral2, 1, 1); 
0401E:  MOVLW  13
04020:  MOVLB  B
04022:  MOVWF  x25
04024:  MOVLW  12
04026:  MOVWF  x26
04028:  MOVLW  06
0402A:  MOVWF  x28
0402C:  CLRF   x27
0402E:  MOVLW  01
04030:  MOVWF  x29
04032:  MOVWF  x2A
04034:  MOVLB  0
04036:  CALL   229A
....................  
.................... sprintf(Pgeneral3,"%.2fL",L_lav); 
0403A:  MOVLW  06
0403C:  MOVLB  B
0403E:  MOVWF  x24
04040:  MOVLW  40
04042:  MOVWF  x23
04044:  MOVLW  89
04046:  MOVWF  FE9
04048:  MOVFF  B07,B28
0404C:  MOVFF  B06,B27
04050:  MOVFF  B05,B26
04054:  MOVFF  B04,B25
04058:  MOVLW  02
0405A:  MOVWF  x29
0405C:  MOVLB  0
0405E:  CALL   36AE
04062:  MOVLW  4C
04064:  MOVLB  B
04066:  MOVWF  x32
04068:  MOVLB  0
0406A:  CALL   2630
.................... glcd_text57(19,32,Pgeneral3, 1, 1); 
0406E:  MOVLW  13
04070:  MOVLB  B
04072:  MOVWF  x25
04074:  MOVLW  20
04076:  MOVWF  x26
04078:  MOVLW  06
0407A:  MOVWF  x28
0407C:  MOVLW  40
0407E:  MOVWF  x27
04080:  MOVLW  01
04082:  MOVWF  x29
04084:  MOVWF  x2A
04086:  MOVLB  0
04088:  CALL   229A
....................  
.................... sprintf(Pgeneral4,"%.2fL",Sum); 
0408C:  MOVLW  06
0408E:  MOVLB  B
04090:  MOVWF  x24
04092:  MOVLW  80
04094:  MOVWF  x23
04096:  MOVLW  89
04098:  MOVWF  FE9
0409A:  MOVFF  B0B,B28
0409E:  MOVFF  B0A,B27
040A2:  MOVFF  B09,B26
040A6:  MOVFF  B08,B25
040AA:  MOVLW  02
040AC:  MOVWF  x29
040AE:  MOVLB  0
040B0:  CALL   36AE
040B4:  MOVLW  4C
040B6:  MOVLB  B
040B8:  MOVWF  x32
040BA:  MOVLB  0
040BC:  CALL   2630
.................... glcd_text57(76,18,Pgeneral4, 1, 1); 
040C0:  MOVLW  4C
040C2:  MOVLB  B
040C4:  MOVWF  x25
040C6:  MOVLW  12
040C8:  MOVWF  x26
040CA:  MOVLW  06
040CC:  MOVWF  x28
040CE:  MOVLW  80
040D0:  MOVWF  x27
040D2:  MOVLW  01
040D4:  MOVWF  x29
040D6:  MOVWF  x2A
040D8:  MOVLB  0
040DA:  CALL   229A
....................  
....................    
.................... goto READ_PAGE;     
040DE:  MOVLB  B
040E0:  BRA    3908
040E2:  MOVLB  0
040E4:  GOTO   75FC (RETURN)
.................... } 
....................  
.................... //================================================================================== 
.................... //========================FUNCIN PARA GUARDAR EN EEPROM=============================== 
.................... void storeDATA(){ 
.................... //======================CALCULO PARA LA DUCHA========================     
.................... //    disable_interrupts(GLOBAL); 
.................... //    pulsos_ducha= t0overflow*65535 + get_timer0(); 
.................... //    litros_ducha= ((0.0657*t0overflow*t0overflow-4.17*t0overflow+78)/ 60.0); 
.................... //    set_timer0(0);//====================>>>>>>>>>>> 
.................... //    enable_interrupts(GLOBAL); 
.................... //================================================================== 
.................... //======================CALCULO PARA LAVAMANOS========================  
.................... //    disable_interrupts(GLOBAL); 
.................... //    pulsos_lavamanos= t1overflow*65535 + get_timer1(); 
.................... //    litros_lavamanos= ((0.0657*t1overflow*t1overflow-4.17*t1overflow+78)/ 60.0); 
.................... //    set_timer1(0);//====================>>>>>>>>>>> 
.................... //    enable_interrupts(GLOBAL); 
.................... //=================================================================== 
....................     litrosd_int = litros_ducha; 
*
048E6:  MOVFF  4B,B2A
048EA:  MOVFF  4A,B29
048EE:  MOVFF  49,B28
048F2:  MOVFF  48,B27
048F6:  RCALL  4284
048F8:  MOVFF  02,3B
048FC:  MOVFF  01,3A
....................     litrosd_float = (litros_ducha - litrosd_int)*100; // DOS DIGITOS DE RESOLUCIN 
04900:  MOVFF  3B,B26
04904:  MOVFF  3A,B25
04908:  CALL   2B66
0490C:  BSF    FD8.1
0490E:  MOVFF  4B,B28
04912:  MOVFF  4A,B27
04916:  MOVFF  49,B26
0491A:  MOVFF  48,B25
0491E:  MOVFF  03,B2C
04922:  MOVFF  02,B2B
04926:  MOVFF  01,B2A
0492A:  MOVFF  00,B29
0492E:  CALL   3268
04932:  MOVFF  03,B28
04936:  MOVFF  02,B27
0493A:  MOVFF  01,B26
0493E:  MOVFF  00,B25
04942:  MOVFF  03,B35
04946:  MOVFF  02,B34
0494A:  MOVFF  01,B33
0494E:  MOVFF  00,B32
04952:  MOVLB  B
04954:  CLRF   x39
04956:  CLRF   x38
04958:  MOVLW  48
0495A:  MOVWF  x37
0495C:  MOVLW  85
0495E:  MOVWF  x36
04960:  MOVLB  0
04962:  CALL   34E0
04966:  MOVFF  03,53
0496A:  MOVFF  02,52
0496E:  MOVFF  01,51
04972:  MOVFF  00,50
....................      
....................     litroslav_int = litros_lavamanos; 
04976:  MOVFF  4F,B2A
0497A:  MOVFF  4E,B29
0497E:  MOVFF  4D,B28
04982:  MOVFF  4C,B27
04986:  RCALL  4284
04988:  MOVFF  02,3D
0498C:  MOVFF  01,3C
....................     litroslav_float = (litros_lavamanos - litroslav_int)*100;   // DOS DIGITOS DE RESOLUCIN 
04990:  MOVFF  3D,B26
04994:  MOVFF  3C,B25
04998:  CALL   2B66
0499C:  BSF    FD8.1
0499E:  MOVFF  4F,B28
049A2:  MOVFF  4E,B27
049A6:  MOVFF  4D,B26
049AA:  MOVFF  4C,B25
049AE:  MOVFF  03,B2C
049B2:  MOVFF  02,B2B
049B6:  MOVFF  01,B2A
049BA:  MOVFF  00,B29
049BE:  CALL   3268
049C2:  MOVFF  03,B28
049C6:  MOVFF  02,B27
049CA:  MOVFF  01,B26
049CE:  MOVFF  00,B25
049D2:  MOVFF  03,B35
049D6:  MOVFF  02,B34
049DA:  MOVFF  01,B33
049DE:  MOVFF  00,B32
049E2:  MOVLB  B
049E4:  CLRF   x39
049E6:  CLRF   x38
049E8:  MOVLW  48
049EA:  MOVWF  x37
049EC:  MOVLW  85
049EE:  MOVWF  x36
049F0:  MOVLB  0
049F2:  CALL   34E0
049F6:  MOVFF  03,57
049FA:  MOVFF  02,56
049FE:  MOVFF  01,55
04A02:  MOVFF  00,54
.................... //======================================================================== 
.................... //======================================================================== 
.................... //Escritura de bloques de 10 casillas en la EEPROM==================================== 
.................... //|    0        |    1          |      2       |     3         | 4               |  5                   |  6   |  7    |  8  |   9   | 10   | 
.................... //------------------------------------------------------              
.................... //|Reservada| Reservada |  LTD_INT  | LTD Float | LT_Lav Int  | LT_LAV_Float    |  HR | MIN | DIA | MES | AO | 
.................... //| para i     |  para i      |               |               |                 |                        |  HR | MIN | DIA | MES | AO |  
.................... //=========================================================================    
.................... glcd_fillScreen(0); 
04A06:  MOVLB  B
04A08:  CLRF   x26
04A0A:  MOVLB  0
04A0C:  CALL   1BC8
.................... glcd_saving(); 
04A10:  BRA    483A
.................... glcd_rect(5,50,122,58,NO,ON); 
04A12:  MOVLW  05
04A14:  MOVLB  B
04A16:  MOVWF  x25
04A18:  MOVLW  32
04A1A:  MOVWF  x26
04A1C:  MOVLW  7A
04A1E:  MOVWF  x27
04A20:  MOVLW  3A
04A22:  MOVWF  x28
04A24:  CLRF   x29
04A26:  MOVLW  01
04A28:  MOVWF  x2A
04A2A:  MOVLB  0
04A2C:  CALL   21D8
....................  
.................... //====================== 
.................... //litrosd_int=2; 
.................... //litrosd_float=3; 
.................... //litroslav_int=2; 
.................... //litroslav_float=3; 
.................... //hr= 12; 
.................... //min= 30; 
.................... //dia=8; 
.................... //mes=12; 
.................... //yr=16; 
.................... //====================== 
....................  
.................... //loop: 
.................... glcd_rect(6,51,121,57,YES,OFF); 
04A30:  MOVLW  06
04A32:  MOVLB  B
04A34:  MOVWF  x25
04A36:  MOVLW  33
04A38:  MOVWF  x26
04A3A:  MOVLW  79
04A3C:  MOVWF  x27
04A3E:  MOVLW  39
04A40:  MOVWF  x28
04A42:  MOVLW  01
04A44:  MOVWF  x29
04A46:  CLRF   x2A
04A48:  MOVLB  0
04A4A:  CALL   21D8
.................... delay_ms(200); 
04A4E:  MOVLW  C8
04A50:  MOVLB  B
04A52:  MOVWF  x2D
04A54:  MOVLB  0
04A56:  CALL   1EEA
.................... i = read_ext_eeprom(0);    //  =======> INDICE 
04A5A:  MOVLB  B
04A5C:  CLRF   x28
04A5E:  CLRF   x27
04A60:  MOVLB  0
04A62:  CALL   2AEC
04A66:  CLRF   29
04A68:  MOVFF  01,28
.................... i2 = read_ext_eeprom(1);  //  =======> DESPLAZAMIENTO 8 BITS 0xFF; 
04A6C:  MOVLB  B
04A6E:  CLRF   x28
04A70:  MOVLW  01
04A72:  MOVWF  x27
04A74:  MOVLB  0
04A76:  CALL   2AEC
04A7A:  CLRF   2B
04A7C:  MOVFF  01,2A
....................  
.................... delay_ms(1); 
04A80:  MOVLW  01
04A82:  MOVLB  B
04A84:  MOVWF  x2D
04A86:  MOVLB  0
04A88:  CALL   1EEA
.................... if(i==0) 
04A8C:  MOVF   28,F
04A8E:  BNZ   4A96
04A90:  MOVF   29,F
04A92:  BNZ   4A96
....................     goto skip; 
04A94:  BRA    4A9C
.................... i++;//=========> !!!!!!!!!!!!!!!!!!!!!!! 
04A96:  INCF   28,F
04A98:  BTFSC  FD8.2
04A9A:  INCF   29,F
.................... skip: 
.................... write_ext_eeprom(2+i+(i2*255),litrosd_int); 
04A9C:  MOVLW  02
04A9E:  ADDWF  28,W
04AA0:  MOVLB  B
04AA2:  MOVWF  x25
04AA4:  MOVLW  00
04AA6:  ADDWFC 29,W
04AA8:  MOVWF  x26
04AAA:  MOVFF  2B,B29
04AAE:  MOVFF  2A,B28
04AB2:  CLRF   x2B
04AB4:  SETF   x2A
04AB6:  MOVLB  0
04AB8:  CALL   1CFA
04ABC:  MOVFF  02,03
04AC0:  MOVF   01,W
04AC2:  MOVLB  B
04AC4:  ADDWF  x25,F
04AC6:  MOVF   02,W
04AC8:  ADDWFC x26,F
04ACA:  MOVFF  B26,B29
04ACE:  MOVFF  B25,B28
04AD2:  MOVFF  3A,B2A
04AD6:  MOVLB  0
04AD8:  CALL   2CDC
.................... glcd_rect(5,50,18,58,YES,ON); 
04ADC:  MOVLW  05
04ADE:  MOVLB  B
04AE0:  MOVWF  x25
04AE2:  MOVLW  32
04AE4:  MOVWF  x26
04AE6:  MOVLW  12
04AE8:  MOVWF  x27
04AEA:  MOVLW  3A
04AEC:  MOVWF  x28
04AEE:  MOVLW  01
04AF0:  MOVWF  x29
04AF2:  MOVWF  x2A
04AF4:  MOVLB  0
04AF6:  CALL   21D8
.................... delay_ms(50); 
04AFA:  MOVLW  32
04AFC:  MOVLB  B
04AFE:  MOVWF  x2D
04B00:  MOVLB  0
04B02:  CALL   1EEA
.................... i++; 
04B06:  INCF   28,F
04B08:  BTFSC  FD8.2
04B0A:  INCF   29,F
.................... write_ext_eeprom(2+i+(i2*255),litrosd_float); 
04B0C:  MOVLW  02
04B0E:  ADDWF  28,W
04B10:  MOVLB  B
04B12:  MOVWF  x25
04B14:  MOVLW  00
04B16:  ADDWFC 29,W
04B18:  MOVWF  x26
04B1A:  MOVFF  2B,B29
04B1E:  MOVFF  2A,B28
04B22:  CLRF   x2B
04B24:  SETF   x2A
04B26:  MOVLB  0
04B28:  CALL   1CFA
04B2C:  MOVFF  02,03
04B30:  MOVF   01,W
04B32:  MOVLB  B
04B34:  ADDWF  x25,F
04B36:  MOVF   02,W
04B38:  ADDWFC x26,F
04B3A:  MOVFF  53,B2A
04B3E:  MOVFF  52,B29
04B42:  MOVFF  51,B28
04B46:  MOVFF  50,B27
04B4A:  MOVLB  0
04B4C:  CALL   4284
04B50:  MOVFF  01,B27
04B54:  MOVFF  B26,B29
04B58:  MOVFF  B25,B28
04B5C:  MOVFF  01,B2A
04B60:  CALL   2CDC
.................... glcd_rect(18,50,31,58,YES,ON); 
04B64:  MOVLW  12
04B66:  MOVLB  B
04B68:  MOVWF  x25
04B6A:  MOVLW  32
04B6C:  MOVWF  x26
04B6E:  MOVLW  1F
04B70:  MOVWF  x27
04B72:  MOVLW  3A
04B74:  MOVWF  x28
04B76:  MOVLW  01
04B78:  MOVWF  x29
04B7A:  MOVWF  x2A
04B7C:  MOVLB  0
04B7E:  CALL   21D8
.................... delay_ms(50); 
04B82:  MOVLW  32
04B84:  MOVLB  B
04B86:  MOVWF  x2D
04B88:  MOVLB  0
04B8A:  CALL   1EEA
.................... i++; 
04B8E:  INCF   28,F
04B90:  BTFSC  FD8.2
04B92:  INCF   29,F
.................... write_ext_eeprom(2+i+(i2*255),litroslav_int); 
04B94:  MOVLW  02
04B96:  ADDWF  28,W
04B98:  MOVLB  B
04B9A:  MOVWF  x25
04B9C:  MOVLW  00
04B9E:  ADDWFC 29,W
04BA0:  MOVWF  x26
04BA2:  MOVFF  2B,B29
04BA6:  MOVFF  2A,B28
04BAA:  CLRF   x2B
04BAC:  SETF   x2A
04BAE:  MOVLB  0
04BB0:  CALL   1CFA
04BB4:  MOVFF  02,03
04BB8:  MOVF   01,W
04BBA:  MOVLB  B
04BBC:  ADDWF  x25,F
04BBE:  MOVF   02,W
04BC0:  ADDWFC x26,F
04BC2:  MOVFF  B26,B29
04BC6:  MOVFF  B25,B28
04BCA:  MOVFF  3C,B2A
04BCE:  MOVLB  0
04BD0:  CALL   2CDC
.................... glcd_rect(31,50,44,58,YES,ON); 
04BD4:  MOVLW  1F
04BD6:  MOVLB  B
04BD8:  MOVWF  x25
04BDA:  MOVLW  32
04BDC:  MOVWF  x26
04BDE:  MOVLW  2C
04BE0:  MOVWF  x27
04BE2:  MOVLW  3A
04BE4:  MOVWF  x28
04BE6:  MOVLW  01
04BE8:  MOVWF  x29
04BEA:  MOVWF  x2A
04BEC:  MOVLB  0
04BEE:  CALL   21D8
.................... delay_ms(50); 
04BF2:  MOVLW  32
04BF4:  MOVLB  B
04BF6:  MOVWF  x2D
04BF8:  MOVLB  0
04BFA:  CALL   1EEA
.................... i++; 
04BFE:  INCF   28,F
04C00:  BTFSC  FD8.2
04C02:  INCF   29,F
.................... write_ext_eeprom(2+i+(i2*255),litroslav_float); 
04C04:  MOVLW  02
04C06:  ADDWF  28,W
04C08:  MOVLB  B
04C0A:  MOVWF  x25
04C0C:  MOVLW  00
04C0E:  ADDWFC 29,W
04C10:  MOVWF  x26
04C12:  MOVFF  2B,B29
04C16:  MOVFF  2A,B28
04C1A:  CLRF   x2B
04C1C:  SETF   x2A
04C1E:  MOVLB  0
04C20:  CALL   1CFA
04C24:  MOVFF  02,03
04C28:  MOVF   01,W
04C2A:  MOVLB  B
04C2C:  ADDWF  x25,F
04C2E:  MOVF   02,W
04C30:  ADDWFC x26,F
04C32:  MOVFF  57,B2A
04C36:  MOVFF  56,B29
04C3A:  MOVFF  55,B28
04C3E:  MOVFF  54,B27
04C42:  MOVLB  0
04C44:  CALL   4284
04C48:  MOVFF  01,B27
04C4C:  MOVFF  B26,B29
04C50:  MOVFF  B25,B28
04C54:  MOVFF  01,B2A
04C58:  CALL   2CDC
.................... glcd_rect(44,50,57,58,YES,ON); 
04C5C:  MOVLW  2C
04C5E:  MOVLB  B
04C60:  MOVWF  x25
04C62:  MOVLW  32
04C64:  MOVWF  x26
04C66:  MOVLW  39
04C68:  MOVWF  x27
04C6A:  MOVLW  3A
04C6C:  MOVWF  x28
04C6E:  MOVLW  01
04C70:  MOVWF  x29
04C72:  MOVWF  x2A
04C74:  MOVLB  0
04C76:  CALL   21D8
.................... delay_ms(50); 
04C7A:  MOVLW  32
04C7C:  MOVLB  B
04C7E:  MOVWF  x2D
04C80:  MOVLB  0
04C82:  CALL   1EEA
.................... i++; 
04C86:  INCF   28,F
04C88:  BTFSC  FD8.2
04C8A:  INCF   29,F
.................... write_ext_eeprom(2+i+(i2*255),hr); 
04C8C:  MOVLW  02
04C8E:  ADDWF  28,W
04C90:  MOVLB  B
04C92:  MOVWF  x25
04C94:  MOVLW  00
04C96:  ADDWFC 29,W
04C98:  MOVWF  x26
04C9A:  MOVFF  2B,B29
04C9E:  MOVFF  2A,B28
04CA2:  CLRF   x2B
04CA4:  SETF   x2A
04CA6:  MOVLB  0
04CA8:  CALL   1CFA
04CAC:  MOVFF  02,03
04CB0:  MOVF   01,W
04CB2:  MOVLB  B
04CB4:  ADDWF  x25,F
04CB6:  MOVF   02,W
04CB8:  ADDWFC x26,F
04CBA:  MOVFF  B26,B29
04CBE:  MOVFF  B25,B28
04CC2:  MOVFF  1E,B2A
04CC6:  MOVLB  0
04CC8:  CALL   2CDC
.................... glcd_rect(57,50,70,58,YES,ON); 
04CCC:  MOVLW  39
04CCE:  MOVLB  B
04CD0:  MOVWF  x25
04CD2:  MOVLW  32
04CD4:  MOVWF  x26
04CD6:  MOVLW  46
04CD8:  MOVWF  x27
04CDA:  MOVLW  3A
04CDC:  MOVWF  x28
04CDE:  MOVLW  01
04CE0:  MOVWF  x29
04CE2:  MOVWF  x2A
04CE4:  MOVLB  0
04CE6:  CALL   21D8
.................... delay_ms(50); 
04CEA:  MOVLW  32
04CEC:  MOVLB  B
04CEE:  MOVWF  x2D
04CF0:  MOVLB  0
04CF2:  CALL   1EEA
.................... i++; 
04CF6:  INCF   28,F
04CF8:  BTFSC  FD8.2
04CFA:  INCF   29,F
.................... write_ext_eeprom(2+i+(i2*255),min); 
04CFC:  MOVLW  02
04CFE:  ADDWF  28,W
04D00:  MOVLB  B
04D02:  MOVWF  x25
04D04:  MOVLW  00
04D06:  ADDWFC 29,W
04D08:  MOVWF  x26
04D0A:  MOVFF  2B,B29
04D0E:  MOVFF  2A,B28
04D12:  CLRF   x2B
04D14:  SETF   x2A
04D16:  MOVLB  0
04D18:  CALL   1CFA
04D1C:  MOVFF  02,03
04D20:  MOVF   01,W
04D22:  MOVLB  B
04D24:  ADDWF  x25,F
04D26:  MOVF   02,W
04D28:  ADDWFC x26,F
04D2A:  MOVFF  B26,B29
04D2E:  MOVFF  B25,B28
04D32:  MOVFF  1F,B2A
04D36:  MOVLB  0
04D38:  CALL   2CDC
.................... glcd_rect(70,50,83,58,YES,ON); 
04D3C:  MOVLW  46
04D3E:  MOVLB  B
04D40:  MOVWF  x25
04D42:  MOVLW  32
04D44:  MOVWF  x26
04D46:  MOVLW  53
04D48:  MOVWF  x27
04D4A:  MOVLW  3A
04D4C:  MOVWF  x28
04D4E:  MOVLW  01
04D50:  MOVWF  x29
04D52:  MOVWF  x2A
04D54:  MOVLB  0
04D56:  CALL   21D8
.................... delay_ms(50); 
04D5A:  MOVLW  32
04D5C:  MOVLB  B
04D5E:  MOVWF  x2D
04D60:  MOVLB  0
04D62:  CALL   1EEA
.................... i++; 
04D66:  INCF   28,F
04D68:  BTFSC  FD8.2
04D6A:  INCF   29,F
.................... write_ext_eeprom(2+i+(i2*255),dia); 
04D6C:  MOVLW  02
04D6E:  ADDWF  28,W
04D70:  MOVLB  B
04D72:  MOVWF  x25
04D74:  MOVLW  00
04D76:  ADDWFC 29,W
04D78:  MOVWF  x26
04D7A:  MOVFF  2B,B29
04D7E:  MOVFF  2A,B28
04D82:  CLRF   x2B
04D84:  SETF   x2A
04D86:  MOVLB  0
04D88:  CALL   1CFA
04D8C:  MOVFF  02,03
04D90:  MOVF   01,W
04D92:  MOVLB  B
04D94:  ADDWF  x25,F
04D96:  MOVF   02,W
04D98:  ADDWFC x26,F
04D9A:  MOVFF  B26,B29
04D9E:  MOVFF  B25,B28
04DA2:  MOVFF  22,B2A
04DA6:  MOVLB  0
04DA8:  CALL   2CDC
.................... glcd_rect(70,50,83,58,YES,ON); 
04DAC:  MOVLW  46
04DAE:  MOVLB  B
04DB0:  MOVWF  x25
04DB2:  MOVLW  32
04DB4:  MOVWF  x26
04DB6:  MOVLW  53
04DB8:  MOVWF  x27
04DBA:  MOVLW  3A
04DBC:  MOVWF  x28
04DBE:  MOVLW  01
04DC0:  MOVWF  x29
04DC2:  MOVWF  x2A
04DC4:  MOVLB  0
04DC6:  CALL   21D8
.................... delay_ms(50); 
04DCA:  MOVLW  32
04DCC:  MOVLB  B
04DCE:  MOVWF  x2D
04DD0:  MOVLB  0
04DD2:  CALL   1EEA
.................... i++; 
04DD6:  INCF   28,F
04DD8:  BTFSC  FD8.2
04DDA:  INCF   29,F
.................... write_ext_eeprom(2+i+(i2*255),mes); 
04DDC:  MOVLW  02
04DDE:  ADDWF  28,W
04DE0:  MOVLB  B
04DE2:  MOVWF  x25
04DE4:  MOVLW  00
04DE6:  ADDWFC 29,W
04DE8:  MOVWF  x26
04DEA:  MOVFF  2B,B29
04DEE:  MOVFF  2A,B28
04DF2:  CLRF   x2B
04DF4:  SETF   x2A
04DF6:  MOVLB  0
04DF8:  CALL   1CFA
04DFC:  MOVFF  02,03
04E00:  MOVF   01,W
04E02:  MOVLB  B
04E04:  ADDWF  x25,F
04E06:  MOVF   02,W
04E08:  ADDWFC x26,F
04E0A:  MOVFF  B26,B29
04E0E:  MOVFF  B25,B28
04E12:  MOVFF  23,B2A
04E16:  MOVLB  0
04E18:  CALL   2CDC
.................... glcd_rect(83,50,96,58,YES,ON); 
04E1C:  MOVLW  53
04E1E:  MOVLB  B
04E20:  MOVWF  x25
04E22:  MOVLW  32
04E24:  MOVWF  x26
04E26:  MOVLW  60
04E28:  MOVWF  x27
04E2A:  MOVLW  3A
04E2C:  MOVWF  x28
04E2E:  MOVLW  01
04E30:  MOVWF  x29
04E32:  MOVWF  x2A
04E34:  MOVLB  0
04E36:  CALL   21D8
.................... delay_ms(50); 
04E3A:  MOVLW  32
04E3C:  MOVLB  B
04E3E:  MOVWF  x2D
04E40:  MOVLB  0
04E42:  CALL   1EEA
.................... i++; 
04E46:  INCF   28,F
04E48:  BTFSC  FD8.2
04E4A:  INCF   29,F
.................... write_ext_eeprom(2+i+(i2*255),yr); 
04E4C:  MOVLW  02
04E4E:  ADDWF  28,W
04E50:  MOVLB  B
04E52:  MOVWF  x25
04E54:  MOVLW  00
04E56:  ADDWFC 29,W
04E58:  MOVWF  x26
04E5A:  MOVFF  2B,B29
04E5E:  MOVFF  2A,B28
04E62:  CLRF   x2B
04E64:  SETF   x2A
04E66:  MOVLB  0
04E68:  CALL   1CFA
04E6C:  MOVFF  02,03
04E70:  MOVF   01,W
04E72:  MOVLB  B
04E74:  ADDWF  x25,F
04E76:  MOVF   02,W
04E78:  ADDWFC x26,F
04E7A:  MOVFF  B26,B29
04E7E:  MOVFF  B25,B28
04E82:  MOVFF  25,B2A
04E86:  MOVLB  0
04E88:  CALL   2CDC
.................... glcd_rect(96,50,122,58,YES,ON); 
04E8C:  MOVLW  60
04E8E:  MOVLB  B
04E90:  MOVWF  x25
04E92:  MOVLW  32
04E94:  MOVWF  x26
04E96:  MOVLW  7A
04E98:  MOVWF  x27
04E9A:  MOVLW  3A
04E9C:  MOVWF  x28
04E9E:  MOVLW  01
04EA0:  MOVWF  x29
04EA2:  MOVWF  x2A
04EA4:  MOVLB  0
04EA6:  CALL   21D8
.................... delay_ms(50); 
04EAA:  MOVLW  32
04EAC:  MOVLB  B
04EAE:  MOVWF  x2D
04EB0:  MOVLB  0
04EB2:  CALL   1EEA
.................... //====================!!!!!!!!!!!!!!! 
.................... if (i >= 255){ 
04EB6:  MOVF   29,F
04EB8:  BNZ   4EC0
04EBA:  MOVF   28,W
04EBC:  SUBLW  FE
04EBE:  BC    4ECE
....................     i2++; 
04EC0:  INCF   2A,F
04EC2:  BTFSC  FD8.2
04EC4:  INCF   2B,F
....................     i = i - 255; 
04EC6:  MOVLW  FF
04EC8:  SUBWF  28,F
04ECA:  MOVLW  00
04ECC:  SUBWFB 29,F
.................... } 
.................... //============================ 
.................... //if (i == 255){ 
.................... //    i = 0; 
.................... //    i2++; 
.................... //} 
....................  
.................... delay_ms(100); 
04ECE:  MOVLW  64
04ED0:  MOVLB  B
04ED2:  MOVWF  x2D
04ED4:  MOVLB  0
04ED6:  CALL   1EEA
.................... write_ext_eeprom(0,i); 
04EDA:  MOVLB  B
04EDC:  CLRF   x29
04EDE:  CLRF   x28
04EE0:  MOVFF  28,B2A
04EE4:  MOVLB  0
04EE6:  CALL   2CDC
.................... write_ext_eeprom(1,i2); 
04EEA:  MOVLB  B
04EEC:  CLRF   x29
04EEE:  MOVLW  01
04EF0:  MOVWF  x28
04EF2:  MOVFF  2A,B2A
04EF6:  MOVLB  0
04EF8:  CALL   2CDC
.................... litros_lavamanos = 0; 
04EFC:  CLRF   4F
04EFE:  CLRF   4E
04F00:  CLRF   4D
04F02:  CLRF   4C
.................... litros_ducha = 0; 
04F04:  CLRF   4B
04F06:  CLRF   4A
04F08:  CLRF   49
04F0A:  CLRF   48
04F0C:  GOTO   84AE (RETURN)
.................... //goto loop; 
.................... } 
.................... //================================================================================== 
.................... //========================FUNCIN DEL CONTROLADOR DEL SISTEMA=========================== 
.................... void controlador(){ 
.................... //===================CONTROL LINEAL=============   
.................... if(c == 0){ 
*
042E4:  MOVF   16,F
042E6:  BTFSS  FD8.2
042E8:  BRA    444E
....................    Percent = (l_wasted*100)/L_ahorro; //===PORCENTAJE DE AGUA GASTADA 
042EA:  MOVFF  37,B29
042EE:  MOVFF  36,B28
042F2:  MOVLB  B
042F4:  CLRF   x2B
042F6:  MOVLW  64
042F8:  MOVWF  x2A
042FA:  MOVLB  0
042FC:  CALL   1CFA
04300:  MOVFF  02,B26
04304:  MOVFF  01,B25
04308:  MOVFF  02,B28
0430C:  MOVFF  01,B27
04310:  MOVFF  39,B2A
04314:  MOVFF  38,B29
04318:  RCALL  423E
0431A:  MOVFF  02,35
0431E:  MOVFF  01,34
....................    //======Clculo en microsegundos================= 
....................    //====LIMITES DEL SERVOMOTOR 0.8ms A 2,3ms======= 
....................    pre_duty_cycle = (percent*0.0023)/100.0; 
04322:  MOVFF  35,B26
04326:  MOVFF  34,B25
0432A:  CALL   2B66
0432E:  MOVFF  03,B35
04332:  MOVFF  02,B34
04336:  MOVFF  01,B33
0433A:  MOVFF  00,B32
0433E:  MOVLW  99
04340:  MOVLB  B
04342:  MOVWF  x39
04344:  MOVLW  BB
04346:  MOVWF  x38
04348:  MOVLW  16
0434A:  MOVWF  x37
0434C:  MOVLW  76
0434E:  MOVWF  x36
04350:  MOVLB  0
04352:  CALL   34E0
04356:  MOVFF  03,B28
0435A:  MOVFF  02,B27
0435E:  MOVFF  01,B26
04362:  MOVFF  00,B25
04366:  MOVFF  03,B2C
0436A:  MOVFF  02,B2B
0436E:  MOVFF  01,B2A
04372:  MOVFF  00,B29
04376:  MOVLB  B
04378:  CLRF   x30
0437A:  CLRF   x2F
0437C:  MOVLW  48
0437E:  MOVWF  x2E
04380:  MOVLW  85
04382:  MOVWF  x2D
04384:  MOVLB  0
04386:  CALL   310A
0438A:  MOVFF  03,47
0438E:  MOVFF  02,46
04392:  MOVFF  01,45
04396:  MOVFF  00,44
....................    duty_cycle = pre_duty_cycle * 1000000; 
0439A:  MOVFF  47,B35
0439E:  MOVFF  46,B34
043A2:  MOVFF  45,B33
043A6:  MOVFF  44,B32
043AA:  MOVLB  B
043AC:  CLRF   x39
043AE:  MOVLW  24
043B0:  MOVWF  x38
043B2:  MOVLW  74
043B4:  MOVWF  x37
043B6:  MOVLW  92
043B8:  MOVWF  x36
043BA:  MOVLB  0
043BC:  CALL   34E0
043C0:  MOVFF  03,B2A
043C4:  MOVFF  02,B29
043C8:  MOVFF  01,B28
043CC:  MOVFF  00,B27
043D0:  RCALL  4284
043D2:  MOVFF  02,33
043D6:  MOVFF  01,32
....................    for(i=0;i<20;i++){ 
043DA:  CLRF   29
043DC:  CLRF   28
043DE:  MOVF   29,F
043E0:  BNZ   444C
043E2:  MOVF   28,W
043E4:  SUBLW  13
043E6:  BNC   444C
....................        output_low(PIN_B3); 
043E8:  BCF    F93.3
043EA:  BCF    F8A.3
....................        delay_us(1); 
043EC:  BRA    43EE
....................        output_high(PIN_B3); 
043EE:  BCF    F93.3
043F0:  BSF    F8A.3
....................        delay_us(duty_cycle); 
043F2:  MOVFF  33,B25
043F6:  MOVLB  B
043F8:  INCF   x25,F
043FA:  DECF   x25,F
043FC:  BTFSC  FD8.2
043FE:  BRA    440A
04400:  SETF   x28
04402:  MOVLB  0
04404:  RCALL  42C0
04406:  MOVLB  B
04408:  BRA    43FA
0440A:  MOVFF  32,B28
0440E:  MOVLB  0
04410:  RCALL  42C0
....................        output_low(PIN_B3); 
04412:  BCF    F93.3
04414:  BCF    F8A.3
....................        delay_us(20000 - duty_cycle); 
04416:  MOVLW  20
04418:  BSF    FD8.0
0441A:  SUBFWB 32,W
0441C:  MOVLB  B
0441E:  MOVWF  x25
04420:  MOVLW  4E
04422:  SUBFWB 33,W
04424:  MOVWF  x26
04426:  MOVFF  B26,B27
0442A:  INCF   x27,F
0442C:  DECF   x27,F
0442E:  BTFSC  FD8.2
04430:  BRA    443C
04432:  SETF   x28
04434:  MOVLB  0
04436:  RCALL  42C0
04438:  MOVLB  B
0443A:  BRA    442C
0443C:  MOVFF  B25,B28
04440:  MOVLB  0
04442:  RCALL  42C0
04444:  INCF   28,F
04446:  BTFSC  FD8.2
04448:  INCF   29,F
0444A:  BRA    43DE
....................     } 
....................    return; 
0444C:  BRA    45C0
.................... } 
.................... //===============CONTROL LINEAL RETARDADO======== 
.................... if(c ==1){ 
0444E:  DECFSZ 16,W
04450:  BRA    45C0
....................   Percent = (l_wasted*100)/L_ahorro; 
04452:  MOVFF  37,B29
04456:  MOVFF  36,B28
0445A:  MOVLB  B
0445C:  CLRF   x2B
0445E:  MOVLW  64
04460:  MOVWF  x2A
04462:  MOVLB  0
04464:  CALL   1CFA
04468:  MOVFF  02,B26
0446C:  MOVFF  01,B25
04470:  MOVFF  02,B28
04474:  MOVFF  01,B27
04478:  MOVFF  39,B2A
0447C:  MOVFF  38,B29
04480:  RCALL  423E
04482:  MOVFF  02,35
04486:  MOVFF  01,34
....................   if(Percent >= 50){ 
0448A:  MOVF   35,F
0448C:  BNZ   4496
0448E:  MOVF   34,W
04490:  SUBLW  31
04492:  BTFSC  FD8.0
04494:  BRA    45C0
....................    pre_duty_cycle = (percent*0.0023)/100.0; 
04496:  MOVFF  35,B26
0449A:  MOVFF  34,B25
0449E:  CALL   2B66
044A2:  MOVFF  03,B35
044A6:  MOVFF  02,B34
044AA:  MOVFF  01,B33
044AE:  MOVFF  00,B32
044B2:  MOVLW  99
044B4:  MOVLB  B
044B6:  MOVWF  x39
044B8:  MOVLW  BB
044BA:  MOVWF  x38
044BC:  MOVLW  16
044BE:  MOVWF  x37
044C0:  MOVLW  76
044C2:  MOVWF  x36
044C4:  MOVLB  0
044C6:  CALL   34E0
044CA:  MOVFF  03,B28
044CE:  MOVFF  02,B27
044D2:  MOVFF  01,B26
044D6:  MOVFF  00,B25
044DA:  MOVFF  03,B2C
044DE:  MOVFF  02,B2B
044E2:  MOVFF  01,B2A
044E6:  MOVFF  00,B29
044EA:  MOVLB  B
044EC:  CLRF   x30
044EE:  CLRF   x2F
044F0:  MOVLW  48
044F2:  MOVWF  x2E
044F4:  MOVLW  85
044F6:  MOVWF  x2D
044F8:  MOVLB  0
044FA:  CALL   310A
044FE:  MOVFF  03,47
04502:  MOVFF  02,46
04506:  MOVFF  01,45
0450A:  MOVFF  00,44
....................    duty_cycle = pre_duty_cycle * 1000000; 
0450E:  MOVFF  47,B35
04512:  MOVFF  46,B34
04516:  MOVFF  45,B33
0451A:  MOVFF  44,B32
0451E:  MOVLB  B
04520:  CLRF   x39
04522:  MOVLW  24
04524:  MOVWF  x38
04526:  MOVLW  74
04528:  MOVWF  x37
0452A:  MOVLW  92
0452C:  MOVWF  x36
0452E:  MOVLB  0
04530:  CALL   34E0
04534:  MOVFF  03,B2A
04538:  MOVFF  02,B29
0453C:  MOVFF  01,B28
04540:  MOVFF  00,B27
04544:  RCALL  4284
04546:  MOVFF  02,33
0454A:  MOVFF  01,32
....................    for(i=0;i<20;i++){ 
0454E:  CLRF   29
04550:  CLRF   28
04552:  MOVF   29,F
04554:  BNZ   45C0
04556:  MOVF   28,W
04558:  SUBLW  13
0455A:  BNC   45C0
....................        output_low(PIN_B3); 
0455C:  BCF    F93.3
0455E:  BCF    F8A.3
....................        delay_us(1); 
04560:  BRA    4562
....................        output_high(PIN_B3); 
04562:  BCF    F93.3
04564:  BSF    F8A.3
....................        delay_us(duty_cycle); 
04566:  MOVFF  33,B25
0456A:  MOVLB  B
0456C:  INCF   x25,F
0456E:  DECF   x25,F
04570:  BTFSC  FD8.2
04572:  BRA    457E
04574:  SETF   x28
04576:  MOVLB  0
04578:  RCALL  42C0
0457A:  MOVLB  B
0457C:  BRA    456E
0457E:  MOVFF  32,B28
04582:  MOVLB  0
04584:  RCALL  42C0
....................        output_low(PIN_B3); 
04586:  BCF    F93.3
04588:  BCF    F8A.3
....................        delay_us(20000 - duty_cycle); 
0458A:  MOVLW  20
0458C:  BSF    FD8.0
0458E:  SUBFWB 32,W
04590:  MOVLB  B
04592:  MOVWF  x25
04594:  MOVLW  4E
04596:  SUBFWB 33,W
04598:  MOVWF  x26
0459A:  MOVFF  B26,B27
0459E:  INCF   x27,F
045A0:  DECF   x27,F
045A2:  BTFSC  FD8.2
045A4:  BRA    45B0
045A6:  SETF   x28
045A8:  MOVLB  0
045AA:  RCALL  42C0
045AC:  MOVLB  B
045AE:  BRA    45A0
045B0:  MOVFF  B25,B28
045B4:  MOVLB  0
045B6:  RCALL  42C0
045B8:  INCF   28,F
045BA:  BTFSC  FD8.2
045BC:  INCF   29,F
045BE:  BRA    4552
....................     }  
....................   }   
....................   return; 
.................... } 
045C0:  GOTO   7E22 (RETURN)
.................... } 
.................... //================================================================================= 
.................... //==========================PROGRAMA PRINCIPAL DEL SISTEMA============================ 
....................  
.................... void main(){ 
*
04F10:  CLRF   FF8
04F12:  BCF    FD0.7
04F14:  BSF    07.7
04F16:  MOVLW  70
04F18:  MOVWF  FD3
04F1A:  MOVF   FD3,W
04F1C:  BCF    FB8.3
04F1E:  MOVLW  0C
04F20:  MOVWF  FAF
04F22:  MOVLW  A2
04F24:  MOVWF  FAC
04F26:  MOVLW  90
04F28:  MOVWF  FAB
04F2A:  CLRF   29
04F2C:  CLRF   28
04F2E:  CLRF   2B
04F30:  CLRF   2A
04F32:  MOVLB  B
04F34:  CLRF   x24
04F36:  CLRF   x23
04F38:  MOVF   FC1,W
04F3A:  ANDLW  C0
04F3C:  IORLW  0F
04F3E:  MOVWF  FC1
04F40:  MOVLW  07
04F42:  MOVWF  FB4
04F44:  BRA    5174
04F46:  DATA 15,00
04F48:  DATA 81,53
04F4A:  DATA 49,53
04F4C:  DATA 54,45
04F4E:  DATA 4D,41
04F50:  DATA 20,45
04F52:  DATA 43,4F
04F54:  DATA 4E,4F
04F56:  DATA 4D,49
04F58:  DATA 5A,41
04F5A:  DATA 44,4F
04F5C:  DATA 52,00
04F5E:  DATA 14,01
04F60:  DATA 10,43
04F62:  DATA 6F,6E
04F64:  DATA 66,69
04F66:  DATA 67,75
04F68:  DATA 72,61
04F6A:  DATA 72,20
04F6C:  DATA 53,69
04F6E:  DATA 73,74
04F70:  DATA 65,6D
04F72:  DATA 61,3F
04F74:  DATA 00,13
04F76:  DATA 01,35
04F78:  DATA 48,6F
04F7A:  DATA 72,61
04F7C:  DATA 2F,46
04F7E:  DATA 65,63
04F80:  DATA 68,61
04F82:  DATA 20,41
04F84:  DATA 63,74
04F86:  DATA 75,61
04F88:  DATA 6C,3A
04F8A:  DATA 00,08
04F8C:  DATA 01,50
04F8E:  DATA 44,6F
04F90:  DATA 6D,69
04F92:  DATA 6E,67
04F94:  DATA 6F,00
04F96:  DATA 06,01
04F98:  DATA 70,4C
04F9A:  DATA 75,6E
04F9C:  DATA 65,73
04F9E:  DATA 00,07
04FA0:  DATA 01,90
04FA2:  DATA 4D,61
04FA4:  DATA 72,74
04FA6:  DATA 65,73
04FA8:  DATA 00,0A
04FAA:  DATA 01,B0
04FAC:  DATA 4D,69
04FAE:  DATA 65,72
04FB0:  DATA 63,6F
04FB2:  DATA 6C,65
04FB4:  DATA 73,00
04FB6:  DATA 07,01
04FB8:  DATA D0,4A
04FBA:  DATA 75,65
04FBC:  DATA 76,65
04FBE:  DATA 73,00
04FC0:  DATA 08,01
04FC2:  DATA F0,56
04FC4:  DATA 69,65
04FC6:  DATA 72,6E
04FC8:  DATA 65,73
04FCA:  DATA 00,07
04FCC:  DATA 02,10
04FCE:  DATA 53,61
04FD0:  DATA 62,61
04FD2:  DATA 64,6F
04FD4:  DATA 00,03
04FD6:  DATA 02,30
04FD8:  DATA 53,69
04FDA:  DATA 00,03
04FDC:  DATA 02,50
04FDE:  DATA 4E,6F
04FE0:  DATA 00,05
04FE2:  DATA 02,70
04FE4:  DATA 48,6F
04FE6:  DATA 72,61
04FE8:  DATA 00,06
04FEA:  DATA 02,90
04FEC:  DATA 46,65
04FEE:  DATA 63,68
04FF0:  DATA 61,00
04FF2:  DATA 0F,02
04FF4:  DATA B5,41
04FF6:  DATA 4A,55
04FF8:  DATA 53,54
04FFA:  DATA 45,20
04FFC:  DATA 44,45
04FFE:  DATA 20,48
05000:  DATA 4F,52
05002:  DATA 41,00
05004:  DATA 10,02
05006:  DATA E0,41
05008:  DATA 4A,55
0500A:  DATA 53,54
0500C:  DATA 45,20
0500E:  DATA 44,45
05010:  DATA 20,46
05012:  DATA 45,43
05014:  DATA 48,41
05016:  DATA 00,0E
05018:  DATA 03,05
0501A:  DATA 41,4A
0501C:  DATA 55,53
0501E:  DATA 54,45
05020:  DATA 20,45
05022:  DATA 45,50
05024:  DATA 52,4F
05026:  DATA 4D,00
05028:  DATA 03,03
0502A:  DATA 75,50
0502C:  DATA 4D,00
0502E:  DATA 0B,03
05030:  DATA 85,45
05032:  DATA 73,74
05034:  DATA 61,62
05036:  DATA 6C,65
05038:  DATA 63,65
0503A:  DATA 72,00
0503C:  DATA 06,04
0503E:  DATA 05,44
05040:  DATA 61,74
05042:  DATA 6F,73
05044:  DATA 00,0B
05046:  DATA 04,20
05048:  DATA 47,75
0504A:  DATA 61,72
0504C:  DATA 64,61
0504E:  DATA 64,6F
05050:  DATA 73,21
05052:  DATA 00,0F
05054:  DATA 04,40
05056:  DATA 53,69
05058:  DATA 73,74
0505A:  DATA 65,6D
0505C:  DATA 61,20
0505E:  DATA 6C,69
05060:  DATA 73,74
05062:  DATA 6F,21
05064:  DATA 00,0E
05066:  DATA 04,65
05068:  DATA 49,6E
0506A:  DATA 69,63
0506C:  DATA 69,61
0506E:  DATA 72,20
05070:  DATA 41,68
05072:  DATA 6F,72
05074:  DATA 61,00
05076:  DATA 14,04
05078:  DATA A0,44
0507A:  DATA 65,73
0507C:  DATA 65,61
0507E:  DATA 20,63
05080:  DATA 6F,6E
05082:  DATA 73,75
05084:  DATA 6C,74
05086:  DATA 61,72
05088:  DATA 20,6C
0508A:  DATA 6F,73
0508C:  DATA 00,15
0508E:  DATA 04,C0
05090:  DATA 63,6F
05092:  DATA 6E,73
05094:  DATA 75,6D
05096:  DATA 6F,73
05098:  DATA 20,61
0509A:  DATA 20,6C
0509C:  DATA 61,20
0509E:  DATA 66,65
050A0:  DATA 63,68
050A2:  DATA 61,3F
050A4:  DATA 00,07
050A6:  DATA 04,E0
050A8:  DATA 56,6F
050AA:  DATA 6C,76
050AC:  DATA 65,72
050AE:  DATA 00,0C
050B0:  DATA 05,05
050B2:  DATA 53,65
050B4:  DATA 6C,65
050B6:  DATA 63,63
050B8:  DATA 69,6F
050BA:  DATA 6E,61
050BC:  DATA 72,00
050BE:  DATA 11,05
050C0:  DATA 20,54
050C2:  DATA 49,50
050C4:  DATA 4F,20
050C6:  DATA 44,45
050C8:  DATA 20,43
050CA:  DATA 4F,4E
050CC:  DATA 54,52
050CE:  DATA 4F,4C
050D0:  DATA 3A,00
050D2:  DATA 13,05
050D4:  DATA 40,48
050D6:  DATA 61,62
050D8:  DATA 69,6C
050DA:  DATA 69,74
050DC:  DATA 61,72
050DE:  DATA 20,63
050E0:  DATA 6F,6E
050E2:  DATA 74,72
050E4:  DATA 6F,6C
050E6:  DATA 3F,00
050E8:  DATA 13,05
050EA:  DATA 65,43
050EC:  DATA 6F,6E
050EE:  DATA 73,75
050F0:  DATA 6D,6F
050F2:  DATA 20,4D
050F4:  DATA 61,78
050F6:  DATA 69,6D
050F8:  DATA 6F,28
050FA:  DATA 4C,29
050FC:  DATA 3A,00
050FE:  DATA 12,05
05100:  DATA 85,4C
05102:  DATA 49,4D
05104:  DATA 49,54
05106:  DATA 45,20
05108:  DATA 41,4C
0510A:  DATA 43,41
0510C:  DATA 4E,5A
0510E:  DATA 41,44
05110:  DATA 4F,21
05112:  DATA 00,05
05114:  DATA 05,C0
05116:  DATA 4C,65
05118:  DATA 65,72
0511A:  DATA 00,15
0511C:  DATA 04,80
0511E:  DATA 43,4F
05120:  DATA 4E,53
05122:  DATA 55,4C
05124:  DATA 54,41
05126:  DATA 20,44
05128:  DATA 45,20
0512A:  DATA 43,4F
0512C:  DATA 4E,53
0512E:  DATA 55,4D
05130:  DATA 4F,53
05132:  DATA 00,07
05134:  DATA 05,D0
05136:  DATA 42,6F
05138:  DATA 72,72
0513A:  DATA 61,72
0513C:  DATA 00,06
0513E:  DATA 05,E0
05140:  DATA 53,61
05142:  DATA 6C,69
05144:  DATA 72,00
05146:  DATA 04,05
05148:  DATA F0,2E
0514A:  DATA 2E,2E
0514C:  DATA 00,03
0514E:  DATA 03,60
05150:  DATA 41,4D
05152:  DATA 00,0B
05154:  DATA 0B,18
05156:  DATA 43,61
05158:  DATA 70,61
0515A:  DATA 63,69
0515C:  DATA 64,61
0515E:  DATA 64,3A
05160:  DATA 00,0E
05162:  DATA 03,45
05164:  DATA 4E,2F
05166:  DATA 41,20
05168:  DATA 20,2F
0516A:  DATA 20,34
0516C:  DATA 30,39
0516E:  DATA 36,20
05170:  DATA 42,00
05172:  DATA 00,00
05174:  MOVLW  00
05176:  MOVWF  FF8
05178:  MOVLW  4F
0517A:  MOVWF  FF7
0517C:  MOVLW  46
0517E:  MOVWF  FF6
05180:  TBLRD*+
05182:  MOVF   FF5,W
05184:  MOVWF  00
05186:  XORLW  00
05188:  BZ    51B0
0518A:  TBLRD*+
0518C:  MOVF   FF5,W
0518E:  MOVWF  01
05190:  BTFSC  FE8.7
05192:  BRA    519E
05194:  ANDLW  0F
05196:  MOVWF  FEA
05198:  TBLRD*+
0519A:  MOVFF  FF5,FE9
0519E:  BTFSC  01.6
051A0:  TBLRD*+
051A2:  BTFSS  01.6
051A4:  TBLRD*+
051A6:  MOVFF  FF5,FEE
051AA:  DCFSNZ 00,F
051AC:  BRA    5180
051AE:  BRA    51A2
051B0:  CLRF   FF8
....................      
.................... enable_interrupts(GLOBAL); 
051B2:  MOVLW  C0
051B4:  IORWF  FF2,F
.................... enable_interrupts(INT_EXT); 
051B6:  BSF    FF2.4
.................... enable_interrupts(INT_EXT1); 
051B8:  BSF    FF0.3
.................... enable_interrupts(INT_EXT2); 
051BA:  BSF    FF0.4
.................... enable_interrupts(INT_TIMER0); 
051BC:  BSF    FF2.5
.................... enable_interrupts(INT_TIMER1); 
051BE:  BSF    F9D.0
....................  
.................... setup_timer_0(RTCC_EXT_L_TO_H|RTCC_DIV_1| 0x00);  //TIMER0 EN 16 BITS //CAUDAL 1 
051C0:  MOVLW  A8
051C2:  MOVWF  FD5
.................... setup_timer_1(T1_EXTERNAL_SYNC|T1_DIV_BY_1);          //CAUDAL 2 
051C4:  MOVLW  83
051C6:  MOVWF  FCD
.................... setup_timer_3(T1_INTERNAL|T1_DIV_BY_2);     //SENSOR ULTRASNICO 
051C8:  MOVLW  95
051CA:  MOVWF  FB1
.................... setup_adc_ports(AN0,VSS_VDD);  
051CC:  MOVF   FC1,W
051CE:  ANDLW  C0
051D0:  IORLW  0E
051D2:  MOVWF  FC1
.................... setup_adc(ADC_CLOCK_DIV_32); 
051D4:  MOVF   FC0,W
051D6:  ANDLW  C0
051D8:  IORLW  02
051DA:  MOVWF  FC0
051DC:  BCF    FC0.7
051DE:  BSF    FC2.0
....................  
.................... REBOOT: 
....................  
.................... t0count = 0; 
051E0:  CLRF   63
051E2:  CLRF   62
051E4:  CLRF   61
051E6:  CLRF   60
.................... t1count = 0; 
051E8:  CLRF   6B
051EA:  CLRF   6A
051EC:  CLRF   69
051EE:  CLRF   68
.................... totalwater = 0; 
051F0:  CLRF   73
051F2:  CLRF   72
051F4:  CLRF   71
051F6:  CLRF   70
.................... L_wasted = 0; 
051F8:  CLRF   37
051FA:  CLRF   36
....................  
.................... set_timer0(0); 
051FC:  CLRF   FD7
051FE:  CLRF   FD6
.................... set_timer1(0); 
05200:  CLRF   FCF
05202:  CLRF   FCE
.................... set_timer3(0); 
05204:  CLRF   FB3
05206:  CLRF   FB2
....................  
.................... output_low(PIN_C1); //VALVULA LAVAMANOS 
05208:  BCF    F94.1
0520A:  BCF    F8B.1
.................... output_low(PIN_C2); //MOTOBOMBA 
0520C:  BCF    F94.2
0520E:  BCF    F8B.2
....................  
....................    glcd_init(ON);       // Inicializacin de GLCD 
05210:  MOVLW  01
05212:  MOVWF  x25
05214:  MOVLB  0
05216:  GOTO   1C56
....................    glcd_fillScreen(0); //LIMPIAMOS LA PANTALLA  
0521A:  MOVLB  B
0521C:  CLRF   x26
0521E:  MOVLB  0
05220:  CALL   1BC8
....................    glcd_portada(); 
05224:  GOTO   1E42
....................    delay_ms(2000); 
05228:  MOVLW  08
0522A:  MOVLB  B
0522C:  MOVWF  x25
0522E:  MOVLW  FA
05230:  MOVWF  x2D
05232:  MOVLB  0
05234:  CALL   1EEA
05238:  MOVLB  B
0523A:  DECFSZ x25,F
0523C:  BRA    522E
....................     
....................    glcd_fillScreen(0); //============== 
0523E:  CLRF   x26
05240:  MOVLB  0
05242:  CALL   1BC8
.................... //   storeDATA(); 
.................... //   goto SIGUIENTE2; 
.................... //   goto BORRAR_EEPROM; 
.................... //   goto EMPEZAR; 
....................     
....................    ds1307_init(); 
05246:  GOTO   1FBE
....................    glcd_rect(0,0,127,63,NO,ON); 
0524A:  MOVLB  B
0524C:  CLRF   x25
0524E:  CLRF   x26
05250:  MOVLW  7F
05252:  MOVWF  x27
05254:  MOVLW  3F
05256:  MOVWF  x28
05258:  CLRF   x29
0525A:  MOVLW  01
0525C:  MOVWF  x2A
0525E:  MOVLB  0
05260:  CALL   21D8
....................    glcd_rect(1,1,126,62,NO,ON); 
05264:  MOVLW  01
05266:  MOVLB  B
05268:  MOVWF  x25
0526A:  MOVWF  x26
0526C:  MOVLW  7E
0526E:  MOVWF  x27
05270:  MOVLW  3E
05272:  MOVWF  x28
05274:  CLRF   x29
05276:  MOVLW  01
05278:  MOVWF  x2A
0527A:  MOVLB  0
0527C:  CALL   21D8
....................    glcd_text57(5,5,MENSAJE1, 1, 1); 
05280:  MOVLW  05
05282:  MOVLB  B
05284:  MOVWF  x25
05286:  MOVWF  x26
05288:  CLRF   x28
0528A:  MOVLW  81
0528C:  MOVWF  x27
0528E:  MOVLW  01
05290:  MOVWF  x29
05292:  MOVWF  x2A
05294:  MOVLB  0
05296:  CALL   229A
....................    glcd_text57(8,20,SETTIME, 1, 1); 
0529A:  MOVLW  08
0529C:  MOVLB  B
0529E:  MOVWF  x25
052A0:  MOVLW  14
052A2:  MOVWF  x26
052A4:  MOVLW  01
052A6:  MOVWF  x28
052A8:  MOVLW  10
052AA:  MOVWF  x27
052AC:  MOVLW  01
052AE:  MOVWF  x29
052B0:  MOVWF  x2A
052B2:  MOVLB  0
052B4:  CALL   229A
....................    glcd_rect(5,37,61,58,YES,ON); 
052B8:  MOVLW  05
052BA:  MOVLB  B
052BC:  MOVWF  x25
052BE:  MOVLW  25
052C0:  MOVWF  x26
052C2:  MOVLW  3D
052C4:  MOVWF  x27
052C6:  MOVLW  3A
052C8:  MOVWF  x28
052CA:  MOVLW  01
052CC:  MOVWF  x29
052CE:  MOVWF  x2A
052D0:  MOVLB  0
052D2:  CALL   21D8
....................    glcd_rect(65,37,120,58,YES,ON); 
052D6:  MOVLW  41
052D8:  MOVLB  B
052DA:  MOVWF  x25
052DC:  MOVLW  25
052DE:  MOVWF  x26
052E0:  MOVLW  78
052E2:  MOVWF  x27
052E4:  MOVLW  3A
052E6:  MOVWF  x28
052E8:  MOVLW  01
052EA:  MOVWF  x29
052EC:  MOVWF  x2A
052EE:  MOVLB  0
052F0:  CALL   21D8
....................    glcd_text57(28,44,SI, 1, 0); 
052F4:  MOVLW  1C
052F6:  MOVLB  B
052F8:  MOVWF  x25
052FA:  MOVLW  2C
052FC:  MOVWF  x26
052FE:  MOVLW  02
05300:  MOVWF  x28
05302:  MOVLW  30
05304:  MOVWF  x27
05306:  MOVLW  01
05308:  MOVWF  x29
0530A:  CLRF   x2A
0530C:  MOVLB  0
0530E:  CALL   229A
....................    glcd_text57(86,44,NOO, 1, 0); 
05312:  MOVLW  56
05314:  MOVLB  B
05316:  MOVWF  x25
05318:  MOVLW  2C
0531A:  MOVWF  x26
0531C:  MOVLW  02
0531E:  MOVWF  x28
05320:  MOVLW  50
05322:  MOVWF  x27
05324:  MOVLW  01
05326:  MOVWF  x29
05328:  CLRF   x2A
0532A:  MOVLB  0
0532C:  CALL   229A
....................     
....................    glcd_rect(6,38,60,57,NO,OFF); 
05330:  MOVLW  06
05332:  MOVLB  B
05334:  MOVWF  x25
05336:  MOVLW  26
05338:  MOVWF  x26
0533A:  MOVLW  3C
0533C:  MOVWF  x27
0533E:  MOVLW  39
05340:  MOVWF  x28
05342:  CLRF   x29
05344:  CLRF   x2A
05346:  MOVLB  0
05348:  CALL   21D8
....................    //glcd_rect(65,37,120,58,YES,ON); 
....................     
....................    set_adc_channel(0); 
0534C:  MOVLW  00
0534E:  MOVWF  01
05350:  MOVF   FC2,W
05352:  ANDLW  C3
05354:  IORWF  01,W
05356:  MOVWF  FC2
....................    delay_us(20); 
05358:  MOVLW  0C
0535A:  MOVWF  00
0535C:  DECFSZ 00,F
0535E:  BRA    535C
05360:  BRA    5362
05362:  NOP   
....................     
....................    START1: 
....................     
....................    s = read_adc(); 
05364:  BSF    FC2.1
05366:  BTFSC  FC2.1
05368:  BRA    5366
0536A:  MOVFF  FC4,26
....................    delay_ms(100); //*************************** 
0536E:  MOVLW  64
05370:  MOVLB  B
05372:  MOVWF  x2D
05374:  MOVLB  0
05376:  CALL   1EEA
....................     
....................    while(s > 240){ 
0537A:  MOVF   26,W
0537C:  SUBLW  F0
0537E:  BC    5398
....................     s = read_adc(); 
05380:  BSF    FC2.1
05382:  BTFSC  FC2.1
05384:  BRA    5382
05386:  MOVFF  FC4,26
....................     delay_ms(50); 
0538A:  MOVLW  32
0538C:  MOVLB  B
0538E:  MOVWF  x2D
05390:  MOVLB  0
05392:  CALL   1EEA
05396:  BRA    537A
....................    } 
....................     
....................    if(s > 195 && s < 225) //enter 
05398:  MOVF   26,W
0539A:  SUBLW  C3
0539C:  BC    53A8
0539E:  MOVF   26,W
053A0:  SUBLW  E0
053A2:  BNC   53A8
....................        goto CONF_RTC; 
053A4:  BRA    549A
053A6:  BRA    5498
....................    else if (s > 165 &&  s < 185){ 
053A8:  MOVF   26,W
053AA:  SUBLW  A5
053AC:  BTFSC  FD8.0
053AE:  BRA    5498
053B0:  MOVF   26,W
053B2:  SUBLW  B8
053B4:  BTFSS  FD8.0
053B6:  BRA    5498
....................        glcd_rect(6,38,60,57,NO,ON); 
053B8:  MOVLW  06
053BA:  MOVLB  B
053BC:  MOVWF  x25
053BE:  MOVLW  26
053C0:  MOVWF  x26
053C2:  MOVLW  3C
053C4:  MOVWF  x27
053C6:  MOVLW  39
053C8:  MOVWF  x28
053CA:  CLRF   x29
053CC:  MOVLW  01
053CE:  MOVWF  x2A
053D0:  MOVLB  0
053D2:  CALL   21D8
....................        glcd_rect(66,38,119,57,NO,OFF); 
053D6:  MOVLW  42
053D8:  MOVLB  B
053DA:  MOVWF  x25
053DC:  MOVLW  26
053DE:  MOVWF  x26
053E0:  MOVLW  77
053E2:  MOVWF  x27
053E4:  MOVLW  39
053E6:  MOVWF  x28
053E8:  CLRF   x29
053EA:  CLRF   x2A
053EC:  MOVLB  0
053EE:  CALL   21D8
....................        delay_ms(100); 
053F2:  MOVLW  64
053F4:  MOVLB  B
053F6:  MOVWF  x2D
053F8:  MOVLB  0
053FA:  CALL   1EEA
....................        s = read_adc(); 
053FE:  BSF    FC2.1
05400:  BTFSC  FC2.1
05402:  BRA    5400
05404:  MOVFF  FC4,26
....................        delay_us(40); 
05408:  MOVLW  1A
0540A:  MOVWF  00
0540C:  DECFSZ 00,F
0540E:  BRA    540C
05410:  NOP   
....................        while(s > 240){ 
05412:  MOVF   26,W
05414:  SUBLW  F0
05416:  BC    5430
....................             s = read_adc(); 
05418:  BSF    FC2.1
0541A:  BTFSC  FC2.1
0541C:  BRA    541A
0541E:  MOVFF  FC4,26
....................             delay_ms(50);//************************* 
05422:  MOVLW  32
05424:  MOVLB  B
05426:  MOVWF  x2D
05428:  MOVLB  0
0542A:  CALL   1EEA
0542E:  BRA    5412
....................             } 
....................        if(s > 195 && s < 225) 
05430:  MOVF   26,W
05432:  SUBLW  C3
05434:  BC    5440
05436:  MOVF   26,W
05438:  SUBLW  E0
0543A:  BNC   5440
....................            goto SISTEMA; 
0543C:  GOTO   761C
....................        if(s > 115 && s < 135){ 
05440:  MOVF   26,W
05442:  SUBLW  73
05444:  BC    5496
05446:  MOVF   26,W
05448:  SUBLW  86
0544A:  BNC   5496
....................            glcd_rect(66,38,119,57,NO,ON); 
0544C:  MOVLW  42
0544E:  MOVLB  B
05450:  MOVWF  x25
05452:  MOVLW  26
05454:  MOVWF  x26
05456:  MOVLW  77
05458:  MOVWF  x27
0545A:  MOVLW  39
0545C:  MOVWF  x28
0545E:  CLRF   x29
05460:  MOVLW  01
05462:  MOVWF  x2A
05464:  MOVLB  0
05466:  CALL   21D8
....................            glcd_rect(6,38,60,57,NO,OFF); 
0546A:  MOVLW  06
0546C:  MOVLB  B
0546E:  MOVWF  x25
05470:  MOVLW  26
05472:  MOVWF  x26
05474:  MOVLW  3C
05476:  MOVWF  x27
05478:  MOVLW  39
0547A:  MOVWF  x28
0547C:  CLRF   x29
0547E:  CLRF   x2A
05480:  MOVLB  0
05482:  CALL   21D8
....................            delay_ms(50); 
05486:  MOVLW  32
05488:  MOVLB  B
0548A:  MOVWF  x2D
0548C:  MOVLB  0
0548E:  CALL   1EEA
....................            goto START1; 
05492:  BRA    5364
....................        }    
05494:  BRA    5498
....................        else  
....................            goto START1; 
05496:  BRA    5364
....................    } 
....................     goto START1; 
05498:  BRA    5364
....................      
....................     
....................   CONF_RTC:  
....................   glcd_fillScreen(0); 
0549A:  MOVLB  B
0549C:  CLRF   x26
0549E:  MOVLB  0
054A0:  CALL   1BC8
....................   glcd_rect(0,0,127,63,NO,ON); 
054A4:  MOVLB  B
054A6:  CLRF   x25
054A8:  CLRF   x26
054AA:  MOVLW  7F
054AC:  MOVWF  x27
054AE:  MOVLW  3F
054B0:  MOVWF  x28
054B2:  CLRF   x29
054B4:  MOVLW  01
054B6:  MOVWF  x2A
054B8:  MOVLB  0
054BA:  CALL   21D8
....................   glcd_rect(1,1,126,62,NO,ON); 
054BE:  MOVLW  01
054C0:  MOVLB  B
054C2:  MOVWF  x25
054C4:  MOVWF  x26
054C6:  MOVLW  7E
054C8:  MOVWF  x27
054CA:  MOVLW  3E
054CC:  MOVWF  x28
054CE:  CLRF   x29
054D0:  MOVLW  01
054D2:  MOVWF  x2A
054D4:  MOVLB  0
054D6:  CALL   21D8
....................   glcd_text57(5,5,TIMENOW, 1, 1); 
054DA:  MOVLW  05
054DC:  MOVLB  B
054DE:  MOVWF  x25
054E0:  MOVWF  x26
054E2:  MOVLW  01
054E4:  MOVWF  x28
054E6:  MOVLW  35
054E8:  MOVWF  x27
054EA:  MOVLW  01
054EC:  MOVWF  x29
054EE:  MOVWF  x2A
054F0:  MOVLB  0
054F2:  CALL   229A
....................   leerRTC(); 
054F6:  CALL   247E
....................   sprintf(Pgeneral,"\%02d:\%02d:\%02d \%cM", hr,min,sec,time); 
054FA:  MOVLW  05
054FC:  MOVLB  B
054FE:  MOVWF  x24
05500:  MOVLW  A0
05502:  MOVWF  x23
05504:  MOVFF  1E,B25
05508:  MOVLW  01
0550A:  MOVWF  x26
0550C:  MOVLB  0
0550E:  CALL   2650
05512:  MOVLW  3A
05514:  MOVLB  B
05516:  MOVWF  x32
05518:  MOVLB  0
0551A:  CALL   2630
0551E:  MOVFF  1F,B25
05522:  MOVLW  01
05524:  MOVLB  B
05526:  MOVWF  x26
05528:  MOVLB  0
0552A:  CALL   2650
0552E:  MOVLW  3A
05530:  MOVLB  B
05532:  MOVWF  x32
05534:  MOVLB  0
05536:  CALL   2630
0553A:  MOVFF  20,B25
0553E:  MOVLW  01
05540:  MOVLB  B
05542:  MOVWF  x26
05544:  MOVLB  0
05546:  CALL   2650
0554A:  MOVLW  20
0554C:  MOVLB  B
0554E:  MOVWF  x32
05550:  MOVLB  0
05552:  CALL   2630
05556:  MOVFF  B17,B32
0555A:  CALL   2630
0555E:  MOVLW  4D
05560:  MOVLB  B
05562:  MOVWF  x32
05564:  MOVLB  0
05566:  CALL   2630
....................   glcd_text57(5,15,Pgeneral, 1, 1); 
0556A:  MOVLW  05
0556C:  MOVLB  B
0556E:  MOVWF  x25
05570:  MOVLW  0F
05572:  MOVWF  x26
05574:  MOVLW  05
05576:  MOVWF  x28
05578:  MOVLW  A0
0557A:  MOVWF  x27
0557C:  MOVLW  01
0557E:  MOVWF  x29
05580:  MOVWF  x2A
05582:  MOVLB  0
05584:  CALL   229A
....................   sprintf(Pgeneral,"\%02d/\%02d/\%02d", dia,mes,yr); 
05588:  MOVLW  05
0558A:  MOVLB  B
0558C:  MOVWF  x24
0558E:  MOVLW  A0
05590:  MOVWF  x23
05592:  MOVFF  22,B25
05596:  MOVLW  01
05598:  MOVWF  x26
0559A:  MOVLB  0
0559C:  CALL   2650
055A0:  MOVLW  2F
055A2:  MOVLB  B
055A4:  MOVWF  x32
055A6:  MOVLB  0
055A8:  CALL   2630
055AC:  MOVFF  23,B25
055B0:  MOVLW  01
055B2:  MOVLB  B
055B4:  MOVWF  x26
055B6:  MOVLB  0
055B8:  CALL   2650
055BC:  MOVLW  2F
055BE:  MOVLB  B
055C0:  MOVWF  x32
055C2:  MOVLB  0
055C4:  CALL   2630
055C8:  MOVFF  25,B25
055CC:  MOVLW  01
055CE:  MOVLB  B
055D0:  MOVWF  x26
055D2:  MOVLB  0
055D4:  CALL   2650
....................   glcd_text57(5,25,Pgeneral, 1, 1); 
055D8:  MOVLW  05
055DA:  MOVLB  B
055DC:  MOVWF  x25
055DE:  MOVLW  19
055E0:  MOVWF  x26
055E2:  MOVLW  05
055E4:  MOVWF  x28
055E6:  MOVLW  A0
055E8:  MOVWF  x27
055EA:  MOVLW  01
055EC:  MOVWF  x29
055EE:  MOVWF  x2A
055F0:  MOVLB  0
055F2:  CALL   229A
....................  
....................     if(dow == 1) 
055F6:  DECFSZ 24,W
055F8:  BRA    5618
....................       glcd_text57(60,25,DOMINGO, 1, 1); 
055FA:  MOVLW  3C
055FC:  MOVLB  B
055FE:  MOVWF  x25
05600:  MOVLW  19
05602:  MOVWF  x26
05604:  MOVLW  01
05606:  MOVWF  x28
05608:  MOVLW  50
0560A:  MOVWF  x27
0560C:  MOVLW  01
0560E:  MOVWF  x29
05610:  MOVWF  x2A
05612:  MOVLB  0
05614:  CALL   229A
....................     if(dow == 2) 
05618:  MOVF   24,W
0561A:  SUBLW  02
0561C:  BNZ   563C
....................       glcd_text57(60,25,LUNES, 1, 1); 
0561E:  MOVLW  3C
05620:  MOVLB  B
05622:  MOVWF  x25
05624:  MOVLW  19
05626:  MOVWF  x26
05628:  MOVLW  01
0562A:  MOVWF  x28
0562C:  MOVLW  70
0562E:  MOVWF  x27
05630:  MOVLW  01
05632:  MOVWF  x29
05634:  MOVWF  x2A
05636:  MOVLB  0
05638:  CALL   229A
....................     if(dow == 3) 
0563C:  MOVF   24,W
0563E:  SUBLW  03
05640:  BNZ   5660
....................       glcd_text57(60,25,MARTES, 1, 1); 
05642:  MOVLW  3C
05644:  MOVLB  B
05646:  MOVWF  x25
05648:  MOVLW  19
0564A:  MOVWF  x26
0564C:  MOVLW  01
0564E:  MOVWF  x28
05650:  MOVLW  90
05652:  MOVWF  x27
05654:  MOVLW  01
05656:  MOVWF  x29
05658:  MOVWF  x2A
0565A:  MOVLB  0
0565C:  CALL   229A
....................     if(dow == 4) 
05660:  MOVF   24,W
05662:  SUBLW  04
05664:  BNZ   5684
....................       glcd_text57(60,25,MIERCOLES, 1, 1); 
05666:  MOVLW  3C
05668:  MOVLB  B
0566A:  MOVWF  x25
0566C:  MOVLW  19
0566E:  MOVWF  x26
05670:  MOVLW  01
05672:  MOVWF  x28
05674:  MOVLW  B0
05676:  MOVWF  x27
05678:  MOVLW  01
0567A:  MOVWF  x29
0567C:  MOVWF  x2A
0567E:  MOVLB  0
05680:  CALL   229A
....................     if(dow == 5) 
05684:  MOVF   24,W
05686:  SUBLW  05
05688:  BNZ   56A8
....................       glcd_text57(60,25,JUEVES, 1, 1); 
0568A:  MOVLW  3C
0568C:  MOVLB  B
0568E:  MOVWF  x25
05690:  MOVLW  19
05692:  MOVWF  x26
05694:  MOVLW  01
05696:  MOVWF  x28
05698:  MOVLW  D0
0569A:  MOVWF  x27
0569C:  MOVLW  01
0569E:  MOVWF  x29
056A0:  MOVWF  x2A
056A2:  MOVLB  0
056A4:  CALL   229A
....................     if(dow == 6) 
056A8:  MOVF   24,W
056AA:  SUBLW  06
056AC:  BNZ   56CC
....................       glcd_text57(60,25,VIERNES, 1, 1); 
056AE:  MOVLW  3C
056B0:  MOVLB  B
056B2:  MOVWF  x25
056B4:  MOVLW  19
056B6:  MOVWF  x26
056B8:  MOVLW  01
056BA:  MOVWF  x28
056BC:  MOVLW  F0
056BE:  MOVWF  x27
056C0:  MOVLW  01
056C2:  MOVWF  x29
056C4:  MOVWF  x2A
056C6:  MOVLB  0
056C8:  CALL   229A
....................     if(dow == 7) 
056CC:  MOVF   24,W
056CE:  SUBLW  07
056D0:  BNZ   56F0
....................       glcd_text57(60,25,SABADO, 1, 1); 
056D2:  MOVLW  3C
056D4:  MOVLB  B
056D6:  MOVWF  x25
056D8:  MOVLW  19
056DA:  MOVWF  x26
056DC:  MOVLW  02
056DE:  MOVWF  x28
056E0:  MOVLW  10
056E2:  MOVWF  x27
056E4:  MOVLW  01
056E6:  MOVWF  x29
056E8:  MOVWF  x2A
056EA:  MOVLB  0
056EC:  CALL   229A
....................    
....................    glcd_rect(8,37,43,58,YES,ON); 
056F0:  MOVLW  08
056F2:  MOVLB  B
056F4:  MOVWF  x25
056F6:  MOVLW  25
056F8:  MOVWF  x26
056FA:  MOVLW  2B
056FC:  MOVWF  x27
056FE:  MOVLW  3A
05700:  MOVWF  x28
05702:  MOVLW  01
05704:  MOVWF  x29
05706:  MOVWF  x2A
05708:  MOVLB  0
0570A:  CALL   21D8
....................    glcd_rect(46,37,81,58,YES,ON); 
0570E:  MOVLW  2E
05710:  MOVLB  B
05712:  MOVWF  x25
05714:  MOVLW  25
05716:  MOVWF  x26
05718:  MOVLW  51
0571A:  MOVWF  x27
0571C:  MOVLW  3A
0571E:  MOVWF  x28
05720:  MOVLW  01
05722:  MOVWF  x29
05724:  MOVWF  x2A
05726:  MOVLB  0
05728:  CALL   21D8
....................    glcd_rect(84,37,119,58,YES,ON); 
0572C:  MOVLW  54
0572E:  MOVLB  B
05730:  MOVWF  x25
05732:  MOVLW  25
05734:  MOVWF  x26
05736:  MOVLW  77
05738:  MOVWF  x27
0573A:  MOVLW  3A
0573C:  MOVWF  x28
0573E:  MOVLW  01
05740:  MOVWF  x29
05742:  MOVWF  x2A
05744:  MOVLB  0
05746:  CALL   21D8
....................     
....................  //=============================== 
....................    arrow(); 
0574A:  CALL   270C
.................... //=============================== 
....................     
....................    glcd_rect(9,38,42,57,NO,OFF); 
0574E:  MOVLW  09
05750:  MOVLB  B
05752:  MOVWF  x25
05754:  MOVLW  26
05756:  MOVWF  x26
05758:  MOVLW  2A
0575A:  MOVWF  x27
0575C:  MOVLW  39
0575E:  MOVWF  x28
05760:  CLRF   x29
05762:  CLRF   x2A
05764:  MOVLB  0
05766:  CALL   21D8
....................     
.................... //   glcd_rect(47,38,80,57,NO,OFF); 
.................... //   glcd_rect(85,38,118,57,NO,OFF); 
....................  
....................    glcd_text57(14,45,SET_TIME, 1, 0);   
0576A:  MOVLW  0E
0576C:  MOVLB  B
0576E:  MOVWF  x25
05770:  MOVLW  2D
05772:  MOVWF  x26
05774:  MOVLW  02
05776:  MOVWF  x28
05778:  MOVLW  70
0577A:  MOVWF  x27
0577C:  MOVLW  01
0577E:  MOVWF  x29
05780:  CLRF   x2A
05782:  MOVLB  0
05784:  CALL   229A
....................    glcd_text57(49,45,SETDATE, 1, 0);  
05788:  MOVLW  31
0578A:  MOVLB  B
0578C:  MOVWF  x25
0578E:  MOVLW  2D
05790:  MOVWF  x26
05792:  MOVLW  02
05794:  MOVWF  x28
05796:  MOVLW  90
05798:  MOVWF  x27
0579A:  MOVLW  01
0579C:  MOVWF  x29
0579E:  CLRF   x2A
057A0:  MOVLB  0
057A2:  CALL   229A
.................... //================================================================     
.................... //================================================================   
....................   START2: 
....................   s = read_adc(); 
057A6:  BSF    FC2.1
057A8:  BTFSC  FC2.1
057AA:  BRA    57A8
057AC:  MOVFF  FC4,26
....................   delay_ms(50); 
057B0:  MOVLW  32
057B2:  MOVLB  B
057B4:  MOVWF  x2D
057B6:  MOVLB  0
057B8:  CALL   1EEA
....................    
....................   while(s>230){ 
057BC:  MOVF   26,W
057BE:  SUBLW  E6
057C0:  BC    589E
....................   leerRTC(); 
057C2:  CALL   247E
....................   delay_ms(50); 
057C6:  MOVLW  32
057C8:  MOVLB  B
057CA:  MOVWF  x2D
057CC:  MOVLB  0
057CE:  CALL   1EEA
....................    
....................       if(sec != oldsec){ 
057D2:  MOVF   21,W
057D4:  SUBWF  20,W
057D6:  BZ    5888
....................           glcd_text57(5,15,Pgeneral, 1, 0);   
057D8:  MOVLW  05
057DA:  MOVLB  B
057DC:  MOVWF  x25
057DE:  MOVLW  0F
057E0:  MOVWF  x26
057E2:  MOVLW  05
057E4:  MOVWF  x28
057E6:  MOVLW  A0
057E8:  MOVWF  x27
057EA:  MOVLW  01
057EC:  MOVWF  x29
057EE:  CLRF   x2A
057F0:  MOVLB  0
057F2:  CALL   229A
....................           sprintf(Pgeneral,"\%02d:\%02d:\%02d \%cM", hr,min,sec,time); 
057F6:  MOVLW  05
057F8:  MOVLB  B
057FA:  MOVWF  x24
057FC:  MOVLW  A0
057FE:  MOVWF  x23
05800:  MOVFF  1E,B25
05804:  MOVLW  01
05806:  MOVWF  x26
05808:  MOVLB  0
0580A:  CALL   2650
0580E:  MOVLW  3A
05810:  MOVLB  B
05812:  MOVWF  x32
05814:  MOVLB  0
05816:  CALL   2630
0581A:  MOVFF  1F,B25
0581E:  MOVLW  01
05820:  MOVLB  B
05822:  MOVWF  x26
05824:  MOVLB  0
05826:  CALL   2650
0582A:  MOVLW  3A
0582C:  MOVLB  B
0582E:  MOVWF  x32
05830:  MOVLB  0
05832:  CALL   2630
05836:  MOVFF  20,B25
0583A:  MOVLW  01
0583C:  MOVLB  B
0583E:  MOVWF  x26
05840:  MOVLB  0
05842:  CALL   2650
05846:  MOVLW  20
05848:  MOVLB  B
0584A:  MOVWF  x32
0584C:  MOVLB  0
0584E:  CALL   2630
05852:  MOVFF  B17,B32
05856:  CALL   2630
0585A:  MOVLW  4D
0585C:  MOVLB  B
0585E:  MOVWF  x32
05860:  MOVLB  0
05862:  CALL   2630
....................           glcd_text57(5,15,Pgeneral, 1, 1);   
05866:  MOVLW  05
05868:  MOVLB  B
0586A:  MOVWF  x25
0586C:  MOVLW  0F
0586E:  MOVWF  x26
05870:  MOVLW  05
05872:  MOVWF  x28
05874:  MOVLW  A0
05876:  MOVWF  x27
05878:  MOVLW  01
0587A:  MOVWF  x29
0587C:  MOVWF  x2A
0587E:  MOVLB  0
05880:  CALL   229A
....................           oldsec = sec;    
05884:  MOVFF  20,21
....................       } 
....................    
....................   s = read_adc(); 
05888:  BSF    FC2.1
0588A:  BTFSC  FC2.1
0588C:  BRA    588A
0588E:  MOVFF  FC4,26
....................   delay_us(40); 
05892:  MOVLW  1A
05894:  MOVWF  00
05896:  DECFSZ 00,F
05898:  BRA    5896
0589A:  NOP   
0589C:  BRA    57BC
....................   } 
....................    
....................    if(s > 195 && s < 225) //enter 
0589E:  MOVF   26,W
058A0:  SUBLW  C3
058A2:  BC    58AE
058A4:  MOVF   26,W
058A6:  SUBLW  E0
058A8:  BNC   58AE
....................        goto CONF_HORA; 
058AA:  BRA    5ABC
058AC:  BRA    5ABA
....................    else if (s > 165 &&  s < 185){ 
058AE:  MOVF   26,W
058B0:  SUBLW  A5
058B2:  BTFSC  FD8.0
058B4:  BRA    5ABA
058B6:  MOVF   26,W
058B8:  SUBLW  B8
058BA:  BTFSS  FD8.0
058BC:  BRA    5ABA
....................        Return1: 
....................        glcd_rect(9,38,42,57,NO,ON); 
058BE:  MOVLW  09
058C0:  MOVLB  B
058C2:  MOVWF  x25
058C4:  MOVLW  26
058C6:  MOVWF  x26
058C8:  MOVLW  2A
058CA:  MOVWF  x27
058CC:  MOVLW  39
058CE:  MOVWF  x28
058D0:  CLRF   x29
058D2:  MOVLW  01
058D4:  MOVWF  x2A
058D6:  MOVLB  0
058D8:  CALL   21D8
....................        glcd_rect(47,38,80,57,NO,OFF); 
058DC:  MOVLW  2F
058DE:  MOVLB  B
058E0:  MOVWF  x25
058E2:  MOVLW  26
058E4:  MOVWF  x26
058E6:  MOVLW  50
058E8:  MOVWF  x27
058EA:  MOVLW  39
058EC:  MOVWF  x28
058EE:  CLRF   x29
058F0:  CLRF   x2A
058F2:  MOVLB  0
058F4:  CALL   21D8
....................        glcd_rect(85,38,118,57,NO,ON); 
058F8:  MOVLW  55
058FA:  MOVLB  B
058FC:  MOVWF  x25
058FE:  MOVLW  26
05900:  MOVWF  x26
05902:  MOVLW  76
05904:  MOVWF  x27
05906:  MOVLW  39
05908:  MOVWF  x28
0590A:  CLRF   x29
0590C:  MOVLW  01
0590E:  MOVWF  x2A
05910:  MOVLB  0
05912:  CALL   21D8
....................        delay_ms(500); 
05916:  MOVLW  02
05918:  MOVLB  B
0591A:  MOVWF  x25
0591C:  MOVLW  FA
0591E:  MOVWF  x2D
05920:  MOVLB  0
05922:  CALL   1EEA
05926:  MOVLB  B
05928:  DECFSZ x25,F
0592A:  BRA    591C
....................        s = read_adc(); 
0592C:  BSF    FC2.1
0592E:  BTFSC  FC2.1
05930:  BRA    592E
05932:  MOVFF  FC4,26
....................        delay_ms(50); 
05936:  MOVLW  32
05938:  MOVWF  x2D
0593A:  MOVLB  0
0593C:  CALL   1EEA
....................        while(s > 240){ 
05940:  MOVF   26,W
05942:  SUBLW  F0
05944:  BC    595E
....................             s = read_adc(); 
05946:  BSF    FC2.1
05948:  BTFSC  FC2.1
0594A:  BRA    5948
0594C:  MOVFF  FC4,26
....................             delay_ms(50);//******************** 
05950:  MOVLW  32
05952:  MOVLB  B
05954:  MOVWF  x2D
05956:  MOVLB  0
05958:  CALL   1EEA
0595C:  BRA    5940
....................             } 
....................        if(s > 195 && s < 225) //enter 
0595E:  MOVF   26,W
05960:  SUBLW  C3
05962:  BC    596E
05964:  MOVF   26,W
05966:  SUBLW  E0
05968:  BNC   596E
....................            goto CONF_FECHA; 
0596A:  GOTO   6212
....................        if(s > 115 && s < 135){ //devolver 
0596E:  MOVF   26,W
05970:  SUBLW  73
05972:  BC    59E2
05974:  MOVF   26,W
05976:  SUBLW  86
05978:  BNC   59E2
....................             
....................            glcd_rect(9,38,42,57,NO,OFF); 
0597A:  MOVLW  09
0597C:  MOVLB  B
0597E:  MOVWF  x25
05980:  MOVLW  26
05982:  MOVWF  x26
05984:  MOVLW  2A
05986:  MOVWF  x27
05988:  MOVLW  39
0598A:  MOVWF  x28
0598C:  CLRF   x29
0598E:  CLRF   x2A
05990:  MOVLB  0
05992:  CALL   21D8
....................            glcd_rect(47,38,80,57,NO,ON); 
05996:  MOVLW  2F
05998:  MOVLB  B
0599A:  MOVWF  x25
0599C:  MOVLW  26
0599E:  MOVWF  x26
059A0:  MOVLW  50
059A2:  MOVWF  x27
059A4:  MOVLW  39
059A6:  MOVWF  x28
059A8:  CLRF   x29
059AA:  MOVLW  01
059AC:  MOVWF  x2A
059AE:  MOVLB  0
059B0:  CALL   21D8
....................            glcd_rect(85,38,118,57,NO,ON); 
059B4:  MOVLW  55
059B6:  MOVLB  B
059B8:  MOVWF  x25
059BA:  MOVLW  26
059BC:  MOVWF  x26
059BE:  MOVLW  76
059C0:  MOVWF  x27
059C2:  MOVLW  39
059C4:  MOVWF  x28
059C6:  CLRF   x29
059C8:  MOVLW  01
059CA:  MOVWF  x2A
059CC:  MOVLB  0
059CE:  CALL   21D8
....................            delay_ms(50); 
059D2:  MOVLW  32
059D4:  MOVLB  B
059D6:  MOVWF  x2D
059D8:  MOVLB  0
059DA:  CALL   1EEA
....................            goto START2; 
059DE:  BRA    57A6
....................        }    
059E0:  BRA    5ABA
....................        else if(s > 165 &&  s < 185){ //avanzar 
059E2:  MOVF   26,W
059E4:  SUBLW  A5
059E6:  BTFSC  FD8.0
059E8:  BRA    5ABA
059EA:  MOVF   26,W
059EC:  SUBLW  B8
059EE:  BNC   5ABA
....................            glcd_rect(9,38,42,57,NO,ON); 
059F0:  MOVLW  09
059F2:  MOVLB  B
059F4:  MOVWF  x25
059F6:  MOVLW  26
059F8:  MOVWF  x26
059FA:  MOVLW  2A
059FC:  MOVWF  x27
059FE:  MOVLW  39
05A00:  MOVWF  x28
05A02:  CLRF   x29
05A04:  MOVLW  01
05A06:  MOVWF  x2A
05A08:  MOVLB  0
05A0A:  CALL   21D8
....................            glcd_rect(47,38,80,57,NO,ON); 
05A0E:  MOVLW  2F
05A10:  MOVLB  B
05A12:  MOVWF  x25
05A14:  MOVLW  26
05A16:  MOVWF  x26
05A18:  MOVLW  50
05A1A:  MOVWF  x27
05A1C:  MOVLW  39
05A1E:  MOVWF  x28
05A20:  CLRF   x29
05A22:  MOVLW  01
05A24:  MOVWF  x2A
05A26:  MOVLB  0
05A28:  CALL   21D8
....................            glcd_rect(85,38,118,57,NO,OFF); 
05A2C:  MOVLW  55
05A2E:  MOVLB  B
05A30:  MOVWF  x25
05A32:  MOVLW  26
05A34:  MOVWF  x26
05A36:  MOVLW  76
05A38:  MOVWF  x27
05A3A:  MOVLW  39
05A3C:  MOVWF  x28
05A3E:  CLRF   x29
05A40:  CLRF   x2A
05A42:  MOVLB  0
05A44:  CALL   21D8
....................            delay_ms(100); 
05A48:  MOVLW  64
05A4A:  MOVLB  B
05A4C:  MOVWF  x2D
05A4E:  MOVLB  0
05A50:  CALL   1EEA
....................            s = read_adc(); 
05A54:  BSF    FC2.1
05A56:  BTFSC  FC2.1
05A58:  BRA    5A56
05A5A:  MOVFF  FC4,26
....................            delay_us(40); 
05A5E:  MOVLW  1A
05A60:  MOVWF  00
05A62:  DECFSZ 00,F
05A64:  BRA    5A62
05A66:  NOP   
....................            while(s > 240){ 
05A68:  MOVF   26,W
05A6A:  SUBLW  F0
05A6C:  BC    5A86
....................            s = read_adc(); 
05A6E:  BSF    FC2.1
05A70:  BTFSC  FC2.1
05A72:  BRA    5A70
05A74:  MOVFF  FC4,26
....................            delay_ms(50);//******************** 
05A78:  MOVLW  32
05A7A:  MOVLB  B
05A7C:  MOVWF  x2D
05A7E:  MOVLB  0
05A80:  CALL   1EEA
05A84:  BRA    5A68
....................             } 
....................            if(s > 195 && s < 225) //enter 
05A86:  MOVF   26,W
05A88:  SUBLW  C3
05A8A:  BC    5A98
05A8C:  MOVF   26,W
05A8E:  SUBLW  E0
05A90:  BNC   5A98
....................            goto SIGUIENTE; 
05A92:  GOTO   6A4E
05A96:  BRA    5ABA
....................            else if(s > 115 && s < 135) 
05A98:  MOVF   26,W
05A9A:  SUBLW  73
05A9C:  BC    5AA8
05A9E:  MOVF   26,W
05AA0:  SUBLW  86
05AA2:  BNC   5AA8
....................                goto Return1; 
05AA4:  BRA    58BE
05AA6:  BRA    5ABA
....................            else if(s > 165 &&  s < 185) 
05AA8:  MOVF   26,W
05AAA:  SUBLW  A5
05AAC:  BC    5AB8
05AAE:  MOVF   26,W
05AB0:  SUBLW  B8
05AB2:  BNC   5AB8
....................                goto START2; 
05AB4:  BRA    57A6
05AB6:  BRA    5ABA
....................            else  
....................                goto START2;     
05AB8:  BRA    57A6
....................        }     
....................    } 
....................     goto START2;  
05ABA:  BRA    57A6
.................... //======================================================================================== 
.................... //=========================================================================================              
....................     CONF_HORA: 
....................      
....................          glcd_fillScreen(0); 
05ABC:  MOVLB  B
05ABE:  CLRF   x26
05AC0:  MOVLB  0
05AC2:  CALL   1BC8
....................          glcd_rect(0,0,127,63,NO,ON); 
05AC6:  MOVLB  B
05AC8:  CLRF   x25
05ACA:  CLRF   x26
05ACC:  MOVLW  7F
05ACE:  MOVWF  x27
05AD0:  MOVLW  3F
05AD2:  MOVWF  x28
05AD4:  CLRF   x29
05AD6:  MOVLW  01
05AD8:  MOVWF  x2A
05ADA:  MOVLB  0
05ADC:  CALL   21D8
....................          glcd_rect(1,1,126,62,NO,ON); 
05AE0:  MOVLW  01
05AE2:  MOVLB  B
05AE4:  MOVWF  x25
05AE6:  MOVWF  x26
05AE8:  MOVLW  7E
05AEA:  MOVWF  x27
05AEC:  MOVLW  3E
05AEE:  MOVWF  x28
05AF0:  CLRF   x29
05AF2:  MOVLW  01
05AF4:  MOVWF  x2A
05AF6:  MOVLB  0
05AF8:  CALL   21D8
....................          glcd_text57(22,5,AJUSTEHORA, 1, 1); 
05AFC:  MOVLW  16
05AFE:  MOVLB  B
05B00:  MOVWF  x25
05B02:  MOVLW  05
05B04:  MOVWF  x26
05B06:  MOVLW  02
05B08:  MOVWF  x28
05B0A:  MOVLW  B5
05B0C:  MOVWF  x27
05B0E:  MOVLW  01
05B10:  MOVWF  x29
05B12:  MOVWF  x2A
05B14:  MOVLB  0
05B16:  CALL   229A
....................          sprintf(Pgeneral,"\%02d:\%02d \%cM", hr,min,time); 
05B1A:  MOVLW  05
05B1C:  MOVLB  B
05B1E:  MOVWF  x24
05B20:  MOVLW  A0
05B22:  MOVWF  x23
05B24:  MOVFF  1E,B25
05B28:  MOVLW  01
05B2A:  MOVWF  x26
05B2C:  MOVLB  0
05B2E:  CALL   2650
05B32:  MOVLW  3A
05B34:  MOVLB  B
05B36:  MOVWF  x32
05B38:  MOVLB  0
05B3A:  CALL   2630
05B3E:  MOVFF  1F,B25
05B42:  MOVLW  01
05B44:  MOVLB  B
05B46:  MOVWF  x26
05B48:  MOVLB  0
05B4A:  CALL   2650
05B4E:  MOVLW  20
05B50:  MOVLB  B
05B52:  MOVWF  x32
05B54:  MOVLB  0
05B56:  CALL   2630
05B5A:  MOVFF  B17,B32
05B5E:  CALL   2630
05B62:  MOVLW  4D
05B64:  MOVLB  B
05B66:  MOVWF  x32
05B68:  MOVLB  0
05B6A:  CALL   2630
....................          glcd_text57(20,18,Pgeneral, 2, 1); 
05B6E:  MOVLW  14
05B70:  MOVLB  B
05B72:  MOVWF  x25
05B74:  MOVLW  12
05B76:  MOVWF  x26
05B78:  MOVLW  05
05B7A:  MOVWF  x28
05B7C:  MOVLW  A0
05B7E:  MOVWF  x27
05B80:  MOVLW  02
05B82:  MOVWF  x29
05B84:  MOVLW  01
05B86:  MOVWF  x2A
05B88:  MOVLB  0
05B8A:  CALL   229A
....................           
....................          glcd_rect(20,34,40,35,YES,ON); 
05B8E:  MOVLW  14
05B90:  MOVLB  B
05B92:  MOVWF  x25
05B94:  MOVLW  22
05B96:  MOVWF  x26
05B98:  MOVLW  28
05B9A:  MOVWF  x27
05B9C:  MOVLW  23
05B9E:  MOVWF  x28
05BA0:  MOVLW  01
05BA2:  MOVWF  x29
05BA4:  MOVWF  x2A
05BA6:  MOVLB  0
05BA8:  CALL   21D8
....................          glcd_rect(8,40,119,58,YES,ON); 
05BAC:  MOVLW  08
05BAE:  MOVLB  B
05BB0:  MOVWF  x25
05BB2:  MOVLW  28
05BB4:  MOVWF  x26
05BB6:  MOVLW  77
05BB8:  MOVWF  x27
05BBA:  MOVLW  3A
05BBC:  MOVWF  x28
05BBE:  MOVLW  01
05BC0:  MOVWF  x29
05BC2:  MOVWF  x2A
05BC4:  MOVLB  0
05BC6:  CALL   21D8
....................          glcd_text57(34,46,ESTABLECER, 1, 0); 
05BCA:  MOVLW  22
05BCC:  MOVLB  B
05BCE:  MOVWF  x25
05BD0:  MOVLW  2E
05BD2:  MOVWF  x26
05BD4:  MOVLW  03
05BD6:  MOVWF  x28
05BD8:  MOVLW  85
05BDA:  MOVWF  x27
05BDC:  MOVLW  01
05BDE:  MOVWF  x29
05BE0:  CLRF   x2A
05BE2:  MOVLB  0
05BE4:  CALL   229A
....................           
....................          hrset = hr; 
05BE8:  MOVFF  1E,1C
....................          minset = min; 
05BEC:  MOVFF  1F,1D
....................          dayset= dia; 
05BF0:  MOVFF  22,19
....................          monthset = mes; 
05BF4:  MOVFF  23,1A
....................          yrset = yr; 
05BF8:  MOVFF  25,1B
....................          START4: 
....................          glcd_rect(20,34,40,35,YES,ON); 
05BFC:  MOVLW  14
05BFE:  MOVLB  B
05C00:  MOVWF  x25
05C02:  MOVLW  22
05C04:  MOVWF  x26
05C06:  MOVLW  28
05C08:  MOVWF  x27
05C0A:  MOVLW  23
05C0C:  MOVWF  x28
05C0E:  MOVLW  01
05C10:  MOVWF  x29
05C12:  MOVWF  x2A
05C14:  MOVLB  0
05C16:  CALL   21D8
....................          glcd_rect(52,34,73,35,YES,OFF);  
05C1A:  MOVLW  34
05C1C:  MOVLB  B
05C1E:  MOVWF  x25
05C20:  MOVLW  22
05C22:  MOVWF  x26
05C24:  MOVLW  49
05C26:  MOVWF  x27
05C28:  MOVLW  23
05C2A:  MOVWF  x28
05C2C:  MOVLW  01
05C2E:  MOVWF  x29
05C30:  CLRF   x2A
05C32:  MOVLB  0
05C34:  CALL   21D8
....................          glcd_rect(85,34,107,35,YES,OFF); 
05C38:  MOVLW  55
05C3A:  MOVLB  B
05C3C:  MOVWF  x25
05C3E:  MOVLW  22
05C40:  MOVWF  x26
05C42:  MOVLW  6B
05C44:  MOVWF  x27
05C46:  MOVLW  23
05C48:  MOVWF  x28
05C4A:  MOVLW  01
05C4C:  MOVWF  x29
05C4E:  CLRF   x2A
05C50:  MOVLB  0
05C52:  CALL   21D8
....................           
....................          glcd_rect(9,41,118,57,NO,ON); 
05C56:  MOVLW  09
05C58:  MOVLB  B
05C5A:  MOVWF  x25
05C5C:  MOVLW  29
05C5E:  MOVWF  x26
05C60:  MOVLW  76
05C62:  MOVWF  x27
05C64:  MOVLW  39
05C66:  MOVWF  x28
05C68:  CLRF   x29
05C6A:  MOVLW  01
05C6C:  MOVWF  x2A
05C6E:  MOVLB  0
05C70:  CALL   21D8
....................              s = read_adc();     
05C74:  BSF    FC2.1
05C76:  BTFSC  FC2.1
05C78:  BRA    5C76
05C7A:  MOVFF  FC4,26
....................              delay_ms(50); 
05C7E:  MOVLW  32
05C80:  MOVLB  B
05C82:  MOVWF  x2D
05C84:  MOVLB  0
05C86:  CALL   1EEA
....................    
....................              while(s>230){ 
05C8A:  MOVF   26,W
05C8C:  SUBLW  E6
05C8E:  BC    5CA8
....................                    s = read_adc();     
05C90:  BSF    FC2.1
05C92:  BTFSC  FC2.1
05C94:  BRA    5C92
05C96:  MOVFF  FC4,26
....................                    delay_ms(50); 
05C9A:  MOVLW  32
05C9C:  MOVLB  B
05C9E:  MOVWF  x2D
05CA0:  MOVLB  0
05CA2:  CALL   1EEA
05CA6:  BRA    5C8A
....................              } 
....................              if (s > 10 && s < 40){ 
05CA8:  MOVF   26,W
05CAA:  SUBLW  0A
05CAC:  BC    5D24
05CAE:  MOVF   26,W
05CB0:  SUBLW  27
05CB2:  BNC   5D24
....................                   
....................                  if(hrset > 11) 
05CB4:  MOVF   1C,W
05CB6:  SUBLW  0B
05CB8:  BC    5CBC
....................                      hrset = 0; 
05CBA:  CLRF   1C
....................                  hrset ++; 
05CBC:  INCF   1C,F
....................                  glcd_rect(20,18,40,32,YES,OFF); 
05CBE:  MOVLW  14
05CC0:  MOVLB  B
05CC2:  MOVWF  x25
05CC4:  MOVLW  12
05CC6:  MOVWF  x26
05CC8:  MOVLW  28
05CCA:  MOVWF  x27
05CCC:  MOVLW  20
05CCE:  MOVWF  x28
05CD0:  MOVLW  01
05CD2:  MOVWF  x29
05CD4:  CLRF   x2A
05CD6:  MOVLB  0
05CD8:  CALL   21D8
....................                  sprintf(Pgeneral,"%02d", hrset); 
05CDC:  MOVLW  05
05CDE:  MOVLB  B
05CE0:  MOVWF  x24
05CE2:  MOVLW  A0
05CE4:  MOVWF  x23
05CE6:  MOVFF  1C,B25
05CEA:  MOVLW  01
05CEC:  MOVWF  x26
05CEE:  MOVLB  0
05CF0:  CALL   2650
....................                  glcd_text57(20,18,Pgeneral, 2, 1); 
05CF4:  MOVLW  14
05CF6:  MOVLB  B
05CF8:  MOVWF  x25
05CFA:  MOVLW  12
05CFC:  MOVWF  x26
05CFE:  MOVLW  05
05D00:  MOVWF  x28
05D02:  MOVLW  A0
05D04:  MOVWF  x27
05D06:  MOVLW  02
05D08:  MOVWF  x29
05D0A:  MOVLW  01
05D0C:  MOVWF  x2A
05D0E:  MOVLB  0
05D10:  CALL   229A
....................                  delay_ms(100); 
05D14:  MOVLW  64
05D16:  MOVLB  B
05D18:  MOVWF  x2D
05D1A:  MOVLB  0
05D1C:  CALL   1EEA
....................                  goto START4; 
05D20:  BRA    5BFC
....................              } 
05D22:  BRA    6210
....................              else if(s > 60 && s < 90){ 
05D24:  MOVF   26,W
05D26:  SUBLW  3C
05D28:  BC    5DA0
05D2A:  MOVF   26,W
05D2C:  SUBLW  59
05D2E:  BNC   5DA0
....................                   
....................                  if(hrset < 1 ) 
05D30:  MOVF   1C,F
05D32:  BNZ   5D38
....................                      hrset = 13; 
05D34:  MOVLW  0D
05D36:  MOVWF  1C
....................                  hrset --; 
05D38:  DECF   1C,F
....................                  glcd_rect(20,18,40,32,YES,OFF); 
05D3A:  MOVLW  14
05D3C:  MOVLB  B
05D3E:  MOVWF  x25
05D40:  MOVLW  12
05D42:  MOVWF  x26
05D44:  MOVLW  28
05D46:  MOVWF  x27
05D48:  MOVLW  20
05D4A:  MOVWF  x28
05D4C:  MOVLW  01
05D4E:  MOVWF  x29
05D50:  CLRF   x2A
05D52:  MOVLB  0
05D54:  CALL   21D8
....................                  sprintf(Pgeneral,"%02d", hrset); 
05D58:  MOVLW  05
05D5A:  MOVLB  B
05D5C:  MOVWF  x24
05D5E:  MOVLW  A0
05D60:  MOVWF  x23
05D62:  MOVFF  1C,B25
05D66:  MOVLW  01
05D68:  MOVWF  x26
05D6A:  MOVLB  0
05D6C:  CALL   2650
....................                  glcd_text57(20,18,Pgeneral, 2, 1); 
05D70:  MOVLW  14
05D72:  MOVLB  B
05D74:  MOVWF  x25
05D76:  MOVLW  12
05D78:  MOVWF  x26
05D7A:  MOVLW  05
05D7C:  MOVWF  x28
05D7E:  MOVLW  A0
05D80:  MOVWF  x27
05D82:  MOVLW  02
05D84:  MOVWF  x29
05D86:  MOVLW  01
05D88:  MOVWF  x2A
05D8A:  MOVLB  0
05D8C:  CALL   229A
....................                  delay_ms(100); 
05D90:  MOVLW  64
05D92:  MOVLB  B
05D94:  MOVWF  x2D
05D96:  MOVLB  0
05D98:  CALL   1EEA
....................                  goto START4; 
05D9C:  BRA    5BFC
....................              } 
05D9E:  BRA    6210
....................               
....................              else if(s > 165 &&  s < 185){ 
05DA0:  MOVF   26,W
05DA2:  SUBLW  A5
05DA4:  BTFSC  FD8.0
05DA6:  BRA    620E
05DA8:  MOVF   26,W
05DAA:  SUBLW  B8
05DAC:  BTFSS  FD8.0
05DAE:  BRA    620E
....................                   
....................              START5:  
....................              glcd_rect(20,34,40,35,YES,OFF); 
05DB0:  MOVLW  14
05DB2:  MOVLB  B
05DB4:  MOVWF  x25
05DB6:  MOVLW  22
05DB8:  MOVWF  x26
05DBA:  MOVLW  28
05DBC:  MOVWF  x27
05DBE:  MOVLW  23
05DC0:  MOVWF  x28
05DC2:  MOVLW  01
05DC4:  MOVWF  x29
05DC6:  CLRF   x2A
05DC8:  MOVLB  0
05DCA:  CALL   21D8
....................              glcd_rect(52,34,73,35,YES,ON); 
05DCE:  MOVLW  34
05DD0:  MOVLB  B
05DD2:  MOVWF  x25
05DD4:  MOVLW  22
05DD6:  MOVWF  x26
05DD8:  MOVLW  49
05DDA:  MOVWF  x27
05DDC:  MOVLW  23
05DDE:  MOVWF  x28
05DE0:  MOVLW  01
05DE2:  MOVWF  x29
05DE4:  MOVWF  x2A
05DE6:  MOVLB  0
05DE8:  CALL   21D8
....................              glcd_rect(85,34,107,35,YES,OFF); 
05DEC:  MOVLW  55
05DEE:  MOVLB  B
05DF0:  MOVWF  x25
05DF2:  MOVLW  22
05DF4:  MOVWF  x26
05DF6:  MOVLW  6B
05DF8:  MOVWF  x27
05DFA:  MOVLW  23
05DFC:  MOVWF  x28
05DFE:  MOVLW  01
05E00:  MOVWF  x29
05E02:  CLRF   x2A
05E04:  MOVLB  0
05E06:  CALL   21D8
....................              glcd_rect(9,41,118,57,NO,ON); 
05E0A:  MOVLW  09
05E0C:  MOVLB  B
05E0E:  MOVWF  x25
05E10:  MOVLW  29
05E12:  MOVWF  x26
05E14:  MOVLW  76
05E16:  MOVWF  x27
05E18:  MOVLW  39
05E1A:  MOVWF  x28
05E1C:  CLRF   x29
05E1E:  MOVLW  01
05E20:  MOVWF  x2A
05E22:  MOVLB  0
05E24:  CALL   21D8
....................              delay_ms(200); 
05E28:  MOVLW  C8
05E2A:  MOVLB  B
05E2C:  MOVWF  x2D
05E2E:  MOVLB  0
05E30:  CALL   1EEA
....................              s = read_adc();     
05E34:  BSF    FC2.1
05E36:  BTFSC  FC2.1
05E38:  BRA    5E36
05E3A:  MOVFF  FC4,26
....................              delay_ms(50); 
05E3E:  MOVLW  32
05E40:  MOVLB  B
05E42:  MOVWF  x2D
05E44:  MOVLB  0
05E46:  CALL   1EEA
....................              while(s>230){ 
05E4A:  MOVF   26,W
05E4C:  SUBLW  E6
05E4E:  BC    5E68
....................                    s = read_adc();     
05E50:  BSF    FC2.1
05E52:  BTFSC  FC2.1
05E54:  BRA    5E52
05E56:  MOVFF  FC4,26
....................                    delay_ms(50); 
05E5A:  MOVLW  32
05E5C:  MOVLB  B
05E5E:  MOVWF  x2D
05E60:  MOVLB  0
05E62:  CALL   1EEA
05E66:  BRA    5E4A
....................                    } 
....................              if (s > 10 && s < 40){ 
05E68:  MOVF   26,W
05E6A:  SUBLW  0A
05E6C:  BC    5EE2
05E6E:  MOVF   26,W
05E70:  SUBLW  27
05E72:  BNC   5EE2
....................                  minset ++; 
05E74:  INCF   1D,F
....................                  if(minset > 59) 
05E76:  MOVF   1D,W
05E78:  SUBLW  3B
05E7A:  BC    5E7E
....................                      minset = 0; 
05E7C:  CLRF   1D
....................                   
....................                  glcd_rect(52,18,74,32,YES,OFF); 
05E7E:  MOVLW  34
05E80:  MOVLB  B
05E82:  MOVWF  x25
05E84:  MOVLW  12
05E86:  MOVWF  x26
05E88:  MOVLW  4A
05E8A:  MOVWF  x27
05E8C:  MOVLW  20
05E8E:  MOVWF  x28
05E90:  MOVLW  01
05E92:  MOVWF  x29
05E94:  CLRF   x2A
05E96:  MOVLB  0
05E98:  CALL   21D8
....................                  sprintf(Pgeneral,"%02d", minset); 
05E9C:  MOVLW  05
05E9E:  MOVLB  B
05EA0:  MOVWF  x24
05EA2:  MOVLW  A0
05EA4:  MOVWF  x23
05EA6:  MOVFF  1D,B25
05EAA:  MOVLW  01
05EAC:  MOVWF  x26
05EAE:  MOVLB  0
05EB0:  CALL   2650
....................                  glcd_text57(52,18,Pgeneral, 2, 1); 
05EB4:  MOVLW  34
05EB6:  MOVLB  B
05EB8:  MOVWF  x25
05EBA:  MOVLW  12
05EBC:  MOVWF  x26
05EBE:  MOVLW  05
05EC0:  MOVWF  x28
05EC2:  MOVLW  A0
05EC4:  MOVWF  x27
05EC6:  MOVLW  02
05EC8:  MOVWF  x29
05ECA:  MOVLW  01
05ECC:  MOVWF  x2A
05ECE:  MOVLB  0
05ED0:  CALL   229A
....................                  delay_ms(200); 
05ED4:  MOVLW  C8
05ED6:  MOVLB  B
05ED8:  MOVWF  x2D
05EDA:  MOVLB  0
05EDC:  CALL   1EEA
....................                  goto START5; 
05EE0:  BRA    5DB0
....................              } 
....................               if(s > 60 && s < 90){ 
05EE2:  MOVF   26,W
05EE4:  SUBLW  3C
05EE6:  BC    5F5E
05EE8:  MOVF   26,W
05EEA:  SUBLW  59
05EEC:  BNC   5F5E
....................                   
....................                  minset --; 
05EEE:  DECF   1D,F
....................                  if(minset == -1 ) 
05EF0:  MOVF   1D,W
05EF2:  SUBLW  FF
05EF4:  BNZ   5EFA
....................                      minset = 59; 
05EF6:  MOVLW  3B
05EF8:  MOVWF  1D
....................                  glcd_rect(52,18,74,32,YES,OFF); 
05EFA:  MOVLW  34
05EFC:  MOVLB  B
05EFE:  MOVWF  x25
05F00:  MOVLW  12
05F02:  MOVWF  x26
05F04:  MOVLW  4A
05F06:  MOVWF  x27
05F08:  MOVLW  20
05F0A:  MOVWF  x28
05F0C:  MOVLW  01
05F0E:  MOVWF  x29
05F10:  CLRF   x2A
05F12:  MOVLB  0
05F14:  CALL   21D8
....................                  sprintf(Pgeneral,"%02d", minset); 
05F18:  MOVLW  05
05F1A:  MOVLB  B
05F1C:  MOVWF  x24
05F1E:  MOVLW  A0
05F20:  MOVWF  x23
05F22:  MOVFF  1D,B25
05F26:  MOVLW  01
05F28:  MOVWF  x26
05F2A:  MOVLB  0
05F2C:  CALL   2650
....................                  glcd_text57(52,18,Pgeneral, 2, 1); 
05F30:  MOVLW  34
05F32:  MOVLB  B
05F34:  MOVWF  x25
05F36:  MOVLW  12
05F38:  MOVWF  x26
05F3A:  MOVLW  05
05F3C:  MOVWF  x28
05F3E:  MOVLW  A0
05F40:  MOVWF  x27
05F42:  MOVLW  02
05F44:  MOVWF  x29
05F46:  MOVLW  01
05F48:  MOVWF  x2A
05F4A:  MOVLB  0
05F4C:  CALL   229A
....................                  delay_ms(100); 
05F50:  MOVLW  64
05F52:  MOVLB  B
05F54:  MOVWF  x2D
05F56:  MOVLB  0
05F58:  CALL   1EEA
....................                  goto START5; 
05F5C:  BRA    5DB0
....................              }  
....................               if (s > 115 && s < 135){ 
05F5E:  MOVF   26,W
05F60:  SUBLW  73
05F62:  BC    5FF0
05F64:  MOVF   26,W
05F66:  SUBLW  86
05F68:  BNC   5FF0
....................                   
....................                  glcd_rect(20,34,40,35,YES,ON); 
05F6A:  MOVLW  14
05F6C:  MOVLB  B
05F6E:  MOVWF  x25
05F70:  MOVLW  22
05F72:  MOVWF  x26
05F74:  MOVLW  28
05F76:  MOVWF  x27
05F78:  MOVLW  23
05F7A:  MOVWF  x28
05F7C:  MOVLW  01
05F7E:  MOVWF  x29
05F80:  MOVWF  x2A
05F82:  MOVLB  0
05F84:  CALL   21D8
....................                  glcd_rect(52,34,73,35,YES,OFF); 
05F88:  MOVLW  34
05F8A:  MOVLB  B
05F8C:  MOVWF  x25
05F8E:  MOVLW  22
05F90:  MOVWF  x26
05F92:  MOVLW  49
05F94:  MOVWF  x27
05F96:  MOVLW  23
05F98:  MOVWF  x28
05F9A:  MOVLW  01
05F9C:  MOVWF  x29
05F9E:  CLRF   x2A
05FA0:  MOVLB  0
05FA2:  CALL   21D8
....................                  glcd_rect(85,34,107,35,YES,OFF); 
05FA6:  MOVLW  55
05FA8:  MOVLB  B
05FAA:  MOVWF  x25
05FAC:  MOVLW  22
05FAE:  MOVWF  x26
05FB0:  MOVLW  6B
05FB2:  MOVWF  x27
05FB4:  MOVLW  23
05FB6:  MOVWF  x28
05FB8:  MOVLW  01
05FBA:  MOVWF  x29
05FBC:  CLRF   x2A
05FBE:  MOVLB  0
05FC0:  CALL   21D8
....................                  glcd_rect(9,41,118,57,NO,ON); 
05FC4:  MOVLW  09
05FC6:  MOVLB  B
05FC8:  MOVWF  x25
05FCA:  MOVLW  29
05FCC:  MOVWF  x26
05FCE:  MOVLW  76
05FD0:  MOVWF  x27
05FD2:  MOVLW  39
05FD4:  MOVWF  x28
05FD6:  CLRF   x29
05FD8:  MOVLW  01
05FDA:  MOVWF  x2A
05FDC:  MOVLB  0
05FDE:  CALL   21D8
....................                  delay_ms(200); 
05FE2:  MOVLW  C8
05FE4:  MOVLB  B
05FE6:  MOVWF  x2D
05FE8:  MOVLB  0
05FEA:  CALL   1EEA
....................                  goto START4; 
05FEE:  BRA    5BFC
....................              } 
....................               if(s > 165 &&  s < 185){ 
05FF0:  MOVF   26,W
05FF2:  SUBLW  A5
05FF4:  BTFSC  FD8.0
05FF6:  BRA    620C
05FF8:  MOVF   26,W
05FFA:  SUBLW  B8
05FFC:  BTFSS  FD8.0
05FFE:  BRA    620C
....................                  START6: 
....................                   
....................                  glcd_rect(20,34,40,35,YES,OFF); 
06000:  MOVLW  14
06002:  MOVLB  B
06004:  MOVWF  x25
06006:  MOVLW  22
06008:  MOVWF  x26
0600A:  MOVLW  28
0600C:  MOVWF  x27
0600E:  MOVLW  23
06010:  MOVWF  x28
06012:  MOVLW  01
06014:  MOVWF  x29
06016:  CLRF   x2A
06018:  MOVLB  0
0601A:  CALL   21D8
....................                  glcd_rect(52,34,73,35,YES,OFF);  
0601E:  MOVLW  34
06020:  MOVLB  B
06022:  MOVWF  x25
06024:  MOVLW  22
06026:  MOVWF  x26
06028:  MOVLW  49
0602A:  MOVWF  x27
0602C:  MOVLW  23
0602E:  MOVWF  x28
06030:  MOVLW  01
06032:  MOVWF  x29
06034:  CLRF   x2A
06036:  MOVLB  0
06038:  CALL   21D8
....................                  glcd_rect(85,34,107,35,YES,ON); 
0603C:  MOVLW  55
0603E:  MOVLB  B
06040:  MOVWF  x25
06042:  MOVLW  22
06044:  MOVWF  x26
06046:  MOVLW  6B
06048:  MOVWF  x27
0604A:  MOVLW  23
0604C:  MOVWF  x28
0604E:  MOVLW  01
06050:  MOVWF  x29
06052:  MOVWF  x2A
06054:  MOVLB  0
06056:  CALL   21D8
....................                  glcd_rect(9,41,118,57,NO,ON); 
0605A:  MOVLW  09
0605C:  MOVLB  B
0605E:  MOVWF  x25
06060:  MOVLW  29
06062:  MOVWF  x26
06064:  MOVLW  76
06066:  MOVWF  x27
06068:  MOVLW  39
0606A:  MOVWF  x28
0606C:  CLRF   x29
0606E:  MOVLW  01
06070:  MOVWF  x2A
06072:  MOVLB  0
06074:  CALL   21D8
....................                   
....................                  delay_ms(200); 
06078:  MOVLW  C8
0607A:  MOVLB  B
0607C:  MOVWF  x2D
0607E:  MOVLB  0
06080:  CALL   1EEA
....................                  s = read_adc();     
06084:  BSF    FC2.1
06086:  BTFSC  FC2.1
06088:  BRA    6086
0608A:  MOVFF  FC4,26
....................                  delay_ms(50); 
0608E:  MOVLW  32
06090:  MOVLB  B
06092:  MOVWF  x2D
06094:  MOVLB  0
06096:  CALL   1EEA
....................                  while(s>230){ 
0609A:  MOVF   26,W
0609C:  SUBLW  E6
0609E:  BC    60B8
....................                    s = read_adc();     
060A0:  BSF    FC2.1
060A2:  BTFSC  FC2.1
060A4:  BRA    60A2
060A6:  MOVFF  FC4,26
....................                    delay_ms(50); 
060AA:  MOVLW  32
060AC:  MOVLB  B
060AE:  MOVWF  x2D
060B0:  MOVLB  0
060B2:  CALL   1EEA
060B6:  BRA    609A
....................                    } 
....................                   if (s > 10 && s < 40){ 
060B8:  MOVF   26,W
060BA:  SUBLW  0A
060BC:  BC    6108
060BE:  MOVF   26,W
060C0:  SUBLW  27
060C2:  BNC   6108
....................                       
....................                      time = 1; 
060C4:  MOVLW  01
060C6:  MOVLB  B
060C8:  MOVWF  x17
....................                      glcd_rect(85,18,102,32,YES,OFF); 
060CA:  MOVLW  55
060CC:  MOVWF  x25
060CE:  MOVLW  12
060D0:  MOVWF  x26
060D2:  MOVLW  66
060D4:  MOVWF  x27
060D6:  MOVLW  20
060D8:  MOVWF  x28
060DA:  MOVLW  01
060DC:  MOVWF  x29
060DE:  CLRF   x2A
060E0:  MOVLB  0
060E2:  CALL   21D8
....................                      glcd_text57(86,18,AM, 2, 1); 
060E6:  MOVLW  56
060E8:  MOVLB  B
060EA:  MOVWF  x25
060EC:  MOVLW  12
060EE:  MOVWF  x26
060F0:  MOVLW  03
060F2:  MOVWF  x28
060F4:  MOVLW  60
060F6:  MOVWF  x27
060F8:  MOVLW  02
060FA:  MOVWF  x29
060FC:  MOVLW  01
060FE:  MOVWF  x2A
06100:  MOVLB  0
06102:  CALL   229A
....................                      goto START6; 
06106:  BRA    6000
....................                   } 
....................                    if (s > 60 && s < 90){ 
06108:  MOVF   26,W
0610A:  SUBLW  3C
0610C:  BC    6156
0610E:  MOVF   26,W
06110:  SUBLW  59
06112:  BNC   6156
....................                       
....................                      time = 0; 
06114:  MOVLB  B
06116:  CLRF   x17
....................                      glcd_rect(85,18,102,32,YES,OFF); 
06118:  MOVLW  55
0611A:  MOVWF  x25
0611C:  MOVLW  12
0611E:  MOVWF  x26
06120:  MOVLW  66
06122:  MOVWF  x27
06124:  MOVLW  20
06126:  MOVWF  x28
06128:  MOVLW  01
0612A:  MOVWF  x29
0612C:  CLRF   x2A
0612E:  MOVLB  0
06130:  CALL   21D8
....................                      glcd_text57(86,18,PM, 2, 1); 
06134:  MOVLW  56
06136:  MOVLB  B
06138:  MOVWF  x25
0613A:  MOVLW  12
0613C:  MOVWF  x26
0613E:  MOVLW  03
06140:  MOVWF  x28
06142:  MOVLW  75
06144:  MOVWF  x27
06146:  MOVLW  02
06148:  MOVWF  x29
0614A:  MOVLW  01
0614C:  MOVWF  x2A
0614E:  MOVLB  0
06150:  CALL   229A
....................                      goto START6; 
06154:  BRA    6000
....................                   } 
....................                   if (s > 115 && s < 135) 
06156:  MOVF   26,W
06158:  SUBLW  73
0615A:  BC    6164
0615C:  MOVF   26,W
0615E:  SUBLW  86
06160:  BNC   6164
....................                     goto START5; 
06162:  BRA    5DB0
....................                   
....................                  if(s > 165 &&  s < 185){ 
06164:  MOVF   26,W
06166:  SUBLW  A5
06168:  BC    620A
0616A:  MOVF   26,W
0616C:  SUBLW  B8
0616E:  BNC   620A
....................                     glcd_rect(85,34,107,35,YES,OFF);  
06170:  MOVLW  55
06172:  MOVLB  B
06174:  MOVWF  x25
06176:  MOVLW  22
06178:  MOVWF  x26
0617A:  MOVLW  6B
0617C:  MOVWF  x27
0617E:  MOVLW  23
06180:  MOVWF  x28
06182:  MOVLW  01
06184:  MOVWF  x29
06186:  CLRF   x2A
06188:  MOVLB  0
0618A:  CALL   21D8
....................                     glcd_rect(9,41,118,57,NO,OFF); 
0618E:  MOVLW  09
06190:  MOVLB  B
06192:  MOVWF  x25
06194:  MOVLW  29
06196:  MOVWF  x26
06198:  MOVLW  76
0619A:  MOVWF  x27
0619C:  MOVLW  39
0619E:  MOVWF  x28
061A0:  CLRF   x29
061A2:  CLRF   x2A
061A4:  MOVLB  0
061A6:  CALL   21D8
....................                     START7: 
....................                     delay_ms(200); 
061AA:  MOVLW  C8
061AC:  MOVLB  B
061AE:  MOVWF  x2D
061B0:  MOVLB  0
061B2:  CALL   1EEA
....................                     s = read_adc();     
061B6:  BSF    FC2.1
061B8:  BTFSC  FC2.1
061BA:  BRA    61B8
061BC:  MOVFF  FC4,26
....................                     delay_ms(50); 
061C0:  MOVLW  32
061C2:  MOVLB  B
061C4:  MOVWF  x2D
061C6:  MOVLB  0
061C8:  CALL   1EEA
....................                     while(s>230){ 
061CC:  MOVF   26,W
061CE:  SUBLW  E6
061D0:  BC    61EA
....................                        s = read_adc();     
061D2:  BSF    FC2.1
061D4:  BTFSC  FC2.1
061D6:  BRA    61D4
061D8:  MOVFF  FC4,26
....................                        delay_ms(50); 
061DC:  MOVLW  32
061DE:  MOVLB  B
061E0:  MOVWF  x2D
061E2:  MOVLB  0
061E4:  CALL   1EEA
061E8:  BRA    61CC
....................                     } 
....................                     if(s > 195 && s < 225) 
061EA:  MOVF   26,W
061EC:  SUBLW  C3
061EE:  BC    61FA
061F0:  MOVF   26,W
061F2:  SUBLW  E0
061F4:  BNC   61FA
....................                         goto SET_RTC; 
061F6:  GOTO   69A4
....................                     if(s > 115 && s < 135) 
061FA:  MOVF   26,W
061FC:  SUBLW  73
061FE:  BC    6208
06200:  MOVF   26,W
06202:  SUBLW  86
06204:  BNC   6208
....................                         goto START6; 
06206:  BRA    6000
....................                  } 
06208:  BRA    620C
....................                  else 
....................                      goto START7; 
0620A:  BRA    61AA
....................              }   
....................           } 
0620C:  BRA    6210
....................              else  
....................                  goto START4; 
0620E:  BRA    5BFC
....................              goto START4; 
06210:  BRA    5BFC
.................... //======================================================================================== 
.................... //=========================================================================================              
....................  
....................     CONF_FECHA: 
....................      
....................          glcd_fillScreen(0); 
06212:  MOVLB  B
06214:  CLRF   x26
06216:  MOVLB  0
06218:  CALL   1BC8
....................          glcd_rect(0,0,127,63,NO,ON); 
0621C:  MOVLB  B
0621E:  CLRF   x25
06220:  CLRF   x26
06222:  MOVLW  7F
06224:  MOVWF  x27
06226:  MOVLW  3F
06228:  MOVWF  x28
0622A:  CLRF   x29
0622C:  MOVLW  01
0622E:  MOVWF  x2A
06230:  MOVLB  0
06232:  CALL   21D8
....................          glcd_rect(1,1,126,62,NO,ON); 
06236:  MOVLW  01
06238:  MOVLB  B
0623A:  MOVWF  x25
0623C:  MOVWF  x26
0623E:  MOVLW  7E
06240:  MOVWF  x27
06242:  MOVLW  3E
06244:  MOVWF  x28
06246:  CLRF   x29
06248:  MOVLW  01
0624A:  MOVWF  x2A
0624C:  MOVLB  0
0624E:  CALL   21D8
....................          glcd_text57(22,5,AJUSTEFECHA, 1, 1); 
06252:  MOVLW  16
06254:  MOVLB  B
06256:  MOVWF  x25
06258:  MOVLW  05
0625A:  MOVWF  x26
0625C:  MOVLW  02
0625E:  MOVWF  x28
06260:  MOVLW  E0
06262:  MOVWF  x27
06264:  MOVLW  01
06266:  MOVWF  x29
06268:  MOVWF  x2A
0626A:  MOVLB  0
0626C:  CALL   229A
....................          //year = yr+2000; 
....................          sprintf(Pgeneral,"\%02d/\%02d/\%02d", dia,mes,yr); 
06270:  MOVLW  05
06272:  MOVLB  B
06274:  MOVWF  x24
06276:  MOVLW  A0
06278:  MOVWF  x23
0627A:  MOVFF  22,B25
0627E:  MOVLW  01
06280:  MOVWF  x26
06282:  MOVLB  0
06284:  CALL   2650
06288:  MOVLW  2F
0628A:  MOVLB  B
0628C:  MOVWF  x32
0628E:  MOVLB  0
06290:  CALL   2630
06294:  MOVFF  23,B25
06298:  MOVLW  01
0629A:  MOVLB  B
0629C:  MOVWF  x26
0629E:  MOVLB  0
062A0:  CALL   2650
062A4:  MOVLW  2F
062A6:  MOVLB  B
062A8:  MOVWF  x32
062AA:  MOVLB  0
062AC:  CALL   2630
062B0:  MOVFF  25,B25
062B4:  MOVLW  01
062B6:  MOVLB  B
062B8:  MOVWF  x26
062BA:  MOVLB  0
062BC:  CALL   2650
....................          glcd_text57(20,18,Pgeneral, 2, 1); 
062C0:  MOVLW  14
062C2:  MOVLB  B
062C4:  MOVWF  x25
062C6:  MOVLW  12
062C8:  MOVWF  x26
062CA:  MOVLW  05
062CC:  MOVWF  x28
062CE:  MOVLW  A0
062D0:  MOVWF  x27
062D2:  MOVLW  02
062D4:  MOVWF  x29
062D6:  MOVLW  01
062D8:  MOVWF  x2A
062DA:  MOVLB  0
062DC:  CALL   229A
....................           
....................          glcd_rect(20,34,40,35,YES,ON); 
062E0:  MOVLW  14
062E2:  MOVLB  B
062E4:  MOVWF  x25
062E6:  MOVLW  22
062E8:  MOVWF  x26
062EA:  MOVLW  28
062EC:  MOVWF  x27
062EE:  MOVLW  23
062F0:  MOVWF  x28
062F2:  MOVLW  01
062F4:  MOVWF  x29
062F6:  MOVWF  x2A
062F8:  MOVLB  0
062FA:  CALL   21D8
....................          glcd_rect(8,40,119,58,YES,ON); 
062FE:  MOVLW  08
06300:  MOVLB  B
06302:  MOVWF  x25
06304:  MOVLW  28
06306:  MOVWF  x26
06308:  MOVLW  77
0630A:  MOVWF  x27
0630C:  MOVLW  3A
0630E:  MOVWF  x28
06310:  MOVLW  01
06312:  MOVWF  x29
06314:  MOVWF  x2A
06316:  MOVLB  0
06318:  CALL   21D8
....................          glcd_text57(34,46,ESTABLECER, 1, 0); 
0631C:  MOVLW  22
0631E:  MOVLB  B
06320:  MOVWF  x25
06322:  MOVLW  2E
06324:  MOVWF  x26
06326:  MOVLW  03
06328:  MOVWF  x28
0632A:  MOVLW  85
0632C:  MOVWF  x27
0632E:  MOVLW  01
06330:  MOVWF  x29
06332:  CLRF   x2A
06334:  MOVLB  0
06336:  CALL   229A
....................           
....................          hrset = hr; 
0633A:  MOVFF  1E,1C
....................          minset = min; 
0633E:  MOVFF  1F,1D
....................          dayset = dia; 
06342:  MOVFF  22,19
....................          monthset = mes; 
06346:  MOVFF  23,1A
....................          yrset = yr; 
0634A:  MOVFF  25,1B
....................          START8: 
....................          glcd_rect(20,34,40,35,YES,ON); 
0634E:  MOVLW  14
06350:  MOVLB  B
06352:  MOVWF  x25
06354:  MOVLW  22
06356:  MOVWF  x26
06358:  MOVLW  28
0635A:  MOVWF  x27
0635C:  MOVLW  23
0635E:  MOVWF  x28
06360:  MOVLW  01
06362:  MOVWF  x29
06364:  MOVWF  x2A
06366:  MOVLB  0
06368:  CALL   21D8
....................          glcd_rect(52,34,73,35,YES,OFF);  
0636C:  MOVLW  34
0636E:  MOVLB  B
06370:  MOVWF  x25
06372:  MOVLW  22
06374:  MOVWF  x26
06376:  MOVLW  49
06378:  MOVWF  x27
0637A:  MOVLW  23
0637C:  MOVWF  x28
0637E:  MOVLW  01
06380:  MOVWF  x29
06382:  CLRF   x2A
06384:  MOVLB  0
06386:  CALL   21D8
....................          glcd_rect(85,34,107,35,YES,OFF); 
0638A:  MOVLW  55
0638C:  MOVLB  B
0638E:  MOVWF  x25
06390:  MOVLW  22
06392:  MOVWF  x26
06394:  MOVLW  6B
06396:  MOVWF  x27
06398:  MOVLW  23
0639A:  MOVWF  x28
0639C:  MOVLW  01
0639E:  MOVWF  x29
063A0:  CLRF   x2A
063A2:  MOVLB  0
063A4:  CALL   21D8
....................           
....................          glcd_rect(9,41,118,57,NO,ON); 
063A8:  MOVLW  09
063AA:  MOVLB  B
063AC:  MOVWF  x25
063AE:  MOVLW  29
063B0:  MOVWF  x26
063B2:  MOVLW  76
063B4:  MOVWF  x27
063B6:  MOVLW  39
063B8:  MOVWF  x28
063BA:  CLRF   x29
063BC:  MOVLW  01
063BE:  MOVWF  x2A
063C0:  MOVLB  0
063C2:  CALL   21D8
....................              s = read_adc();     
063C6:  BSF    FC2.1
063C8:  BTFSC  FC2.1
063CA:  BRA    63C8
063CC:  MOVFF  FC4,26
....................              delay_ms(50); 
063D0:  MOVLW  32
063D2:  MOVLB  B
063D4:  MOVWF  x2D
063D6:  MOVLB  0
063D8:  CALL   1EEA
....................    
....................              while(s>230){ 
063DC:  MOVF   26,W
063DE:  SUBLW  E6
063E0:  BC    63FA
....................                    s = read_adc();     
063E2:  BSF    FC2.1
063E4:  BTFSC  FC2.1
063E6:  BRA    63E4
063E8:  MOVFF  FC4,26
....................                    delay_ms(50); 
063EC:  MOVLW  32
063EE:  MOVLB  B
063F0:  MOVWF  x2D
063F2:  MOVLB  0
063F4:  CALL   1EEA
063F8:  BRA    63DC
....................              } 
....................              if (s > 10 && s < 40){ 
063FA:  MOVF   26,W
063FC:  SUBLW  0A
063FE:  BC    6476
06400:  MOVF   26,W
06402:  SUBLW  27
06404:  BNC   6476
....................                   
....................                  if(dayset > 30) 
06406:  MOVF   19,W
06408:  SUBLW  1E
0640A:  BC    640E
....................                      dayset = 0; 
0640C:  CLRF   19
....................                  dayset ++; 
0640E:  INCF   19,F
....................                  glcd_rect(20,18,40,32,YES,OFF); 
06410:  MOVLW  14
06412:  MOVLB  B
06414:  MOVWF  x25
06416:  MOVLW  12
06418:  MOVWF  x26
0641A:  MOVLW  28
0641C:  MOVWF  x27
0641E:  MOVLW  20
06420:  MOVWF  x28
06422:  MOVLW  01
06424:  MOVWF  x29
06426:  CLRF   x2A
06428:  MOVLB  0
0642A:  CALL   21D8
....................                  sprintf(Pgeneral,"%02d", dayset); 
0642E:  MOVLW  05
06430:  MOVLB  B
06432:  MOVWF  x24
06434:  MOVLW  A0
06436:  MOVWF  x23
06438:  MOVFF  19,B25
0643C:  MOVLW  01
0643E:  MOVWF  x26
06440:  MOVLB  0
06442:  CALL   2650
....................                  glcd_text57(20,18,Pgeneral, 2, 1); 
06446:  MOVLW  14
06448:  MOVLB  B
0644A:  MOVWF  x25
0644C:  MOVLW  12
0644E:  MOVWF  x26
06450:  MOVLW  05
06452:  MOVWF  x28
06454:  MOVLW  A0
06456:  MOVWF  x27
06458:  MOVLW  02
0645A:  MOVWF  x29
0645C:  MOVLW  01
0645E:  MOVWF  x2A
06460:  MOVLB  0
06462:  CALL   229A
....................                  delay_ms(100); 
06466:  MOVLW  64
06468:  MOVLB  B
0646A:  MOVWF  x2D
0646C:  MOVLB  0
0646E:  CALL   1EEA
....................                  goto START8; 
06472:  BRA    634E
....................              } 
06474:  BRA    69A2
....................              else if(s > 60 && s < 90){ 
06476:  MOVF   26,W
06478:  SUBLW  3C
0647A:  BC    64F2
0647C:  MOVF   26,W
0647E:  SUBLW  59
06480:  BNC   64F2
....................                  dayset --; 
06482:  DECF   19,F
....................                  if(dayset < 1 ) 
06484:  MOVF   19,F
06486:  BNZ   648C
....................                      dayset = 31; 
06488:  MOVLW  1F
0648A:  MOVWF  19
....................                   
....................                  glcd_rect(20,18,40,32,YES,OFF); 
0648C:  MOVLW  14
0648E:  MOVLB  B
06490:  MOVWF  x25
06492:  MOVLW  12
06494:  MOVWF  x26
06496:  MOVLW  28
06498:  MOVWF  x27
0649A:  MOVLW  20
0649C:  MOVWF  x28
0649E:  MOVLW  01
064A0:  MOVWF  x29
064A2:  CLRF   x2A
064A4:  MOVLB  0
064A6:  CALL   21D8
....................                  sprintf(Pgeneral,"%02d", dayset); 
064AA:  MOVLW  05
064AC:  MOVLB  B
064AE:  MOVWF  x24
064B0:  MOVLW  A0
064B2:  MOVWF  x23
064B4:  MOVFF  19,B25
064B8:  MOVLW  01
064BA:  MOVWF  x26
064BC:  MOVLB  0
064BE:  CALL   2650
....................                  glcd_text57(20,18,Pgeneral, 2, 1); 
064C2:  MOVLW  14
064C4:  MOVLB  B
064C6:  MOVWF  x25
064C8:  MOVLW  12
064CA:  MOVWF  x26
064CC:  MOVLW  05
064CE:  MOVWF  x28
064D0:  MOVLW  A0
064D2:  MOVWF  x27
064D4:  MOVLW  02
064D6:  MOVWF  x29
064D8:  MOVLW  01
064DA:  MOVWF  x2A
064DC:  MOVLB  0
064DE:  CALL   229A
....................                  delay_ms(100); 
064E2:  MOVLW  64
064E4:  MOVLB  B
064E6:  MOVWF  x2D
064E8:  MOVLB  0
064EA:  CALL   1EEA
....................                  goto START8; 
064EE:  BRA    634E
....................              } 
064F0:  BRA    69A2
....................               
....................              else if(s > 165 &&  s < 185){ 
064F2:  MOVF   26,W
064F4:  SUBLW  A5
064F6:  BTFSC  FD8.0
064F8:  BRA    69A0
064FA:  MOVF   26,W
064FC:  SUBLW  B8
064FE:  BTFSS  FD8.0
06500:  BRA    69A0
....................                   
....................              START9:  
....................              glcd_rect(20,34,40,35,YES,OFF); 
06502:  MOVLW  14
06504:  MOVLB  B
06506:  MOVWF  x25
06508:  MOVLW  22
0650A:  MOVWF  x26
0650C:  MOVLW  28
0650E:  MOVWF  x27
06510:  MOVLW  23
06512:  MOVWF  x28
06514:  MOVLW  01
06516:  MOVWF  x29
06518:  CLRF   x2A
0651A:  MOVLB  0
0651C:  CALL   21D8
....................              glcd_rect(52,34,73,35,YES,ON); 
06520:  MOVLW  34
06522:  MOVLB  B
06524:  MOVWF  x25
06526:  MOVLW  22
06528:  MOVWF  x26
0652A:  MOVLW  49
0652C:  MOVWF  x27
0652E:  MOVLW  23
06530:  MOVWF  x28
06532:  MOVLW  01
06534:  MOVWF  x29
06536:  MOVWF  x2A
06538:  MOVLB  0
0653A:  CALL   21D8
....................              glcd_rect(85,34,107,35,YES,OFF); 
0653E:  MOVLW  55
06540:  MOVLB  B
06542:  MOVWF  x25
06544:  MOVLW  22
06546:  MOVWF  x26
06548:  MOVLW  6B
0654A:  MOVWF  x27
0654C:  MOVLW  23
0654E:  MOVWF  x28
06550:  MOVLW  01
06552:  MOVWF  x29
06554:  CLRF   x2A
06556:  MOVLB  0
06558:  CALL   21D8
....................              glcd_rect(9,41,118,57,NO,ON); 
0655C:  MOVLW  09
0655E:  MOVLB  B
06560:  MOVWF  x25
06562:  MOVLW  29
06564:  MOVWF  x26
06566:  MOVLW  76
06568:  MOVWF  x27
0656A:  MOVLW  39
0656C:  MOVWF  x28
0656E:  CLRF   x29
06570:  MOVLW  01
06572:  MOVWF  x2A
06574:  MOVLB  0
06576:  CALL   21D8
....................              delay_ms(200); 
0657A:  MOVLW  C8
0657C:  MOVLB  B
0657E:  MOVWF  x2D
06580:  MOVLB  0
06582:  CALL   1EEA
....................              s = read_adc();     
06586:  BSF    FC2.1
06588:  BTFSC  FC2.1
0658A:  BRA    6588
0658C:  MOVFF  FC4,26
....................              delay_ms(50); 
06590:  MOVLW  32
06592:  MOVLB  B
06594:  MOVWF  x2D
06596:  MOVLB  0
06598:  CALL   1EEA
....................              while(s>230){ 
0659C:  MOVF   26,W
0659E:  SUBLW  E6
065A0:  BC    65BA
....................                    s = read_adc();     
065A2:  BSF    FC2.1
065A4:  BTFSC  FC2.1
065A6:  BRA    65A4
065A8:  MOVFF  FC4,26
....................                    delay_ms(50); 
065AC:  MOVLW  32
065AE:  MOVLB  B
065B0:  MOVWF  x2D
065B2:  MOVLB  0
065B4:  CALL   1EEA
065B8:  BRA    659C
....................                    } 
....................              if (s > 10 && s < 40){ 
065BA:  MOVF   26,W
065BC:  SUBLW  0A
065BE:  BC    6636
065C0:  MOVF   26,W
065C2:  SUBLW  27
065C4:  BNC   6636
....................                  monthset ++; 
065C6:  INCF   1A,F
....................                  if(monthset > 12) 
065C8:  MOVF   1A,W
065CA:  SUBLW  0C
065CC:  BC    65D2
....................                      monthset = 1; 
065CE:  MOVLW  01
065D0:  MOVWF  1A
....................                   
....................                  glcd_rect(52,18,74,32,YES,OFF); 
065D2:  MOVLW  34
065D4:  MOVLB  B
065D6:  MOVWF  x25
065D8:  MOVLW  12
065DA:  MOVWF  x26
065DC:  MOVLW  4A
065DE:  MOVWF  x27
065E0:  MOVLW  20
065E2:  MOVWF  x28
065E4:  MOVLW  01
065E6:  MOVWF  x29
065E8:  CLRF   x2A
065EA:  MOVLB  0
065EC:  CALL   21D8
....................                  sprintf(Pgeneral,"%02d", monthset); 
065F0:  MOVLW  05
065F2:  MOVLB  B
065F4:  MOVWF  x24
065F6:  MOVLW  A0
065F8:  MOVWF  x23
065FA:  MOVFF  1A,B25
065FE:  MOVLW  01
06600:  MOVWF  x26
06602:  MOVLB  0
06604:  CALL   2650
....................                  glcd_text57(52,18,Pgeneral, 2, 1); 
06608:  MOVLW  34
0660A:  MOVLB  B
0660C:  MOVWF  x25
0660E:  MOVLW  12
06610:  MOVWF  x26
06612:  MOVLW  05
06614:  MOVWF  x28
06616:  MOVLW  A0
06618:  MOVWF  x27
0661A:  MOVLW  02
0661C:  MOVWF  x29
0661E:  MOVLW  01
06620:  MOVWF  x2A
06622:  MOVLB  0
06624:  CALL   229A
....................                  delay_ms(200); 
06628:  MOVLW  C8
0662A:  MOVLB  B
0662C:  MOVWF  x2D
0662E:  MOVLB  0
06630:  CALL   1EEA
....................                  goto START9; 
06634:  BRA    6502
....................              } 
....................               if(s > 60 && s < 90){ 
06636:  MOVF   26,W
06638:  SUBLW  3C
0663A:  BC    66B0
0663C:  MOVF   26,W
0663E:  SUBLW  59
06640:  BNC   66B0
....................                   
....................                  monthset --; 
06642:  DECF   1A,F
....................                  if(monthset == 0 ) 
06644:  MOVF   1A,F
06646:  BNZ   664C
....................                      monthset = 12; 
06648:  MOVLW  0C
0664A:  MOVWF  1A
....................                  glcd_rect(52,18,74,32,YES,OFF); 
0664C:  MOVLW  34
0664E:  MOVLB  B
06650:  MOVWF  x25
06652:  MOVLW  12
06654:  MOVWF  x26
06656:  MOVLW  4A
06658:  MOVWF  x27
0665A:  MOVLW  20
0665C:  MOVWF  x28
0665E:  MOVLW  01
06660:  MOVWF  x29
06662:  CLRF   x2A
06664:  MOVLB  0
06666:  CALL   21D8
....................                  sprintf(Pgeneral,"%02d", monthset); 
0666A:  MOVLW  05
0666C:  MOVLB  B
0666E:  MOVWF  x24
06670:  MOVLW  A0
06672:  MOVWF  x23
06674:  MOVFF  1A,B25
06678:  MOVLW  01
0667A:  MOVWF  x26
0667C:  MOVLB  0
0667E:  CALL   2650
....................                  glcd_text57(52,18,Pgeneral, 2, 1); 
06682:  MOVLW  34
06684:  MOVLB  B
06686:  MOVWF  x25
06688:  MOVLW  12
0668A:  MOVWF  x26
0668C:  MOVLW  05
0668E:  MOVWF  x28
06690:  MOVLW  A0
06692:  MOVWF  x27
06694:  MOVLW  02
06696:  MOVWF  x29
06698:  MOVLW  01
0669A:  MOVWF  x2A
0669C:  MOVLB  0
0669E:  CALL   229A
....................                  delay_ms(100); 
066A2:  MOVLW  64
066A4:  MOVLB  B
066A6:  MOVWF  x2D
066A8:  MOVLB  0
066AA:  CALL   1EEA
....................                  goto START9; 
066AE:  BRA    6502
....................              }  
....................               if (s > 115 && s < 135){ 
066B0:  MOVF   26,W
066B2:  SUBLW  73
066B4:  BC    6742
066B6:  MOVF   26,W
066B8:  SUBLW  86
066BA:  BNC   6742
....................                   
....................                  glcd_rect(20,34,40,35,YES,ON); 
066BC:  MOVLW  14
066BE:  MOVLB  B
066C0:  MOVWF  x25
066C2:  MOVLW  22
066C4:  MOVWF  x26
066C6:  MOVLW  28
066C8:  MOVWF  x27
066CA:  MOVLW  23
066CC:  MOVWF  x28
066CE:  MOVLW  01
066D0:  MOVWF  x29
066D2:  MOVWF  x2A
066D4:  MOVLB  0
066D6:  CALL   21D8
....................                  glcd_rect(52,34,73,35,YES,OFF); 
066DA:  MOVLW  34
066DC:  MOVLB  B
066DE:  MOVWF  x25
066E0:  MOVLW  22
066E2:  MOVWF  x26
066E4:  MOVLW  49
066E6:  MOVWF  x27
066E8:  MOVLW  23
066EA:  MOVWF  x28
066EC:  MOVLW  01
066EE:  MOVWF  x29
066F0:  CLRF   x2A
066F2:  MOVLB  0
066F4:  CALL   21D8
....................                  glcd_rect(85,34,107,35,YES,OFF); 
066F8:  MOVLW  55
066FA:  MOVLB  B
066FC:  MOVWF  x25
066FE:  MOVLW  22
06700:  MOVWF  x26
06702:  MOVLW  6B
06704:  MOVWF  x27
06706:  MOVLW  23
06708:  MOVWF  x28
0670A:  MOVLW  01
0670C:  MOVWF  x29
0670E:  CLRF   x2A
06710:  MOVLB  0
06712:  CALL   21D8
....................                  glcd_rect(9,41,118,57,NO,ON); 
06716:  MOVLW  09
06718:  MOVLB  B
0671A:  MOVWF  x25
0671C:  MOVLW  29
0671E:  MOVWF  x26
06720:  MOVLW  76
06722:  MOVWF  x27
06724:  MOVLW  39
06726:  MOVWF  x28
06728:  CLRF   x29
0672A:  MOVLW  01
0672C:  MOVWF  x2A
0672E:  MOVLB  0
06730:  CALL   21D8
....................                  delay_ms(200); 
06734:  MOVLW  C8
06736:  MOVLB  B
06738:  MOVWF  x2D
0673A:  MOVLB  0
0673C:  CALL   1EEA
....................                  goto START8; 
06740:  BRA    634E
....................              } 
....................               if(s > 165 &&  s < 185){ 
06742:  MOVF   26,W
06744:  SUBLW  A5
06746:  BTFSC  FD8.0
06748:  BRA    699E
0674A:  MOVF   26,W
0674C:  SUBLW  B8
0674E:  BTFSS  FD8.0
06750:  BRA    699E
....................                  START10: 
....................                   
....................                  glcd_rect(20,34,40,35,YES,OFF); 
06752:  MOVLW  14
06754:  MOVLB  B
06756:  MOVWF  x25
06758:  MOVLW  22
0675A:  MOVWF  x26
0675C:  MOVLW  28
0675E:  MOVWF  x27
06760:  MOVLW  23
06762:  MOVWF  x28
06764:  MOVLW  01
06766:  MOVWF  x29
06768:  CLRF   x2A
0676A:  MOVLB  0
0676C:  CALL   21D8
....................                  glcd_rect(52,34,73,35,YES,OFF);  
06770:  MOVLW  34
06772:  MOVLB  B
06774:  MOVWF  x25
06776:  MOVLW  22
06778:  MOVWF  x26
0677A:  MOVLW  49
0677C:  MOVWF  x27
0677E:  MOVLW  23
06780:  MOVWF  x28
06782:  MOVLW  01
06784:  MOVWF  x29
06786:  CLRF   x2A
06788:  MOVLB  0
0678A:  CALL   21D8
....................                  glcd_rect(85,34,107,35,YES,ON); 
0678E:  MOVLW  55
06790:  MOVLB  B
06792:  MOVWF  x25
06794:  MOVLW  22
06796:  MOVWF  x26
06798:  MOVLW  6B
0679A:  MOVWF  x27
0679C:  MOVLW  23
0679E:  MOVWF  x28
067A0:  MOVLW  01
067A2:  MOVWF  x29
067A4:  MOVWF  x2A
067A6:  MOVLB  0
067A8:  CALL   21D8
....................                  glcd_rect(9,41,118,57,NO,ON); 
067AC:  MOVLW  09
067AE:  MOVLB  B
067B0:  MOVWF  x25
067B2:  MOVLW  29
067B4:  MOVWF  x26
067B6:  MOVLW  76
067B8:  MOVWF  x27
067BA:  MOVLW  39
067BC:  MOVWF  x28
067BE:  CLRF   x29
067C0:  MOVLW  01
067C2:  MOVWF  x2A
067C4:  MOVLB  0
067C6:  CALL   21D8
....................                   
....................                  delay_ms(200); 
067CA:  MOVLW  C8
067CC:  MOVLB  B
067CE:  MOVWF  x2D
067D0:  MOVLB  0
067D2:  CALL   1EEA
....................                  s = read_adc();     
067D6:  BSF    FC2.1
067D8:  BTFSC  FC2.1
067DA:  BRA    67D8
067DC:  MOVFF  FC4,26
....................                  delay_ms(50); 
067E0:  MOVLW  32
067E2:  MOVLB  B
067E4:  MOVWF  x2D
067E6:  MOVLB  0
067E8:  CALL   1EEA
....................                  while(s>230){ 
067EC:  MOVF   26,W
067EE:  SUBLW  E6
067F0:  BC    680A
....................                    s = read_adc();     
067F2:  BSF    FC2.1
067F4:  BTFSC  FC2.1
067F6:  BRA    67F4
067F8:  MOVFF  FC4,26
....................                    delay_ms(50); 
067FC:  MOVLW  32
067FE:  MOVLB  B
06800:  MOVWF  x2D
06802:  MOVLB  0
06804:  CALL   1EEA
06808:  BRA    67EC
....................                    } 
....................                   if (s > 10 && s < 40){ 
0680A:  MOVF   26,W
0680C:  SUBLW  0A
0680E:  BC    687A
06810:  MOVF   26,W
06812:  SUBLW  27
06814:  BNC   687A
....................                       yrset++; 
06816:  INCF   1B,F
....................                       if(yrset > 80) 
06818:  MOVF   1B,W
0681A:  SUBLW  50
0681C:  BC    6822
....................                           yrset = 2; 
0681E:  MOVLW  02
06820:  MOVWF  1B
....................                       glcd_rect(85,18,107,32,YES,OFF); 
06822:  MOVLW  55
06824:  MOVLB  B
06826:  MOVWF  x25
06828:  MOVLW  12
0682A:  MOVWF  x26
0682C:  MOVLW  6B
0682E:  MOVWF  x27
06830:  MOVLW  20
06832:  MOVWF  x28
06834:  MOVLW  01
06836:  MOVWF  x29
06838:  CLRF   x2A
0683A:  MOVLB  0
0683C:  CALL   21D8
....................                       sprintf(Pgeneral,"%02d", yrset); 
06840:  MOVLW  05
06842:  MOVLB  B
06844:  MOVWF  x24
06846:  MOVLW  A0
06848:  MOVWF  x23
0684A:  MOVFF  1B,B25
0684E:  MOVLW  01
06850:  MOVWF  x26
06852:  MOVLB  0
06854:  CALL   2650
....................                       glcd_text57(87,18,Pgeneral, 2, 1); 
06858:  MOVLW  57
0685A:  MOVLB  B
0685C:  MOVWF  x25
0685E:  MOVLW  12
06860:  MOVWF  x26
06862:  MOVLW  05
06864:  MOVWF  x28
06866:  MOVLW  A0
06868:  MOVWF  x27
0686A:  MOVLW  02
0686C:  MOVWF  x29
0686E:  MOVLW  01
06870:  MOVWF  x2A
06872:  MOVLB  0
06874:  CALL   229A
....................                      goto START10; 
06878:  BRA    6752
....................                   } 
....................                   
....................                    if (s > 60 && s < 90){ 
0687A:  MOVF   26,W
0687C:  SUBLW  3C
0687E:  BC    68EA
06880:  MOVF   26,W
06882:  SUBLW  59
06884:  BNC   68EA
....................                      yrset--; 
06886:  DECF   1B,F
....................                       if(yrset < 2) 
06888:  MOVF   1B,W
0688A:  SUBLW  01
0688C:  BNC   6892
....................                           yrset = 80; 
0688E:  MOVLW  50
06890:  MOVWF  1B
....................                       glcd_rect(85,18,107,32,YES,OFF); 
06892:  MOVLW  55
06894:  MOVLB  B
06896:  MOVWF  x25
06898:  MOVLW  12
0689A:  MOVWF  x26
0689C:  MOVLW  6B
0689E:  MOVWF  x27
068A0:  MOVLW  20
068A2:  MOVWF  x28
068A4:  MOVLW  01
068A6:  MOVWF  x29
068A8:  CLRF   x2A
068AA:  MOVLB  0
068AC:  CALL   21D8
....................                       sprintf(Pgeneral,"%02d", yrset); 
068B0:  MOVLW  05
068B2:  MOVLB  B
068B4:  MOVWF  x24
068B6:  MOVLW  A0
068B8:  MOVWF  x23
068BA:  MOVFF  1B,B25
068BE:  MOVLW  01
068C0:  MOVWF  x26
068C2:  MOVLB  0
068C4:  CALL   2650
....................                       glcd_text57(87,18,Pgeneral, 2, 1); 
068C8:  MOVLW  57
068CA:  MOVLB  B
068CC:  MOVWF  x25
068CE:  MOVLW  12
068D0:  MOVWF  x26
068D2:  MOVLW  05
068D4:  MOVWF  x28
068D6:  MOVLW  A0
068D8:  MOVWF  x27
068DA:  MOVLW  02
068DC:  MOVWF  x29
068DE:  MOVLW  01
068E0:  MOVWF  x2A
068E2:  MOVLB  0
068E4:  CALL   229A
....................                      goto START10; 
068E8:  BRA    6752
....................                   } 
....................                   if (s > 115 && s < 135) 
068EA:  MOVF   26,W
068EC:  SUBLW  73
068EE:  BC    68F8
068F0:  MOVF   26,W
068F2:  SUBLW  86
068F4:  BNC   68F8
....................                     goto START9; 
068F6:  BRA    6502
....................                   
....................                  if(s > 165 &&  s < 185){ 
068F8:  MOVF   26,W
068FA:  SUBLW  A5
068FC:  BC    699C
068FE:  MOVF   26,W
06900:  SUBLW  B8
06902:  BNC   699C
....................                     glcd_rect(85,34,107,35,YES,OFF);  
06904:  MOVLW  55
06906:  MOVLB  B
06908:  MOVWF  x25
0690A:  MOVLW  22
0690C:  MOVWF  x26
0690E:  MOVLW  6B
06910:  MOVWF  x27
06912:  MOVLW  23
06914:  MOVWF  x28
06916:  MOVLW  01
06918:  MOVWF  x29
0691A:  CLRF   x2A
0691C:  MOVLB  0
0691E:  CALL   21D8
....................                     glcd_rect(9,41,118,57,NO,OFF); 
06922:  MOVLW  09
06924:  MOVLB  B
06926:  MOVWF  x25
06928:  MOVLW  29
0692A:  MOVWF  x26
0692C:  MOVLW  76
0692E:  MOVWF  x27
06930:  MOVLW  39
06932:  MOVWF  x28
06934:  CLRF   x29
06936:  CLRF   x2A
06938:  MOVLB  0
0693A:  CALL   21D8
....................                     START11: 
....................                     delay_ms(200); 
0693E:  MOVLW  C8
06940:  MOVLB  B
06942:  MOVWF  x2D
06944:  MOVLB  0
06946:  CALL   1EEA
....................                     s = read_adc();     
0694A:  BSF    FC2.1
0694C:  BTFSC  FC2.1
0694E:  BRA    694C
06950:  MOVFF  FC4,26
....................                     delay_ms(50); 
06954:  MOVLW  32
06956:  MOVLB  B
06958:  MOVWF  x2D
0695A:  MOVLB  0
0695C:  CALL   1EEA
....................                     while(s>230){ 
06960:  MOVF   26,W
06962:  SUBLW  E6
06964:  BC    697E
....................                        s = read_adc();     
06966:  BSF    FC2.1
06968:  BTFSC  FC2.1
0696A:  BRA    6968
0696C:  MOVFF  FC4,26
....................                        delay_ms(50); 
06970:  MOVLW  32
06972:  MOVLB  B
06974:  MOVWF  x2D
06976:  MOVLB  0
06978:  CALL   1EEA
0697C:  BRA    6960
....................                     } 
....................                     if(s > 195 && s < 225) 
0697E:  MOVF   26,W
06980:  SUBLW  C3
06982:  BC    698C
06984:  MOVF   26,W
06986:  SUBLW  E0
06988:  BNC   698C
....................                         goto SET_RTC; 
0698A:  BRA    69A4
....................                     if(s > 115 && s < 135) 
0698C:  MOVF   26,W
0698E:  SUBLW  73
06990:  BC    699A
06992:  MOVF   26,W
06994:  SUBLW  86
06996:  BNC   699A
....................                         goto START10; 
06998:  BRA    6752
....................                  } 
0699A:  BRA    699E
....................                  else 
....................                      goto START11; 
0699C:  BRA    693E
....................              }   
....................           } 
0699E:  BRA    69A2
....................              else  
....................                  goto START8; 
069A0:  BRA    634E
....................              goto START8; 
069A2:  BRA    634E
.................... //======================================================================================== 
.................... //=========================================================================================              
....................  
....................           
....................           
....................   SET_RTC: 
....................   ds1307_set_date_time(dayset,monthset,yrset,dow,hrset,time,minset,0); 
069A4:  MOVFF  19,B25
069A8:  MOVFF  1A,B26
069AC:  MOVFF  1B,B27
069B0:  MOVFF  24,B28
069B4:  MOVFF  1C,B29
069B8:  MOVFF  B17,B2A
069BC:  MOVFF  1D,B2B
069C0:  MOVLB  B
069C2:  CLRF   x2C
069C4:  MOVLB  0
069C6:  GOTO   28B0
....................   glcd_fillscreen(0); 
069CA:  MOVLB  B
069CC:  CLRF   x26
069CE:  MOVLB  0
069D0:  CALL   1BC8
....................   glcd_text57(22,3,AJUSTEFECHA, 1, 1); 
069D4:  MOVLW  16
069D6:  MOVLB  B
069D8:  MOVWF  x25
069DA:  MOVLW  03
069DC:  MOVWF  x26
069DE:  MOVLW  02
069E0:  MOVWF  x28
069E2:  MOVLW  E0
069E4:  MOVWF  x27
069E6:  MOVLW  01
069E8:  MOVWF  x29
069EA:  MOVWF  x2A
069EC:  MOVLB  0
069EE:  CALL   229A
....................   glcd_finalizado(); 
069F2:  GOTO   2992
....................   glcd_text57(45,25,DATOS, 1, 1); 
069F6:  MOVLW  2D
069F8:  MOVLB  B
069FA:  MOVWF  x25
069FC:  MOVLW  19
069FE:  MOVWF  x26
06A00:  MOVLW  04
06A02:  MOVWF  x28
06A04:  MOVLW  05
06A06:  MOVWF  x27
06A08:  MOVLW  01
06A0A:  MOVWF  x29
06A0C:  MOVWF  x2A
06A0E:  MOVLB  0
06A10:  CALL   229A
....................   glcd_text57(45,35,DATOS2, 1, 1); 
06A14:  MOVLW  2D
06A16:  MOVLB  B
06A18:  MOVWF  x25
06A1A:  MOVLW  23
06A1C:  MOVWF  x26
06A1E:  MOVLW  04
06A20:  MOVWF  x28
06A22:  MOVLW  20
06A24:  MOVWF  x27
06A26:  MOVLW  01
06A28:  MOVWF  x29
06A2A:  MOVWF  x2A
06A2C:  MOVLB  0
06A2E:  CALL   229A
....................   delay_ms(3000); 
06A32:  MOVLW  0C
06A34:  MOVLB  B
06A36:  MOVWF  x25
06A38:  MOVLW  FA
06A3A:  MOVWF  x2D
06A3C:  MOVLB  0
06A3E:  CALL   1EEA
06A42:  MOVLB  B
06A44:  DECFSZ x25,F
06A46:  BRA    6A38
....................   goto CONF_RTC; 
06A48:  GOTO   549C
06A4C:  MOVLB  0
....................           
....................           
....................           
....................           
....................     SIGUIENTE: 
....................           
....................         glcd_fillScreen(0); 
06A4E:  MOVLB  B
06A50:  CLRF   x26
06A52:  MOVLB  0
06A54:  CALL   1BC8
....................         glcd_rect(0,0,127,63,NO,ON); 
06A58:  MOVLB  B
06A5A:  CLRF   x25
06A5C:  CLRF   x26
06A5E:  MOVLW  7F
06A60:  MOVWF  x27
06A62:  MOVLW  3F
06A64:  MOVWF  x28
06A66:  CLRF   x29
06A68:  MOVLW  01
06A6A:  MOVWF  x2A
06A6C:  MOVLB  0
06A6E:  CALL   21D8
....................         glcd_rect(1,1,126,62,NO,ON); 
06A72:  MOVLW  01
06A74:  MOVLB  B
06A76:  MOVWF  x25
06A78:  MOVWF  x26
06A7A:  MOVLW  7E
06A7C:  MOVWF  x27
06A7E:  MOVLW  3E
06A80:  MOVWF  x28
06A82:  CLRF   x29
06A84:  MOVLW  01
06A86:  MOVWF  x2A
06A88:  MOVLB  0
06A8A:  CALL   21D8
....................         glcd_text57(28,5,EEPROM, 1, 1); 
06A8E:  MOVLW  1C
06A90:  MOVLB  B
06A92:  MOVWF  x25
06A94:  MOVLW  05
06A96:  MOVWF  x26
06A98:  MOVLW  03
06A9A:  MOVWF  x28
06A9C:  MOVLW  05
06A9E:  MOVWF  x27
06AA0:  MOVLW  01
06AA2:  MOVWF  x29
06AA4:  MOVWF  x2A
06AA6:  MOVLB  0
06AA8:  CALL   229A
....................         glcd_rect(10,14,25,33,YES,ON); 
06AAC:  MOVLW  0A
06AAE:  MOVLB  B
06AB0:  MOVWF  x25
06AB2:  MOVLW  0E
06AB4:  MOVWF  x26
06AB6:  MOVLW  19
06AB8:  MOVWF  x27
06ABA:  MOVLW  21
06ABC:  MOVWF  x28
06ABE:  MOVLW  01
06AC0:  MOVWF  x29
06AC2:  MOVWF  x2A
06AC4:  MOVLB  0
06AC6:  CALL   21D8
....................         glcd_rect(8,15,10,17,YES,ON); 
06ACA:  MOVLW  08
06ACC:  MOVLB  B
06ACE:  MOVWF  x25
06AD0:  MOVLW  0F
06AD2:  MOVWF  x26
06AD4:  MOVLW  0A
06AD6:  MOVWF  x27
06AD8:  MOVLW  11
06ADA:  MOVWF  x28
06ADC:  MOVLW  01
06ADE:  MOVWF  x29
06AE0:  MOVWF  x2A
06AE2:  MOVLB  0
06AE4:  CALL   21D8
....................         glcd_rect(8,20,10,22,YES,ON); 
06AE8:  MOVLW  08
06AEA:  MOVLB  B
06AEC:  MOVWF  x25
06AEE:  MOVLW  14
06AF0:  MOVWF  x26
06AF2:  MOVLW  0A
06AF4:  MOVWF  x27
06AF6:  MOVLW  16
06AF8:  MOVWF  x28
06AFA:  MOVLW  01
06AFC:  MOVWF  x29
06AFE:  MOVWF  x2A
06B00:  MOVLB  0
06B02:  CALL   21D8
....................         glcd_rect(8,25,10,27,YES,ON); 
06B06:  MOVLW  08
06B08:  MOVLB  B
06B0A:  MOVWF  x25
06B0C:  MOVLW  19
06B0E:  MOVWF  x26
06B10:  MOVLW  0A
06B12:  MOVWF  x27
06B14:  MOVLW  1B
06B16:  MOVWF  x28
06B18:  MOVLW  01
06B1A:  MOVWF  x29
06B1C:  MOVWF  x2A
06B1E:  MOVLB  0
06B20:  CALL   21D8
....................         glcd_rect(8,30,10,32,YES,ON); 
06B24:  MOVLW  08
06B26:  MOVLB  B
06B28:  MOVWF  x25
06B2A:  MOVLW  1E
06B2C:  MOVWF  x26
06B2E:  MOVLW  0A
06B30:  MOVWF  x27
06B32:  MOVLW  20
06B34:  MOVWF  x28
06B36:  MOVLW  01
06B38:  MOVWF  x29
06B3A:  MOVWF  x2A
06B3C:  MOVLB  0
06B3E:  CALL   21D8
....................         glcd_rect(25,15,27,17,YES,ON); 
06B42:  MOVLW  19
06B44:  MOVLB  B
06B46:  MOVWF  x25
06B48:  MOVLW  0F
06B4A:  MOVWF  x26
06B4C:  MOVLW  1B
06B4E:  MOVWF  x27
06B50:  MOVLW  11
06B52:  MOVWF  x28
06B54:  MOVLW  01
06B56:  MOVWF  x29
06B58:  MOVWF  x2A
06B5A:  MOVLB  0
06B5C:  CALL   21D8
....................         glcd_rect(25,20,27,22,YES,ON); 
06B60:  MOVLW  19
06B62:  MOVLB  B
06B64:  MOVWF  x25
06B66:  MOVLW  14
06B68:  MOVWF  x26
06B6A:  MOVLW  1B
06B6C:  MOVWF  x27
06B6E:  MOVLW  16
06B70:  MOVWF  x28
06B72:  MOVLW  01
06B74:  MOVWF  x29
06B76:  MOVWF  x2A
06B78:  MOVLB  0
06B7A:  CALL   21D8
....................         glcd_rect(25,25,27,27,YES,ON); 
06B7E:  MOVLW  19
06B80:  MOVLB  B
06B82:  MOVWF  x25
06B84:  MOVWF  x26
06B86:  MOVLW  1B
06B88:  MOVWF  x27
06B8A:  MOVWF  x28
06B8C:  MOVLW  01
06B8E:  MOVWF  x29
06B90:  MOVWF  x2A
06B92:  MOVLB  0
06B94:  CALL   21D8
....................         glcd_rect(25,30,27,32,YES,ON); 
06B98:  MOVLW  19
06B9A:  MOVLB  B
06B9C:  MOVWF  x25
06B9E:  MOVLW  1E
06BA0:  MOVWF  x26
06BA2:  MOVLW  1B
06BA4:  MOVWF  x27
06BA6:  MOVLW  20
06BA8:  MOVWF  x28
06BAA:  MOVLW  01
06BAC:  MOVWF  x29
06BAE:  MOVWF  x2A
06BB0:  MOVLB  0
06BB2:  CALL   21D8
....................         glcd_text57(35,15,CAPACITY, 1, 1); 
06BB6:  MOVLW  23
06BB8:  MOVLB  B
06BBA:  MOVWF  x25
06BBC:  MOVLW  0F
06BBE:  MOVWF  x26
06BC0:  MOVLW  0B
06BC2:  MOVWF  x28
06BC4:  MOVLW  18
06BC6:  MOVWF  x27
06BC8:  MOVLW  01
06BCA:  MOVWF  x29
06BCC:  MOVWF  x2A
06BCE:  MOVLB  0
06BD0:  CALL   229A
....................         glcd_text57(35,25,UNREAD, 1, 1); 
06BD4:  MOVLW  23
06BD6:  MOVLB  B
06BD8:  MOVWF  x25
06BDA:  MOVLW  19
06BDC:  MOVWF  x26
06BDE:  MOVLW  03
06BE0:  MOVWF  x28
06BE2:  MOVLW  45
06BE4:  MOVWF  x27
06BE6:  MOVLW  01
06BE8:  MOVWF  x29
06BEA:  MOVWF  x2A
06BEC:  MOVLB  0
06BEE:  CALL   229A
....................          
....................         glcd_rect(4,37,41,58,YES,ON); 
06BF2:  MOVLW  04
06BF4:  MOVLB  B
06BF6:  MOVWF  x25
06BF8:  MOVLW  25
06BFA:  MOVWF  x26
06BFC:  MOVLW  29
06BFE:  MOVWF  x27
06C00:  MOVLW  3A
06C02:  MOVWF  x28
06C04:  MOVLW  01
06C06:  MOVWF  x29
06C08:  MOVWF  x2A
06C0A:  MOVLB  0
06C0C:  CALL   21D8
....................         glcd_rect(43,37,83,58,YES,ON); 
06C10:  MOVLW  2B
06C12:  MOVLB  B
06C14:  MOVWF  x25
06C16:  MOVLW  25
06C18:  MOVWF  x26
06C1A:  MOVLW  53
06C1C:  MOVWF  x27
06C1E:  MOVLW  3A
06C20:  MOVWF  x28
06C22:  MOVLW  01
06C24:  MOVWF  x29
06C26:  MOVWF  x2A
06C28:  MOVLB  0
06C2A:  CALL   21D8
....................         glcd_rect(85,37,123,58,YES,ON); 
06C2E:  MOVLW  55
06C30:  MOVLB  B
06C32:  MOVWF  x25
06C34:  MOVLW  25
06C36:  MOVWF  x26
06C38:  MOVLW  7B
06C3A:  MOVWF  x27
06C3C:  MOVLW  3A
06C3E:  MOVWF  x28
06C40:  MOVLW  01
06C42:  MOVWF  x29
06C44:  MOVWF  x2A
06C46:  MOVLB  0
06C48:  CALL   21D8
....................         glcd_text57(10,45,LEER, 1, 0);   
06C4C:  MOVLW  0A
06C4E:  MOVLB  B
06C50:  MOVWF  x25
06C52:  MOVLW  2D
06C54:  MOVWF  x26
06C56:  MOVLW  05
06C58:  MOVWF  x28
06C5A:  MOVLW  C0
06C5C:  MOVWF  x27
06C5E:  MOVLW  01
06C60:  MOVWF  x29
06C62:  CLRF   x2A
06C64:  MOVLB  0
06C66:  CALL   229A
....................         glcd_text57(47,45,BORRAR, 1, 0);  
06C6A:  MOVLW  2F
06C6C:  MOVLB  B
06C6E:  MOVWF  x25
06C70:  MOVLW  2D
06C72:  MOVWF  x26
06C74:  MOVLW  05
06C76:  MOVWF  x28
06C78:  MOVLW  D0
06C7A:  MOVWF  x27
06C7C:  MOVLW  01
06C7E:  MOVWF  x29
06C80:  CLRF   x2A
06C82:  MOVLB  0
06C84:  CALL   229A
....................         arrow(); 
06C88:  CALL   270C
....................         //glcd_text57(90,45,SALIR, 1, 0);  
....................          
....................          
.................... //================================================================     
.................... //================================================================   
....................   START3: 
....................   glcd_rect(5,38,40,57,NO,OFF); 
06C8C:  MOVLW  05
06C8E:  MOVLB  B
06C90:  MOVWF  x25
06C92:  MOVLW  26
06C94:  MOVWF  x26
06C96:  MOVLW  28
06C98:  MOVWF  x27
06C9A:  MOVLW  39
06C9C:  MOVWF  x28
06C9E:  CLRF   x29
06CA0:  CLRF   x2A
06CA2:  MOVLB  0
06CA4:  CALL   21D8
....................   s = read_adc(); 
06CA8:  BSF    FC2.1
06CAA:  BTFSC  FC2.1
06CAC:  BRA    6CAA
06CAE:  MOVFF  FC4,26
....................   delay_ms(50); 
06CB2:  MOVLW  32
06CB4:  MOVLB  B
06CB6:  MOVWF  x2D
06CB8:  MOVLB  0
06CBA:  CALL   1EEA
....................    
....................   while(s>230){ 
06CBE:  MOVF   26,W
06CC0:  SUBLW  E6
06CC2:  BC    6CDA
....................   s = read_adc(); 
06CC4:  BSF    FC2.1
06CC6:  BTFSC  FC2.1
06CC8:  BRA    6CC6
06CCA:  MOVFF  FC4,26
....................   delay_us(40); 
06CCE:  MOVLW  1A
06CD0:  MOVWF  00
06CD2:  DECFSZ 00,F
06CD4:  BRA    6CD2
06CD6:  NOP   
06CD8:  BRA    6CBE
....................   } 
....................    
....................    if(s > 195 && s < 225) //enter 
06CDA:  MOVF   26,W
06CDC:  SUBLW  C3
06CDE:  BC    6CEA
06CE0:  MOVF   26,W
06CE2:  SUBLW  E0
06CE4:  BNC   6CEA
....................        goto LEER_EEPROM; 
06CE6:  BRA    6EF4
06CE8:  BRA    6EF2
....................    else if (s > 165 &&  s < 185){ 
06CEA:  MOVF   26,W
06CEC:  SUBLW  A5
06CEE:  BTFSC  FD8.0
06CF0:  BRA    6EF2
06CF2:  MOVF   26,W
06CF4:  SUBLW  B8
06CF6:  BTFSS  FD8.0
06CF8:  BRA    6EF2
....................        Return2: 
....................        glcd_rect(5,38,40,57,NO,ON); 
06CFA:  MOVLW  05
06CFC:  MOVLB  B
06CFE:  MOVWF  x25
06D00:  MOVLW  26
06D02:  MOVWF  x26
06D04:  MOVLW  28
06D06:  MOVWF  x27
06D08:  MOVLW  39
06D0A:  MOVWF  x28
06D0C:  CLRF   x29
06D0E:  MOVLW  01
06D10:  MOVWF  x2A
06D12:  MOVLB  0
06D14:  CALL   21D8
....................        glcd_rect(44,38,82,57,NO,OFF); 
06D18:  MOVLW  2C
06D1A:  MOVLB  B
06D1C:  MOVWF  x25
06D1E:  MOVLW  26
06D20:  MOVWF  x26
06D22:  MOVLW  52
06D24:  MOVWF  x27
06D26:  MOVLW  39
06D28:  MOVWF  x28
06D2A:  CLRF   x29
06D2C:  CLRF   x2A
06D2E:  MOVLB  0
06D30:  CALL   21D8
....................        glcd_rect(86,38,122,57,NO,ON); 
06D34:  MOVLW  56
06D36:  MOVLB  B
06D38:  MOVWF  x25
06D3A:  MOVLW  26
06D3C:  MOVWF  x26
06D3E:  MOVLW  7A
06D40:  MOVWF  x27
06D42:  MOVLW  39
06D44:  MOVWF  x28
06D46:  CLRF   x29
06D48:  MOVLW  01
06D4A:  MOVWF  x2A
06D4C:  MOVLB  0
06D4E:  CALL   21D8
....................        delay_ms(500); 
06D52:  MOVLW  02
06D54:  MOVLB  B
06D56:  MOVWF  x25
06D58:  MOVLW  FA
06D5A:  MOVWF  x2D
06D5C:  MOVLB  0
06D5E:  CALL   1EEA
06D62:  MOVLB  B
06D64:  DECFSZ x25,F
06D66:  BRA    6D58
....................        s = read_adc(); 
06D68:  BSF    FC2.1
06D6A:  BTFSC  FC2.1
06D6C:  BRA    6D6A
06D6E:  MOVFF  FC4,26
....................        delay_ms(50); 
06D72:  MOVLW  32
06D74:  MOVWF  x2D
06D76:  MOVLB  0
06D78:  CALL   1EEA
....................        while(s > 240){ 
06D7C:  MOVF   26,W
06D7E:  SUBLW  F0
06D80:  BC    6D9A
....................             s = read_adc(); 
06D82:  BSF    FC2.1
06D84:  BTFSC  FC2.1
06D86:  BRA    6D84
06D88:  MOVFF  FC4,26
....................             delay_ms(50);//******************** 
06D8C:  MOVLW  32
06D8E:  MOVLB  B
06D90:  MOVWF  x2D
06D92:  MOVLB  0
06D94:  CALL   1EEA
06D98:  BRA    6D7C
....................             } 
....................        if(s > 195 && s < 225) //enter 
06D9A:  MOVF   26,W
06D9C:  SUBLW  C3
06D9E:  BC    6DA8
06DA0:  MOVF   26,W
06DA2:  SUBLW  E0
06DA4:  BNC   6DA8
....................            goto BORRAR_EEPROM; 
06DA6:  BRA    7102
....................        if(s > 115 && s < 135){ //devolver 
06DA8:  MOVF   26,W
06DAA:  SUBLW  73
06DAC:  BC    6E1C
06DAE:  MOVF   26,W
06DB0:  SUBLW  86
06DB2:  BNC   6E1C
....................             
....................            glcd_rect(5,38,40,57,NO,OFF); 
06DB4:  MOVLW  05
06DB6:  MOVLB  B
06DB8:  MOVWF  x25
06DBA:  MOVLW  26
06DBC:  MOVWF  x26
06DBE:  MOVLW  28
06DC0:  MOVWF  x27
06DC2:  MOVLW  39
06DC4:  MOVWF  x28
06DC6:  CLRF   x29
06DC8:  CLRF   x2A
06DCA:  MOVLB  0
06DCC:  CALL   21D8
....................            glcd_rect(44,38,82,57,NO,ON); 
06DD0:  MOVLW  2C
06DD2:  MOVLB  B
06DD4:  MOVWF  x25
06DD6:  MOVLW  26
06DD8:  MOVWF  x26
06DDA:  MOVLW  52
06DDC:  MOVWF  x27
06DDE:  MOVLW  39
06DE0:  MOVWF  x28
06DE2:  CLRF   x29
06DE4:  MOVLW  01
06DE6:  MOVWF  x2A
06DE8:  MOVLB  0
06DEA:  CALL   21D8
....................            glcd_rect(86,38,122,57,NO,ON); 
06DEE:  MOVLW  56
06DF0:  MOVLB  B
06DF2:  MOVWF  x25
06DF4:  MOVLW  26
06DF6:  MOVWF  x26
06DF8:  MOVLW  7A
06DFA:  MOVWF  x27
06DFC:  MOVLW  39
06DFE:  MOVWF  x28
06E00:  CLRF   x29
06E02:  MOVLW  01
06E04:  MOVWF  x2A
06E06:  MOVLB  0
06E08:  CALL   21D8
....................            delay_ms(50); 
06E0C:  MOVLW  32
06E0E:  MOVLB  B
06E10:  MOVWF  x2D
06E12:  MOVLB  0
06E14:  CALL   1EEA
....................            goto START3; 
06E18:  BRA    6C8C
....................        }    
06E1A:  BRA    6EF2
....................        else if(s > 165 &&  s < 185){ //avanzar 
06E1C:  MOVF   26,W
06E1E:  SUBLW  A5
06E20:  BTFSC  FD8.0
06E22:  BRA    6EF2
06E24:  MOVF   26,W
06E26:  SUBLW  B8
06E28:  BNC   6EF2
....................            glcd_rect(5,38,40,57,NO,ON); 
06E2A:  MOVLW  05
06E2C:  MOVLB  B
06E2E:  MOVWF  x25
06E30:  MOVLW  26
06E32:  MOVWF  x26
06E34:  MOVLW  28
06E36:  MOVWF  x27
06E38:  MOVLW  39
06E3A:  MOVWF  x28
06E3C:  CLRF   x29
06E3E:  MOVLW  01
06E40:  MOVWF  x2A
06E42:  MOVLB  0
06E44:  CALL   21D8
....................            glcd_rect(44,38,82,57,NO,ON); 
06E48:  MOVLW  2C
06E4A:  MOVLB  B
06E4C:  MOVWF  x25
06E4E:  MOVLW  26
06E50:  MOVWF  x26
06E52:  MOVLW  52
06E54:  MOVWF  x27
06E56:  MOVLW  39
06E58:  MOVWF  x28
06E5A:  CLRF   x29
06E5C:  MOVLW  01
06E5E:  MOVWF  x2A
06E60:  MOVLB  0
06E62:  CALL   21D8
....................            glcd_rect(86,38,122,57,NO,OFF); 
06E66:  MOVLW  56
06E68:  MOVLB  B
06E6A:  MOVWF  x25
06E6C:  MOVLW  26
06E6E:  MOVWF  x26
06E70:  MOVLW  7A
06E72:  MOVWF  x27
06E74:  MOVLW  39
06E76:  MOVWF  x28
06E78:  CLRF   x29
06E7A:  CLRF   x2A
06E7C:  MOVLB  0
06E7E:  CALL   21D8
....................            delay_ms(100); 
06E82:  MOVLW  64
06E84:  MOVLB  B
06E86:  MOVWF  x2D
06E88:  MOVLB  0
06E8A:  CALL   1EEA
....................            s = read_adc(); 
06E8E:  BSF    FC2.1
06E90:  BTFSC  FC2.1
06E92:  BRA    6E90
06E94:  MOVFF  FC4,26
....................            delay_us(40); 
06E98:  MOVLW  1A
06E9A:  MOVWF  00
06E9C:  DECFSZ 00,F
06E9E:  BRA    6E9C
06EA0:  NOP   
....................            while(s > 240){ 
06EA2:  MOVF   26,W
06EA4:  SUBLW  F0
06EA6:  BC    6EC0
....................            s = read_adc(); 
06EA8:  BSF    FC2.1
06EAA:  BTFSC  FC2.1
06EAC:  BRA    6EAA
06EAE:  MOVFF  FC4,26
....................            delay_ms(50);//******************** 
06EB2:  MOVLW  32
06EB4:  MOVLB  B
06EB6:  MOVWF  x2D
06EB8:  MOVLB  0
06EBA:  CALL   1EEA
06EBE:  BRA    6EA2
....................             } 
....................            if(s > 195 && s < 225) //enter 
06EC0:  MOVF   26,W
06EC2:  SUBLW  C3
06EC4:  BC    6ED0
06EC6:  MOVF   26,W
06EC8:  SUBLW  E0
06ECA:  BNC   6ED0
....................            goto SIGUIENTE2; 
06ECC:  BRA    7242
06ECE:  BRA    6EF2
....................            else if(s > 115 && s < 135) 
06ED0:  MOVF   26,W
06ED2:  SUBLW  73
06ED4:  BC    6EE0
06ED6:  MOVF   26,W
06ED8:  SUBLW  86
06EDA:  BNC   6EE0
....................                goto Return2; 
06EDC:  BRA    6CFA
06EDE:  BRA    6EF2
....................            else if(s > 165 &&  s < 185) 
06EE0:  MOVF   26,W
06EE2:  SUBLW  A5
06EE4:  BC    6EF0
06EE6:  MOVF   26,W
06EE8:  SUBLW  B8
06EEA:  BNC   6EF0
....................                goto START3; 
06EEC:  BRA    6C8C
06EEE:  BRA    6EF2
....................            else  
....................                goto START3;     
06EF0:  BRA    6C8C
....................        }     
....................    } 
....................     goto START3;  
06EF2:  BRA    6C8C
.................... //================================================================   
.................... //================================================================  
....................     LEER_EEPROM: 
....................      glcd_rect(35,25,60,35,YES,OFF); 
06EF4:  MOVLW  23
06EF6:  MOVLB  B
06EF8:  MOVWF  x25
06EFA:  MOVLW  19
06EFC:  MOVWF  x26
06EFE:  MOVLW  3C
06F00:  MOVWF  x27
06F02:  MOVLW  23
06F04:  MOVWF  x28
06F06:  MOVLW  01
06F08:  MOVWF  x29
06F0A:  CLRF   x2A
06F0C:  MOVLB  0
06F0E:  CALL   21D8
....................      
.................... //     for(eread=0;eread<1024;eread++){ 
.................... //         write_ext_eeprom(eread,0x38); 
.................... //         delay_us(100); 
.................... //     } 
.................... //    
....................     glcd_rect(4,37,41,58,YES,ON); 
06F12:  MOVLW  04
06F14:  MOVLB  B
06F16:  MOVWF  x25
06F18:  MOVLW  25
06F1A:  MOVWF  x26
06F1C:  MOVLW  29
06F1E:  MOVWF  x27
06F20:  MOVLW  3A
06F22:  MOVWF  x28
06F24:  MOVLW  01
06F26:  MOVWF  x29
06F28:  MOVWF  x2A
06F2A:  MOVLB  0
06F2C:  CALL   21D8
....................  //   glcd_rect(5,38,40,57,NO,OFF); 
....................      
....................     glcd_text57(15,45,LOADING 1, 0); 
06F30:  MOVLW  0F
06F32:  MOVLB  B
06F34:  MOVWF  x25
06F36:  MOVLW  2D
06F38:  MOVWF  x26
06F3A:  MOVLW  05
06F3C:  MOVWF  x28
06F3E:  MOVLW  F0
06F40:  MOVWF  x27
06F42:  MOVLW  01
06F44:  MOVWF  x29
06F46:  CLRF   x2A
06F48:  MOVLB  0
06F4A:  CALL   229A
....................     actualbyte = 0; 
06F4E:  CLRF   41
06F50:  CLRF   40
....................     for(eread=0;eread<256;eread++){ 
06F52:  CLRF   3F
06F54:  CLRF   3E
06F56:  MOVF   3F,W
06F58:  SUBLW  00
06F5A:  BNC   7032
....................          
....................         buffer = read_ext_eeprom(eread); 
06F5C:  MOVFF  3F,B28
06F60:  MOVFF  3E,B27
06F64:  CALL   2AEC
06F68:  MOVLB  B
06F6A:  CLRF   x26
06F6C:  MOVFF  01,B25
06F70:  MOVLB  0
06F72:  CALL   2B66
06F76:  MOVFF  03,B0F
06F7A:  MOVFF  02,B0E
06F7E:  MOVFF  01,B0D
06F82:  MOVFF  00,B0C
....................         delay_us(200); 
06F86:  MOVLW  84
06F88:  MOVWF  00
06F8A:  DECFSZ 00,F
06F8C:  BRA    6F8A
06F8E:  BRA    6F90
06F90:  NOP   
....................          
....................         if(buffer != 0xFF){ 
06F92:  MOVFF  B0F,B28
06F96:  MOVFF  B0E,B27
06F9A:  MOVFF  B0D,B26
06F9E:  MOVFF  B0C,B25
06FA2:  MOVLB  B
06FA4:  CLRF   x2C
06FA6:  CLRF   x2B
06FA8:  MOVLW  7F
06FAA:  MOVWF  x2A
06FAC:  MOVLW  86
06FAE:  MOVWF  x29
06FB0:  MOVLB  0
06FB2:  CALL   2B9C
06FB6:  BZ    702A
....................             actualbyte++; 
06FB8:  INCF   40,F
06FBA:  BTFSC  FD8.2
06FBC:  INCF   41,F
....................  
....................             if(actualbyte != oldactualbyte){ 
06FBE:  MOVF   42,W
06FC0:  SUBWF  40,W
06FC2:  BNZ   6FCA
06FC4:  MOVF   43,W
06FC6:  SUBWF  41,W
06FC8:  BZ    702A
....................             
....................                  glcd_text57(35,25,Pgeneral, 1, 0);  
06FCA:  MOVLW  23
06FCC:  MOVLB  B
06FCE:  MOVWF  x25
06FD0:  MOVLW  19
06FD2:  MOVWF  x26
06FD4:  MOVLW  05
06FD6:  MOVWF  x28
06FD8:  MOVLW  A0
06FDA:  MOVWF  x27
06FDC:  MOVLW  01
06FDE:  MOVWF  x29
06FE0:  CLRF   x2A
06FE2:  MOVLB  0
06FE4:  CALL   229A
....................                  sprintf(Pgeneral,"%lu", actualbyte); 
06FE8:  MOVLW  05
06FEA:  MOVLB  B
06FEC:  MOVWF  x24
06FEE:  MOVLW  A0
06FF0:  MOVWF  x23
06FF2:  MOVLW  10
06FF4:  MOVWF  FE9
06FF6:  MOVFF  41,B26
06FFA:  MOVFF  40,B25
06FFE:  MOVLB  0
07000:  CALL   2C16
....................                  glcd_text57(35,25,Pgeneral, 1, 1);  
07004:  MOVLW  23
07006:  MOVLB  B
07008:  MOVWF  x25
0700A:  MOVLW  19
0700C:  MOVWF  x26
0700E:  MOVLW  05
07010:  MOVWF  x28
07012:  MOVLW  A0
07014:  MOVWF  x27
07016:  MOVLW  01
07018:  MOVWF  x29
0701A:  MOVWF  x2A
0701C:  MOVLB  0
0701E:  CALL   229A
....................                  oldactualbyte = actualbyte; 
07022:  MOVFF  41,43
07026:  MOVFF  40,42
....................             } 
....................         } 
0702A:  INCF   3E,F
0702C:  BTFSC  FD8.2
0702E:  INCF   3F,F
07030:  BRA    6F56
....................     } 
....................      
....................     glcd_text57(35,25,UNREAD, 1, 1); 
07032:  MOVLW  23
07034:  MOVLB  B
07036:  MOVWF  x25
07038:  MOVLW  19
0703A:  MOVWF  x26
0703C:  MOVLW  03
0703E:  MOVWF  x28
07040:  MOVLW  45
07042:  MOVWF  x27
07044:  MOVLW  01
07046:  MOVWF  x29
07048:  MOVWF  x2A
0704A:  MOVLB  0
0704C:  CALL   229A
....................     glcd_rect(35,25,60,35,YES,OFF); 
07050:  MOVLW  23
07052:  MOVLB  B
07054:  MOVWF  x25
07056:  MOVLW  19
07058:  MOVWF  x26
0705A:  MOVLW  3C
0705C:  MOVWF  x27
0705E:  MOVLW  23
07060:  MOVWF  x28
07062:  MOVLW  01
07064:  MOVWF  x29
07066:  CLRF   x2A
07068:  MOVLB  0
0706A:  CALL   21D8
....................     sprintf(Pgeneral,"%lu", actualbyte); 
0706E:  MOVLW  05
07070:  MOVLB  B
07072:  MOVWF  x24
07074:  MOVLW  A0
07076:  MOVWF  x23
07078:  MOVLW  10
0707A:  MOVWF  FE9
0707C:  MOVFF  41,B26
07080:  MOVFF  40,B25
07084:  MOVLB  0
07086:  CALL   2C16
....................     glcd_text57(35,25,Pgeneral, 1, 1);  
0708A:  MOVLW  23
0708C:  MOVLB  B
0708E:  MOVWF  x25
07090:  MOVLW  19
07092:  MOVWF  x26
07094:  MOVLW  05
07096:  MOVWF  x28
07098:  MOVLW  A0
0709A:  MOVWF  x27
0709C:  MOVLW  01
0709E:  MOVWF  x29
070A0:  MOVWF  x2A
070A2:  MOVLB  0
070A4:  CALL   229A
....................      
....................     glcd_rect(4,37,41,58,YES,ON); 
070A8:  MOVLW  04
070AA:  MOVLB  B
070AC:  MOVWF  x25
070AE:  MOVLW  25
070B0:  MOVWF  x26
070B2:  MOVLW  29
070B4:  MOVWF  x27
070B6:  MOVLW  3A
070B8:  MOVWF  x28
070BA:  MOVLW  01
070BC:  MOVWF  x29
070BE:  MOVWF  x2A
070C0:  MOVLB  0
070C2:  CALL   21D8
....................     glcd_rect(5,38,40,57,NO,OFF); 
070C6:  MOVLW  05
070C8:  MOVLB  B
070CA:  MOVWF  x25
070CC:  MOVLW  26
070CE:  MOVWF  x26
070D0:  MOVLW  28
070D2:  MOVWF  x27
070D4:  MOVLW  39
070D6:  MOVWF  x28
070D8:  CLRF   x29
070DA:  CLRF   x2A
070DC:  MOVLB  0
070DE:  CALL   21D8
....................     glcd_text57(10,45,LEER, 1, 0);   
070E2:  MOVLW  0A
070E4:  MOVLB  B
070E6:  MOVWF  x25
070E8:  MOVLW  2D
070EA:  MOVWF  x26
070EC:  MOVLW  05
070EE:  MOVWF  x28
070F0:  MOVLW  C0
070F2:  MOVWF  x27
070F4:  MOVLW  01
070F6:  MOVWF  x29
070F8:  CLRF   x2A
070FA:  MOVLB  0
070FC:  CALL   229A
....................     goto START3; 
07100:  BRA    6C8C
....................      
....................  
....................     BORRAR_EEPROM: 
....................      
....................     glcd_rect(43,37,83,58,YES,ON); 
07102:  MOVLW  2B
07104:  MOVLB  B
07106:  MOVWF  x25
07108:  MOVLW  25
0710A:  MOVWF  x26
0710C:  MOVLW  53
0710E:  MOVWF  x27
07110:  MOVLW  3A
07112:  MOVWF  x28
07114:  MOVLW  01
07116:  MOVWF  x29
07118:  MOVWF  x2A
0711A:  MOVLB  0
0711C:  CALL   21D8
....................     glcd_text57(56,45,LOADING 1, 0); 
07120:  MOVLW  38
07122:  MOVLB  B
07124:  MOVWF  x25
07126:  MOVLW  2D
07128:  MOVWF  x26
0712A:  MOVLW  05
0712C:  MOVWF  x28
0712E:  MOVLW  F0
07130:  MOVWF  x27
07132:  MOVLW  01
07134:  MOVWF  x29
07136:  CLRF   x2A
07138:  MOVLB  0
0713A:  CALL   229A
....................      
....................      for(eread=0;eread<1024;eread++){ 
0713E:  CLRF   3F
07140:  CLRF   3E
07142:  MOVF   3F,W
07144:  SUBLW  03
07146:  BNC   716C
....................          write_ext_eeprom(eread,0xFF); 
07148:  MOVFF  3F,B29
0714C:  MOVFF  3E,B28
07150:  MOVLB  B
07152:  SETF   x2A
07154:  MOVLB  0
07156:  CALL   2CDC
....................          delay_us(10); 
0715A:  MOVLW  06
0715C:  MOVWF  00
0715E:  DECFSZ 00,F
07160:  BRA    715E
07162:  NOP   
07164:  INCF   3E,F
07166:  BTFSC  FD8.2
07168:  INCF   3F,F
0716A:  BRA    7142
....................      } 
....................      
....................     write_ext_eeprom(0,0); 
0716C:  MOVLB  B
0716E:  CLRF   x29
07170:  CLRF   x28
07172:  CLRF   x2A
07174:  MOVLB  0
07176:  CALL   2CDC
....................     write_ext_eeprom(1,0); 
0717A:  MOVLB  B
0717C:  CLRF   x29
0717E:  MOVLW  01
07180:  MOVWF  x28
07182:  CLRF   x2A
07184:  MOVLB  0
07186:  CALL   2CDC
.................... //    write_ext_eeprom(2,16); 
.................... //    write_ext_eeprom(3,12); 
.................... //    write_ext_eeprom(4,11); 
.................... //    write_ext_eeprom(5,23); 
.................... //    write_ext_eeprom(6,2); 
.................... //    write_ext_eeprom(7,30); 
.................... //    write_ext_eeprom(8,8); 
.................... //    write_ext_eeprom(9,6); 
.................... //    write_ext_eeprom(10,16); 
.................... ////==========================     
.................... //    write_ext_eeprom(11,17); 
.................... //    write_ext_eeprom(12,63); 
.................... //    write_ext_eeprom(13,12); 
.................... //    write_ext_eeprom(14,68); 
.................... //    write_ext_eeprom(15,4); 
.................... //    write_ext_eeprom(16,30); 
.................... //    write_ext_eeprom(17,9); 
.................... //    write_ext_eeprom(18,6); 
.................... //    write_ext_eeprom(19,16); 
.................... ////==========================     
.................... //    write_ext_eeprom(20,9); 
.................... //    write_ext_eeprom(21,58); 
.................... //    write_ext_eeprom(22,11); 
.................... //    write_ext_eeprom(23,14); 
.................... //    write_ext_eeprom(24,6); 
.................... //    write_ext_eeprom(25,30); 
.................... //    write_ext_eeprom(26,10); 
.................... //    write_ext_eeprom(27,6); 
.................... //    write_ext_eeprom(28,16); 
.................... ////==========================     
.................... //    write_ext_eeprom(29,14); 
.................... //    write_ext_eeprom(30,78); 
.................... //    write_ext_eeprom(31,6); 
.................... //    write_ext_eeprom(32,87); 
.................... //    write_ext_eeprom(33,8); 
.................... //    write_ext_eeprom(34,30); 
.................... //    write_ext_eeprom(35,11); 
.................... //    write_ext_eeprom(36,6);    
.................... //    write_ext_eeprom(37,16); 
....................  
....................      
....................     glcd_text57(35,25,UNREAD, 1, 1); 
0718A:  MOVLW  23
0718C:  MOVLB  B
0718E:  MOVWF  x25
07190:  MOVLW  19
07192:  MOVWF  x26
07194:  MOVLW  03
07196:  MOVWF  x28
07198:  MOVLW  45
0719A:  MOVWF  x27
0719C:  MOVLW  01
0719E:  MOVWF  x29
071A0:  MOVWF  x2A
071A2:  MOVLB  0
071A4:  CALL   229A
....................     glcd_rect(35,25,60,35,YES,OFF); 
071A8:  MOVLW  23
071AA:  MOVLB  B
071AC:  MOVWF  x25
071AE:  MOVLW  19
071B0:  MOVWF  x26
071B2:  MOVLW  3C
071B4:  MOVWF  x27
071B6:  MOVLW  23
071B8:  MOVWF  x28
071BA:  MOVLW  01
071BC:  MOVWF  x29
071BE:  CLRF   x2A
071C0:  MOVLB  0
071C2:  CALL   21D8
....................     actualbyte = 0; 
071C6:  CLRF   41
071C8:  CLRF   40
....................     sprintf(Pgeneral,"%lu", actualbyte); 
071CA:  MOVLW  05
071CC:  MOVLB  B
071CE:  MOVWF  x24
071D0:  MOVLW  A0
071D2:  MOVWF  x23
071D4:  MOVLW  10
071D6:  MOVWF  FE9
071D8:  MOVFF  41,B26
071DC:  MOVFF  40,B25
071E0:  MOVLB  0
071E2:  CALL   2C16
....................     glcd_text57(55,25,Pgeneral, 1, 1);  
071E6:  MOVLW  37
071E8:  MOVLB  B
071EA:  MOVWF  x25
071EC:  MOVLW  19
071EE:  MOVWF  x26
071F0:  MOVLW  05
071F2:  MOVWF  x28
071F4:  MOVLW  A0
071F6:  MOVWF  x27
071F8:  MOVLW  01
071FA:  MOVWF  x29
071FC:  MOVWF  x2A
071FE:  MOVLB  0
07200:  CALL   229A
....................     glcd_rect(43,37,83,58,YES,ON); 
07204:  MOVLW  2B
07206:  MOVLB  B
07208:  MOVWF  x25
0720A:  MOVLW  25
0720C:  MOVWF  x26
0720E:  MOVLW  53
07210:  MOVWF  x27
07212:  MOVLW  3A
07214:  MOVWF  x28
07216:  MOVLW  01
07218:  MOVWF  x29
0721A:  MOVWF  x2A
0721C:  MOVLB  0
0721E:  CALL   21D8
....................     glcd_text57(47,45,BORRAR, 1, 0);  
07222:  MOVLW  2F
07224:  MOVLB  B
07226:  MOVWF  x25
07228:  MOVLW  2D
0722A:  MOVWF  x26
0722C:  MOVLW  05
0722E:  MOVWF  x28
07230:  MOVLW  D0
07232:  MOVWF  x27
07234:  MOVLW  01
07236:  MOVWF  x29
07238:  CLRF   x2A
0723A:  MOVLB  0
0723C:  CALL   229A
....................      
....................     goto START3; 
07240:  BRA    6C8C
.................... //========================================================================================================   
.................... //========================================================================================================      
....................     SIGUIENTE2: 
....................     glcd_fillScreen(0); 
07242:  MOVLB  B
07244:  CLRF   x26
07246:  MOVLB  0
07248:  CALL   1BC8
....................     glcd_rect(0,0,127,63,NO,ON); 
0724C:  MOVLB  B
0724E:  CLRF   x25
07250:  CLRF   x26
07252:  MOVLW  7F
07254:  MOVWF  x27
07256:  MOVLW  3F
07258:  MOVWF  x28
0725A:  CLRF   x29
0725C:  MOVLW  01
0725E:  MOVWF  x2A
07260:  MOVLB  0
07262:  CALL   21D8
....................     glcd_rect(1,1,126,62,NO,ON); 
07266:  MOVLW  01
07268:  MOVLB  B
0726A:  MOVWF  x25
0726C:  MOVWF  x26
0726E:  MOVLW  7E
07270:  MOVWF  x27
07272:  MOVLW  3E
07274:  MOVWF  x28
07276:  CLRF   x29
07278:  MOVLW  01
0727A:  MOVWF  x2A
0727C:  MOVLB  0
0727E:  CALL   21D8
....................     glcd_text57(5,5,CONSUMO, 1, 1);  
07282:  MOVLW  05
07284:  MOVLB  B
07286:  MOVWF  x25
07288:  MOVWF  x26
0728A:  MOVLW  04
0728C:  MOVWF  x28
0728E:  MOVLW  80
07290:  MOVWF  x27
07292:  MOVLW  01
07294:  MOVWF  x29
07296:  MOVWF  x2A
07298:  MOVLB  0
0729A:  CALL   229A
....................      
....................     glcd_text57(5,18,CONSULTARC, 1, 1); 
0729E:  MOVLW  05
072A0:  MOVLB  B
072A2:  MOVWF  x25
072A4:  MOVLW  12
072A6:  MOVWF  x26
072A8:  MOVLW  04
072AA:  MOVWF  x28
072AC:  MOVLW  A0
072AE:  MOVWF  x27
072B0:  MOVLW  01
072B2:  MOVWF  x29
072B4:  MOVWF  x2A
072B6:  MOVLB  0
072B8:  CALL   229A
....................     glcd_text57(5,28,CONSULTARC2, 1, 1); 
072BC:  MOVLW  05
072BE:  MOVLB  B
072C0:  MOVWF  x25
072C2:  MOVLW  1C
072C4:  MOVWF  x26
072C6:  MOVLW  04
072C8:  MOVWF  x28
072CA:  MOVLW  C0
072CC:  MOVWF  x27
072CE:  MOVLW  01
072D0:  MOVWF  x29
072D2:  MOVWF  x2A
072D4:  MOVLB  0
072D6:  CALL   229A
....................      
....................     glcd_rect(4,37,41,58,YES,ON); 
072DA:  MOVLW  04
072DC:  MOVLB  B
072DE:  MOVWF  x25
072E0:  MOVLW  25
072E2:  MOVWF  x26
072E4:  MOVLW  29
072E6:  MOVWF  x27
072E8:  MOVLW  3A
072EA:  MOVWF  x28
072EC:  MOVLW  01
072EE:  MOVWF  x29
072F0:  MOVWF  x2A
072F2:  MOVLB  0
072F4:  CALL   21D8
....................     glcd_rect(43,37,83,58,YES,ON); 
072F8:  MOVLW  2B
072FA:  MOVLB  B
072FC:  MOVWF  x25
072FE:  MOVLW  25
07300:  MOVWF  x26
07302:  MOVLW  53
07304:  MOVWF  x27
07306:  MOVLW  3A
07308:  MOVWF  x28
0730A:  MOVLW  01
0730C:  MOVWF  x29
0730E:  MOVWF  x2A
07310:  MOVLB  0
07312:  CALL   21D8
....................     glcd_rect(85,37,123,58,YES,ON); 
07316:  MOVLW  55
07318:  MOVLB  B
0731A:  MOVWF  x25
0731C:  MOVLW  25
0731E:  MOVWF  x26
07320:  MOVLW  7B
07322:  MOVWF  x27
07324:  MOVLW  3A
07326:  MOVWF  x28
07328:  MOVLW  01
0732A:  MOVWF  x29
0732C:  MOVWF  x2A
0732E:  MOVLB  0
07330:  CALL   21D8
....................      
....................     glcd_rect(5,38,40,57,NO,OFF); 
07334:  MOVLW  05
07336:  MOVLB  B
07338:  MOVWF  x25
0733A:  MOVLW  26
0733C:  MOVWF  x26
0733E:  MOVLW  28
07340:  MOVWF  x27
07342:  MOVLW  39
07344:  MOVWF  x28
07346:  CLRF   x29
07348:  CLRF   x2A
0734A:  MOVLB  0
0734C:  CALL   21D8
....................        
....................     glcd_text57(17,45,SI, 1, 0);   
07350:  MOVLW  11
07352:  MOVLB  B
07354:  MOVWF  x25
07356:  MOVLW  2D
07358:  MOVWF  x26
0735A:  MOVLW  02
0735C:  MOVWF  x28
0735E:  MOVLW  30
07360:  MOVWF  x27
07362:  MOVLW  01
07364:  MOVWF  x29
07366:  CLRF   x2A
07368:  MOVLB  0
0736A:  CALL   229A
....................     glcd_text57(47,45,VOLVERR, 1, 0); 
0736E:  MOVLW  2F
07370:  MOVLB  B
07372:  MOVWF  x25
07374:  MOVLW  2D
07376:  MOVWF  x26
07378:  MOVLW  04
0737A:  MOVWF  x28
0737C:  MOVLW  E0
0737E:  MOVWF  x27
07380:  MOVLW  01
07382:  MOVWF  x29
07384:  CLRF   x2A
07386:  MOVLB  0
07388:  CALL   229A
....................    glcd_text57(90,45,SALIR, 1, 0);  
0738C:  MOVLW  5A
0738E:  MOVLB  B
07390:  MOVWF  x25
07392:  MOVLW  2D
07394:  MOVWF  x26
07396:  MOVLW  05
07398:  MOVWF  x28
0739A:  MOVLW  E0
0739C:  MOVWF  x27
0739E:  MOVLW  01
073A0:  MOVWF  x29
073A2:  CLRF   x2A
073A4:  MOVLB  0
073A6:  CALL   229A
....................     
....................     
....................   START20: //2 
....................   s = read_adc(); 
073AA:  BSF    FC2.1
073AC:  BTFSC  FC2.1
073AE:  BRA    73AC
073B0:  MOVFF  FC4,26
....................   delay_ms(50); 
073B4:  MOVLW  32
073B6:  MOVLB  B
073B8:  MOVWF  x2D
073BA:  MOVLB  0
073BC:  CALL   1EEA
....................    
....................   while(s>230){ 
073C0:  MOVF   26,W
073C2:  SUBLW  E6
073C4:  BC    73DE
....................   s = read_adc(); 
073C6:  BSF    FC2.1
073C8:  BTFSC  FC2.1
073CA:  BRA    73C8
073CC:  MOVFF  FC4,26
....................   delay_us(80); 
073D0:  MOVLW  34
073D2:  MOVWF  00
073D4:  DECFSZ 00,F
073D6:  BRA    73D4
073D8:  BRA    73DA
073DA:  NOP   
073DC:  BRA    73C0
....................   } 
....................    
....................    if(s > 195 && s < 225) //enter 
073DE:  MOVF   26,W
073E0:  SUBLW  C3
073E2:  BC    73EE
073E4:  MOVF   26,W
073E6:  SUBLW  E0
073E8:  BNC   73EE
....................        goto CONSULTAR_CONSUMOS; 
073EA:  BRA    75F8
073EC:  BRA    75F6
....................    else if (s > 165 &&  s < 185){ 
073EE:  MOVF   26,W
073F0:  SUBLW  A5
073F2:  BTFSC  FD8.0
073F4:  BRA    75F6
073F6:  MOVF   26,W
073F8:  SUBLW  B8
073FA:  BTFSS  FD8.0
073FC:  BRA    75F6
....................        Return10: //1 
....................        glcd_rect(5,38,40,57,NO,ON); 
073FE:  MOVLW  05
07400:  MOVLB  B
07402:  MOVWF  x25
07404:  MOVLW  26
07406:  MOVWF  x26
07408:  MOVLW  28
0740A:  MOVWF  x27
0740C:  MOVLW  39
0740E:  MOVWF  x28
07410:  CLRF   x29
07412:  MOVLW  01
07414:  MOVWF  x2A
07416:  MOVLB  0
07418:  CALL   21D8
....................        glcd_rect(44,38,82,57,NO,OFF); 
0741C:  MOVLW  2C
0741E:  MOVLB  B
07420:  MOVWF  x25
07422:  MOVLW  26
07424:  MOVWF  x26
07426:  MOVLW  52
07428:  MOVWF  x27
0742A:  MOVLW  39
0742C:  MOVWF  x28
0742E:  CLRF   x29
07430:  CLRF   x2A
07432:  MOVLB  0
07434:  CALL   21D8
....................        glcd_rect(86,38,122,57,NO,ON); 
07438:  MOVLW  56
0743A:  MOVLB  B
0743C:  MOVWF  x25
0743E:  MOVLW  26
07440:  MOVWF  x26
07442:  MOVLW  7A
07444:  MOVWF  x27
07446:  MOVLW  39
07448:  MOVWF  x28
0744A:  CLRF   x29
0744C:  MOVLW  01
0744E:  MOVWF  x2A
07450:  MOVLB  0
07452:  CALL   21D8
....................        delay_ms(500); 
07456:  MOVLW  02
07458:  MOVLB  B
0745A:  MOVWF  x25
0745C:  MOVLW  FA
0745E:  MOVWF  x2D
07460:  MOVLB  0
07462:  CALL   1EEA
07466:  MOVLB  B
07468:  DECFSZ x25,F
0746A:  BRA    745C
....................        s = read_adc(); 
0746C:  BSF    FC2.1
0746E:  BTFSC  FC2.1
07470:  BRA    746E
07472:  MOVFF  FC4,26
....................        delay_ms(50); 
07476:  MOVLW  32
07478:  MOVWF  x2D
0747A:  MOVLB  0
0747C:  CALL   1EEA
....................        while(s > 240){ 
07480:  MOVF   26,W
07482:  SUBLW  F0
07484:  BC    749E
....................             s = read_adc(); 
07486:  BSF    FC2.1
07488:  BTFSC  FC2.1
0748A:  BRA    7488
0748C:  MOVFF  FC4,26
....................             delay_ms(50);//******************** 
07490:  MOVLW  32
07492:  MOVLB  B
07494:  MOVWF  x2D
07496:  MOVLB  0
07498:  CALL   1EEA
0749C:  BRA    7480
....................             } 
....................        if(s > 195 && s < 225) //enter 
0749E:  MOVF   26,W
074A0:  SUBLW  C3
074A2:  BC    74AC
074A4:  MOVF   26,W
074A6:  SUBLW  E0
074A8:  BNC   74AC
....................            goto VOLVER; 
074AA:  BRA    7604
....................        if(s > 115 && s < 135){ //devolver 
074AC:  MOVF   26,W
074AE:  SUBLW  73
074B0:  BC    7520
074B2:  MOVF   26,W
074B4:  SUBLW  86
074B6:  BNC   7520
....................             
....................            glcd_rect(5,38,40,57,NO,OFF); 
074B8:  MOVLW  05
074BA:  MOVLB  B
074BC:  MOVWF  x25
074BE:  MOVLW  26
074C0:  MOVWF  x26
074C2:  MOVLW  28
074C4:  MOVWF  x27
074C6:  MOVLW  39
074C8:  MOVWF  x28
074CA:  CLRF   x29
074CC:  CLRF   x2A
074CE:  MOVLB  0
074D0:  CALL   21D8
....................            glcd_rect(44,38,82,57,NO,ON); 
074D4:  MOVLW  2C
074D6:  MOVLB  B
074D8:  MOVWF  x25
074DA:  MOVLW  26
074DC:  MOVWF  x26
074DE:  MOVLW  52
074E0:  MOVWF  x27
074E2:  MOVLW  39
074E4:  MOVWF  x28
074E6:  CLRF   x29
074E8:  MOVLW  01
074EA:  MOVWF  x2A
074EC:  MOVLB  0
074EE:  CALL   21D8
....................            glcd_rect(86,38,122,57,NO,ON); 
074F2:  MOVLW  56
074F4:  MOVLB  B
074F6:  MOVWF  x25
074F8:  MOVLW  26
074FA:  MOVWF  x26
074FC:  MOVLW  7A
074FE:  MOVWF  x27
07500:  MOVLW  39
07502:  MOVWF  x28
07504:  CLRF   x29
07506:  MOVLW  01
07508:  MOVWF  x2A
0750A:  MOVLB  0
0750C:  CALL   21D8
....................            delay_ms(50); 
07510:  MOVLW  32
07512:  MOVLB  B
07514:  MOVWF  x2D
07516:  MOVLB  0
07518:  CALL   1EEA
....................            goto START20; //2 
0751C:  BRA    73AA
....................        }    
0751E:  BRA    75F6
....................        else if(s > 165 &&  s < 185){ //avanzar 
07520:  MOVF   26,W
07522:  SUBLW  A5
07524:  BTFSC  FD8.0
07526:  BRA    75F6
07528:  MOVF   26,W
0752A:  SUBLW  B8
0752C:  BNC   75F6
....................            glcd_rect(5,38,40,57,NO,ON); 
0752E:  MOVLW  05
07530:  MOVLB  B
07532:  MOVWF  x25
07534:  MOVLW  26
07536:  MOVWF  x26
07538:  MOVLW  28
0753A:  MOVWF  x27
0753C:  MOVLW  39
0753E:  MOVWF  x28
07540:  CLRF   x29
07542:  MOVLW  01
07544:  MOVWF  x2A
07546:  MOVLB  0
07548:  CALL   21D8
....................            glcd_rect(44,38,82,57,NO,ON); 
0754C:  MOVLW  2C
0754E:  MOVLB  B
07550:  MOVWF  x25
07552:  MOVLW  26
07554:  MOVWF  x26
07556:  MOVLW  52
07558:  MOVWF  x27
0755A:  MOVLW  39
0755C:  MOVWF  x28
0755E:  CLRF   x29
07560:  MOVLW  01
07562:  MOVWF  x2A
07564:  MOVLB  0
07566:  CALL   21D8
....................            glcd_rect(86,38,122,57,NO,OFF); 
0756A:  MOVLW  56
0756C:  MOVLB  B
0756E:  MOVWF  x25
07570:  MOVLW  26
07572:  MOVWF  x26
07574:  MOVLW  7A
07576:  MOVWF  x27
07578:  MOVLW  39
0757A:  MOVWF  x28
0757C:  CLRF   x29
0757E:  CLRF   x2A
07580:  MOVLB  0
07582:  CALL   21D8
....................            delay_ms(100); 
07586:  MOVLW  64
07588:  MOVLB  B
0758A:  MOVWF  x2D
0758C:  MOVLB  0
0758E:  CALL   1EEA
....................            s = read_adc(); 
07592:  BSF    FC2.1
07594:  BTFSC  FC2.1
07596:  BRA    7594
07598:  MOVFF  FC4,26
....................            delay_us(40); 
0759C:  MOVLW  1A
0759E:  MOVWF  00
075A0:  DECFSZ 00,F
075A2:  BRA    75A0
075A4:  NOP   
....................            while(s > 240){ 
075A6:  MOVF   26,W
075A8:  SUBLW  F0
075AA:  BC    75C4
....................            s = read_adc(); 
075AC:  BSF    FC2.1
075AE:  BTFSC  FC2.1
075B0:  BRA    75AE
075B2:  MOVFF  FC4,26
....................            delay_ms(50);//******************** 
075B6:  MOVLW  32
075B8:  MOVLB  B
075BA:  MOVWF  x2D
075BC:  MOVLB  0
075BE:  CALL   1EEA
075C2:  BRA    75A6
....................             } 
....................            if(s > 195 && s < 225) //enter 
075C4:  MOVF   26,W
075C6:  SUBLW  C3
075C8:  BC    75D4
075CA:  MOVF   26,W
075CC:  SUBLW  E0
075CE:  BNC   75D4
....................            goto SISTEMA; 
075D0:  BRA    761C
075D2:  BRA    75F6
....................            else if(s > 115 && s < 135) 
075D4:  MOVF   26,W
075D6:  SUBLW  73
075D8:  BC    75E4
075DA:  MOVF   26,W
075DC:  SUBLW  86
075DE:  BNC   75E4
....................                goto Return10;//1 
075E0:  BRA    73FE
075E2:  BRA    75F6
....................            else if(s > 165 &&  s < 185) 
075E4:  MOVF   26,W
075E6:  SUBLW  A5
075E8:  BC    75F4
075EA:  MOVF   26,W
075EC:  SUBLW  B8
075EE:  BNC   75F4
....................                goto START20; 
075F0:  BRA    73AA
075F2:  BRA    75F6
....................            else  
....................                goto START20;     
075F4:  BRA    73AA
....................        }     
....................    } 
....................     goto START20;  
075F6:  BRA    73AA
....................      
.................... //========================================================================================================       
....................      
....................     CONSULTAR_CONSUMOS: 
....................     consulta_datos(); 
075F8:  GOTO   385C
....................     if(exitflag == 1){ 
075FC:  BTFSS  27.4
075FE:  BRA    7604
....................         exitflag = 0; 
07600:  BCF    27.4
....................         goto SISTEMA; 
07602:  BRA    761C
....................     } 
.................... //========================================================================================================   
....................     VOLVER: 
....................         delay_ms(2000); 
07604:  MOVLW  08
07606:  MOVLB  B
07608:  MOVWF  x25
0760A:  MOVLW  FA
0760C:  MOVWF  x2D
0760E:  MOVLB  0
07610:  CALL   1EEA
07614:  MOVLB  B
07616:  DECFSZ x25,F
07618:  BRA    760A
0761A:  MOVLB  0
.................... //========================================================================================================   
.................... //    EXIT: 
.................... //     
.................... //    delay_ms(2000); 
.................... //========================================================================================================   
.................... //========================================================================================================     
.................... // HABILITAR CONTROL?==================== 
....................  SISTEMA: 
....................    glcd_fillScreen(0); 
0761C:  MOVLB  B
0761E:  CLRF   x26
07620:  MOVLB  0
07622:  CALL   1BC8
....................    glcd_rect(0,0,127,63,NO,ON); 
07626:  MOVLB  B
07628:  CLRF   x25
0762A:  CLRF   x26
0762C:  MOVLW  7F
0762E:  MOVWF  x27
07630:  MOVLW  3F
07632:  MOVWF  x28
07634:  CLRF   x29
07636:  MOVLW  01
07638:  MOVWF  x2A
0763A:  MOVLB  0
0763C:  CALL   21D8
....................    glcd_rect(1,1,126,62,NO,ON); 
07640:  MOVLW  01
07642:  MOVLB  B
07644:  MOVWF  x25
07646:  MOVWF  x26
07648:  MOVLW  7E
0764A:  MOVWF  x27
0764C:  MOVLW  3E
0764E:  MOVWF  x28
07650:  CLRF   x29
07652:  MOVLW  01
07654:  MOVWF  x2A
07656:  MOVLB  0
07658:  CALL   21D8
....................    glcd_text57(5,5,MENSAJE1, 1, 1); 
0765C:  MOVLW  05
0765E:  MOVLB  B
07660:  MOVWF  x25
07662:  MOVWF  x26
07664:  CLRF   x28
07666:  MOVLW  81
07668:  MOVWF  x27
0766A:  MOVLW  01
0766C:  MOVWF  x29
0766E:  MOVWF  x2A
07670:  MOVLB  0
07672:  CALL   229A
....................    glcd_text57(10,20,H_CONTROL, 1, 1); 
07676:  MOVLW  0A
07678:  MOVLB  B
0767A:  MOVWF  x25
0767C:  MOVLW  14
0767E:  MOVWF  x26
07680:  MOVLW  05
07682:  MOVWF  x28
07684:  MOVLW  40
07686:  MOVWF  x27
07688:  MOVLW  01
0768A:  MOVWF  x29
0768C:  MOVWF  x2A
0768E:  MOVLB  0
07690:  CALL   229A
....................    glcd_rect(5,37,61,58,YES,ON); 
07694:  MOVLW  05
07696:  MOVLB  B
07698:  MOVWF  x25
0769A:  MOVLW  25
0769C:  MOVWF  x26
0769E:  MOVLW  3D
076A0:  MOVWF  x27
076A2:  MOVLW  3A
076A4:  MOVWF  x28
076A6:  MOVLW  01
076A8:  MOVWF  x29
076AA:  MOVWF  x2A
076AC:  MOVLB  0
076AE:  CALL   21D8
....................    glcd_rect(65,37,120,58,YES,ON); 
076B2:  MOVLW  41
076B4:  MOVLB  B
076B6:  MOVWF  x25
076B8:  MOVLW  25
076BA:  MOVWF  x26
076BC:  MOVLW  78
076BE:  MOVWF  x27
076C0:  MOVLW  3A
076C2:  MOVWF  x28
076C4:  MOVLW  01
076C6:  MOVWF  x29
076C8:  MOVWF  x2A
076CA:  MOVLB  0
076CC:  CALL   21D8
....................    glcd_text57(28,44,SI, 1, 0); 
076D0:  MOVLW  1C
076D2:  MOVLB  B
076D4:  MOVWF  x25
076D6:  MOVLW  2C
076D8:  MOVWF  x26
076DA:  MOVLW  02
076DC:  MOVWF  x28
076DE:  MOVLW  30
076E0:  MOVWF  x27
076E2:  MOVLW  01
076E4:  MOVWF  x29
076E6:  CLRF   x2A
076E8:  MOVLB  0
076EA:  CALL   229A
....................    glcd_text57(86,44,NOO, 1, 0); 
076EE:  MOVLW  56
076F0:  MOVLB  B
076F2:  MOVWF  x25
076F4:  MOVLW  2C
076F6:  MOVWF  x26
076F8:  MOVLW  02
076FA:  MOVWF  x28
076FC:  MOVLW  50
076FE:  MOVWF  x27
07700:  MOVLW  01
07702:  MOVWF  x29
07704:  CLRF   x2A
07706:  MOVLB  0
07708:  CALL   229A
....................     
....................    glcd_rect(6,38,60,57,NO,OFF); 
0770C:  MOVLW  06
0770E:  MOVLB  B
07710:  MOVWF  x25
07712:  MOVLW  26
07714:  MOVWF  x26
07716:  MOVLW  3C
07718:  MOVWF  x27
0771A:  MOVLW  39
0771C:  MOVWF  x28
0771E:  CLRF   x29
07720:  CLRF   x2A
07722:  MOVLB  0
07724:  CALL   21D8
....................   
....................    START100: 
....................    s = read_adc(); 
07728:  BSF    FC2.1
0772A:  BTFSC  FC2.1
0772C:  BRA    772A
0772E:  MOVFF  FC4,26
....................    delay_ms(100); //************************ 
07732:  MOVLW  64
07734:  MOVLB  B
07736:  MOVWF  x2D
07738:  MOVLB  0
0773A:  CALL   1EEA
....................     
....................    while(s > 240){ 
0773E:  MOVF   26,W
07740:  SUBLW  F0
07742:  BC    775C
....................     s = read_adc(); 
07744:  BSF    FC2.1
07746:  BTFSC  FC2.1
07748:  BRA    7746
0774A:  MOVFF  FC4,26
....................     delay_ms(50); 
0774E:  MOVLW  32
07750:  MOVLB  B
07752:  MOVWF  x2D
07754:  MOVLB  0
07756:  CALL   1EEA
0775A:  BRA    773E
....................    } 
....................     
....................    if(s > 195 && s < 225) //enter 
0775C:  MOVF   26,W
0775E:  SUBLW  C3
07760:  BC    776C
07762:  MOVF   26,W
07764:  SUBLW  E0
07766:  BNC   776C
....................        goto PRESET_CONTROL; 
07768:  BRA    7860
0776A:  BRA    785E
....................    else if(s > 165 &&  s < 185){ 
0776C:  MOVF   26,W
0776E:  SUBLW  A5
07770:  BTFSC  FD8.0
07772:  BRA    785E
07774:  MOVF   26,W
07776:  SUBLW  B8
07778:  BTFSS  FD8.0
0777A:  BRA    785E
....................        glcd_rect(6,38,60,57,NO,ON); 
0777C:  MOVLW  06
0777E:  MOVLB  B
07780:  MOVWF  x25
07782:  MOVLW  26
07784:  MOVWF  x26
07786:  MOVLW  3C
07788:  MOVWF  x27
0778A:  MOVLW  39
0778C:  MOVWF  x28
0778E:  CLRF   x29
07790:  MOVLW  01
07792:  MOVWF  x2A
07794:  MOVLB  0
07796:  CALL   21D8
....................        glcd_rect(66,38,119,57,NO,OFF); 
0779A:  MOVLW  42
0779C:  MOVLB  B
0779E:  MOVWF  x25
077A0:  MOVLW  26
077A2:  MOVWF  x26
077A4:  MOVLW  77
077A6:  MOVWF  x27
077A8:  MOVLW  39
077AA:  MOVWF  x28
077AC:  CLRF   x29
077AE:  CLRF   x2A
077B0:  MOVLB  0
077B2:  CALL   21D8
....................        delay_ms(100); 
077B6:  MOVLW  64
077B8:  MOVLB  B
077BA:  MOVWF  x2D
077BC:  MOVLB  0
077BE:  CALL   1EEA
....................        s = read_adc(); 
077C2:  BSF    FC2.1
077C4:  BTFSC  FC2.1
077C6:  BRA    77C4
077C8:  MOVFF  FC4,26
....................        delay_us(40); 
077CC:  MOVLW  1A
077CE:  MOVWF  00
077D0:  DECFSZ 00,F
077D2:  BRA    77D0
077D4:  NOP   
....................        while(s > 240){ 
077D6:  MOVF   26,W
077D8:  SUBLW  F0
077DA:  BC    77F4
....................             s = read_adc(); 
077DC:  BSF    FC2.1
077DE:  BTFSC  FC2.1
077E0:  BRA    77DE
077E2:  MOVFF  FC4,26
....................             delay_ms(50);//******************** 
077E6:  MOVLW  32
077E8:  MOVLB  B
077EA:  MOVWF  x2D
077EC:  MOVLB  0
077EE:  CALL   1EEA
077F2:  BRA    77D6
....................             } 
....................        if(s > 195 && s < 225){ 
077F4:  MOVF   26,W
077F6:  SUBLW  C3
077F8:  BC    7806
077FA:  MOVF   26,W
077FC:  SUBLW  E0
077FE:  BNC   7806
....................            c = 2; 
07800:  MOVLW  02
07802:  MOVWF  16
....................            goto SISTEMA3; 
07804:  BRA    7C1E
....................        } 
....................        if(s > 115 && s < 135){ 
07806:  MOVF   26,W
07808:  SUBLW  73
0780A:  BC    785C
0780C:  MOVF   26,W
0780E:  SUBLW  86
07810:  BNC   785C
....................            glcd_rect(66,38,119,57,NO,ON); 
07812:  MOVLW  42
07814:  MOVLB  B
07816:  MOVWF  x25
07818:  MOVLW  26
0781A:  MOVWF  x26
0781C:  MOVLW  77
0781E:  MOVWF  x27
07820:  MOVLW  39
07822:  MOVWF  x28
07824:  CLRF   x29
07826:  MOVLW  01
07828:  MOVWF  x2A
0782A:  MOVLB  0
0782C:  CALL   21D8
....................            glcd_rect(6,38,60,57,NO,OFF); 
07830:  MOVLW  06
07832:  MOVLB  B
07834:  MOVWF  x25
07836:  MOVLW  26
07838:  MOVWF  x26
0783A:  MOVLW  3C
0783C:  MOVWF  x27
0783E:  MOVLW  39
07840:  MOVWF  x28
07842:  CLRF   x29
07844:  CLRF   x2A
07846:  MOVLB  0
07848:  CALL   21D8
....................            delay_ms(50); 
0784C:  MOVLW  32
0784E:  MOVLB  B
07850:  MOVWF  x2D
07852:  MOVLB  0
07854:  CALL   1EEA
....................            goto START100; 
07858:  BRA    7728
....................        }    
0785A:  BRA    785E
....................        else  
....................            goto START100; 
0785C:  BRA    7728
....................    } 
....................     goto START100; 
0785E:  BRA    7728
....................      
....................  //=====================================================       
....................  //=====================================================    
....................      
....................  //=====================================================       
....................  //=====================================================   
....................     PRESET_CONTROL: 
....................     glcd_fillScreen(0); 
07860:  MOVLB  B
07862:  CLRF   x26
07864:  MOVLB  0
07866:  CALL   1BC8
....................     glcd_control(); 
0786A:  GOTO   40E8
....................     glcd_text57(18,4,T_CONTROL, 1, 1); 
0786E:  MOVLW  12
07870:  MOVLB  B
07872:  MOVWF  x25
07874:  MOVLW  04
07876:  MOVWF  x26
07878:  MOVLW  05
0787A:  MOVWF  x28
0787C:  MOVLW  20
0787E:  MOVWF  x27
07880:  MOVLW  01
07882:  MOVWF  x29
07884:  MOVWF  x2A
07886:  MOVLB  0
07888:  CALL   229A
....................     glcd_rect(9,15,61,46,NO,ON); 
0788C:  MOVLW  09
0788E:  MOVLB  B
07890:  MOVWF  x25
07892:  MOVLW  0F
07894:  MOVWF  x26
07896:  MOVLW  3D
07898:  MOVWF  x27
0789A:  MOVLW  2E
0789C:  MOVWF  x28
0789E:  CLRF   x29
078A0:  MOVLW  01
078A2:  MOVWF  x2A
078A4:  MOVLB  0
078A6:  CALL   21D8
....................     glcd_rect(9,48,117,59,YES,ON); 
078AA:  MOVLW  09
078AC:  MOVLB  B
078AE:  MOVWF  x25
078B0:  MOVLW  30
078B2:  MOVWF  x26
078B4:  MOVLW  75
078B6:  MOVWF  x27
078B8:  MOVLW  3B
078BA:  MOVWF  x28
078BC:  MOVLW  01
078BE:  MOVWF  x29
078C0:  MOVWF  x2A
078C2:  MOVLB  0
078C4:  CALL   21D8
....................     glcd_text57(30,50,SELECCIONAR, 1, 0); 
078C8:  MOVLW  1E
078CA:  MOVLB  B
078CC:  MOVWF  x25
078CE:  MOVLW  32
078D0:  MOVWF  x26
078D2:  MOVLW  05
078D4:  MOVWF  x28
078D6:  MOVWF  x27
078D8:  MOVLW  01
078DA:  MOVWF  x29
078DC:  CLRF   x2A
078DE:  MOVLB  0
078E0:  CALL   229A
....................     //glcd_rect(64,15,117,46,NO,ON); 
....................     SET_CONTROL: 
....................     s = read_adc(); 
078E4:  BSF    FC2.1
078E6:  BTFSC  FC2.1
078E8:  BRA    78E6
078EA:  MOVFF  FC4,26
....................     delay_ms(200); 
078EE:  MOVLW  C8
078F0:  MOVLB  B
078F2:  MOVWF  x2D
078F4:  MOVLB  0
078F6:  CALL   1EEA
....................      
....................     while(s>240){ 
078FA:  MOVF   26,W
078FC:  SUBLW  F0
078FE:  BC    7918
....................         s = read_adc(); 
07900:  BSF    FC2.1
07902:  BTFSC  FC2.1
07904:  BRA    7902
07906:  MOVFF  FC4,26
....................         delay_ms(200); 
0790A:  MOVLW  C8
0790C:  MOVLB  B
0790E:  MOVWF  x2D
07910:  MOVLB  0
07912:  CALL   1EEA
07916:  BRA    78FA
....................     } 
....................      
....................      if(s > 195 && s < 225) { 
07918:  MOVF   26,W
0791A:  SUBLW  C3
0791C:  BC    792A
0791E:  MOVF   26,W
07920:  SUBLW  E0
07922:  BNC   792A
....................          c = 0; 
07924:  CLRF   16
....................          goto SISTEMA2; 
07926:  BRA    7A1E
....................      } 
07928:  BRA    7A1C
....................      else if (s > 165 &&  s < 185){ 
0792A:  MOVF   26,W
0792C:  SUBLW  A5
0792E:  BTFSC  FD8.0
07930:  BRA    7A1C
07932:  MOVF   26,W
07934:  SUBLW  B8
07936:  BTFSS  FD8.0
07938:  BRA    7A1C
....................        glcd_rect(9,15,61,46,NO,OFF); 
0793A:  MOVLW  09
0793C:  MOVLB  B
0793E:  MOVWF  x25
07940:  MOVLW  0F
07942:  MOVWF  x26
07944:  MOVLW  3D
07946:  MOVWF  x27
07948:  MOVLW  2E
0794A:  MOVWF  x28
0794C:  CLRF   x29
0794E:  CLRF   x2A
07950:  MOVLB  0
07952:  CALL   21D8
....................        glcd_rect(64,15,117,46,NO,ON); 
07956:  MOVLW  40
07958:  MOVLB  B
0795A:  MOVWF  x25
0795C:  MOVLW  0F
0795E:  MOVWF  x26
07960:  MOVLW  75
07962:  MOVWF  x27
07964:  MOVLW  2E
07966:  MOVWF  x28
07968:  CLRF   x29
0796A:  MOVLW  01
0796C:  MOVWF  x2A
0796E:  MOVLB  0
07970:  CALL   21D8
....................        delay_ms(100); 
07974:  MOVLW  64
07976:  MOVLB  B
07978:  MOVWF  x2D
0797A:  MOVLB  0
0797C:  CALL   1EEA
....................        s = read_adc(); 
07980:  BSF    FC2.1
07982:  BTFSC  FC2.1
07984:  BRA    7982
07986:  MOVFF  FC4,26
....................        delay_us(40); 
0798A:  MOVLW  1A
0798C:  MOVWF  00
0798E:  DECFSZ 00,F
07990:  BRA    798E
07992:  NOP   
....................        while(s > 240){ 
07994:  MOVF   26,W
07996:  SUBLW  F0
07998:  BC    79B2
....................             s = read_adc(); 
0799A:  BSF    FC2.1
0799C:  BTFSC  FC2.1
0799E:  BRA    799C
079A0:  MOVFF  FC4,26
....................             delay_ms(50);//******************** 
079A4:  MOVLW  32
079A6:  MOVLB  B
079A8:  MOVWF  x2D
079AA:  MOVLB  0
079AC:  CALL   1EEA
079B0:  BRA    7994
....................             } 
....................        if(s > 195 && s < 225){ 
079B2:  MOVF   26,W
079B4:  SUBLW  C3
079B6:  BC    79C4
079B8:  MOVF   26,W
079BA:  SUBLW  E0
079BC:  BNC   79C4
....................            c = 1; 
079BE:  MOVLW  01
079C0:  MOVWF  16
....................            goto SISTEMA2; 
079C2:  BRA    7A1E
....................        } 
....................             
....................        if(s > 115 && s < 135){ 
079C4:  MOVF   26,W
079C6:  SUBLW  73
079C8:  BC    7A1A
079CA:  MOVF   26,W
079CC:  SUBLW  86
079CE:  BNC   7A1A
....................            glcd_rect(9,15,61,46,NO,ON); 
079D0:  MOVLW  09
079D2:  MOVLB  B
079D4:  MOVWF  x25
079D6:  MOVLW  0F
079D8:  MOVWF  x26
079DA:  MOVLW  3D
079DC:  MOVWF  x27
079DE:  MOVLW  2E
079E0:  MOVWF  x28
079E2:  CLRF   x29
079E4:  MOVLW  01
079E6:  MOVWF  x2A
079E8:  MOVLB  0
079EA:  CALL   21D8
....................            glcd_rect(64,15,117,46,NO,OFF); 
079EE:  MOVLW  40
079F0:  MOVLB  B
079F2:  MOVWF  x25
079F4:  MOVLW  0F
079F6:  MOVWF  x26
079F8:  MOVLW  75
079FA:  MOVWF  x27
079FC:  MOVLW  2E
079FE:  MOVWF  x28
07A00:  CLRF   x29
07A02:  CLRF   x2A
07A04:  MOVLB  0
07A06:  CALL   21D8
....................            delay_ms(50); 
07A0A:  MOVLW  32
07A0C:  MOVLB  B
07A0E:  MOVWF  x2D
07A10:  MOVLB  0
07A12:  CALL   1EEA
....................            goto SET_CONTROL; 
07A16:  BRA    78E4
....................        }    
07A18:  BRA    7A1C
....................        else  
....................            goto SET_CONTROL; 
07A1A:  BRA    78E4
....................    } 
....................     goto SET_CONTROL; 
07A1C:  BRA    78E4
....................      
.................... //=====================================================       
.................... //=====================================================    
....................    SISTEMA2: 
....................    glcd_fillScreen(0); 
07A1E:  MOVLB  B
07A20:  CLRF   x26
07A22:  MOVLB  0
07A24:  CALL   1BC8
....................    glcd_rect(0,0,127,63,NO,ON); 
07A28:  MOVLB  B
07A2A:  CLRF   x25
07A2C:  CLRF   x26
07A2E:  MOVLW  7F
07A30:  MOVWF  x27
07A32:  MOVLW  3F
07A34:  MOVWF  x28
07A36:  CLRF   x29
07A38:  MOVLW  01
07A3A:  MOVWF  x2A
07A3C:  MOVLB  0
07A3E:  CALL   21D8
....................    glcd_rect(1,1,126,62,NO,ON); 
07A42:  MOVLW  01
07A44:  MOVLB  B
07A46:  MOVWF  x25
07A48:  MOVWF  x26
07A4A:  MOVLW  7E
07A4C:  MOVWF  x27
07A4E:  MOVLW  3E
07A50:  MOVWF  x28
07A52:  CLRF   x29
07A54:  MOVLW  01
07A56:  MOVWF  x2A
07A58:  MOVLB  0
07A5A:  CALL   21D8
....................    glcd_text57(9,5,LIMITE, 1, 1); 
07A5E:  MOVLW  09
07A60:  MOVLB  B
07A62:  MOVWF  x25
07A64:  MOVLW  05
07A66:  MOVWF  x26
07A68:  MOVWF  x28
07A6A:  MOVLW  65
07A6C:  MOVWF  x27
07A6E:  MOVLW  01
07A70:  MOVWF  x29
07A72:  MOVWF  x2A
07A74:  MOVLB  0
07A76:  CALL   229A
....................    glcd_rect(9,48,117,59,YES,ON); 
07A7A:  MOVLW  09
07A7C:  MOVLB  B
07A7E:  MOVWF  x25
07A80:  MOVLW  30
07A82:  MOVWF  x26
07A84:  MOVLW  75
07A86:  MOVWF  x27
07A88:  MOVLW  3B
07A8A:  MOVWF  x28
07A8C:  MOVLW  01
07A8E:  MOVWF  x29
07A90:  MOVWF  x2A
07A92:  MOVLB  0
07A94:  CALL   21D8
....................    glcd_text57(30,50,SELECCIONAR, 1, 0); 
07A98:  MOVLW  1E
07A9A:  MOVLB  B
07A9C:  MOVWF  x25
07A9E:  MOVLW  32
07AA0:  MOVWF  x26
07AA2:  MOVLW  05
07AA4:  MOVWF  x28
07AA6:  MOVWF  x27
07AA8:  MOVLW  01
07AAA:  MOVWF  x29
07AAC:  CLRF   x2A
07AAE:  MOVLB  0
07AB0:  CALL   229A
....................    L_ahorro = 500; 
07AB4:  MOVLW  01
07AB6:  MOVWF  39
07AB8:  MOVLW  F4
07ABA:  MOVWF  38
....................    sprintf(Pgeneral,"%luL", L_ahorro); 
07ABC:  MOVLW  05
07ABE:  MOVLB  B
07AC0:  MOVWF  x24
07AC2:  MOVLW  A0
07AC4:  MOVWF  x23
07AC6:  MOVLW  10
07AC8:  MOVWF  FE9
07ACA:  MOVFF  39,B26
07ACE:  MOVFF  38,B25
07AD2:  MOVLB  0
07AD4:  CALL   2C16
07AD8:  MOVLW  4C
07ADA:  MOVLB  B
07ADC:  MOVWF  x32
07ADE:  MOVLB  0
07AE0:  CALL   2630
....................    glcd_text57(40,20,Pgeneral 2, 1); 
07AE4:  MOVLW  28
07AE6:  MOVLB  B
07AE8:  MOVWF  x25
07AEA:  MOVLW  14
07AEC:  MOVWF  x26
07AEE:  MOVLW  05
07AF0:  MOVWF  x28
07AF2:  MOVLW  A0
07AF4:  MOVWF  x27
07AF6:  MOVLW  02
07AF8:  MOVWF  x29
07AFA:  MOVLW  01
07AFC:  MOVWF  x2A
07AFE:  MOVLB  0
07B00:  CALL   229A
....................    Loop3: 
....................    s = read_adc(); 
07B04:  BSF    FC2.1
07B06:  BTFSC  FC2.1
07B08:  BRA    7B06
07B0A:  MOVFF  FC4,26
....................    delay_ms(200); 
07B0E:  MOVLW  C8
07B10:  MOVLB  B
07B12:  MOVWF  x2D
07B14:  MOVLB  0
07B16:  CALL   1EEA
....................    while(s>240){ 
07B1A:  MOVF   26,W
07B1C:  SUBLW  F0
07B1E:  BC    7B38
....................        s = read_adc(); 
07B20:  BSF    FC2.1
07B22:  BTFSC  FC2.1
07B24:  BRA    7B22
07B26:  MOVFF  FC4,26
....................        delay_ms(200); 
07B2A:  MOVLW  C8
07B2C:  MOVLB  B
07B2E:  MOVWF  x2D
07B30:  MOVLB  0
07B32:  CALL   1EEA
07B36:  BRA    7B1A
....................    } 
....................     glcd_rect(40,20,110,39,YES,OFF); 
07B38:  MOVLW  28
07B3A:  MOVLB  B
07B3C:  MOVWF  x25
07B3E:  MOVLW  14
07B40:  MOVWF  x26
07B42:  MOVLW  6E
07B44:  MOVWF  x27
07B46:  MOVLW  27
07B48:  MOVWF  x28
07B4A:  MOVLW  01
07B4C:  MOVWF  x29
07B4E:  CLRF   x2A
07B50:  MOVLB  0
07B52:  CALL   21D8
....................     if(s > 195 && s < 225) { 
07B56:  MOVF   26,W
07B58:  SUBLW  C3
07B5A:  BC    7B64
07B5C:  MOVF   26,W
07B5E:  SUBLW  E0
07B60:  BNC   7B64
....................          goto SISTEMA3; 
07B62:  BRA    7C1E
....................      } 
....................     
....................     if (s > 10 && s < 40){ 
07B64:  MOVF   26,W
07B66:  SUBLW  0A
07B68:  BC    7BC0
07B6A:  MOVF   26,W
07B6C:  SUBLW  27
07B6E:  BNC   7BC0
....................         L_ahorro = L_ahorro+50; 
07B70:  MOVLW  32
07B72:  ADDWF  38,F
07B74:  MOVLW  00
07B76:  ADDWFC 39,F
....................         sprintf(Pgeneral,"%luL", L_ahorro); 
07B78:  MOVLW  05
07B7A:  MOVLB  B
07B7C:  MOVWF  x24
07B7E:  MOVLW  A0
07B80:  MOVWF  x23
07B82:  MOVLW  10
07B84:  MOVWF  FE9
07B86:  MOVFF  39,B26
07B8A:  MOVFF  38,B25
07B8E:  MOVLB  0
07B90:  CALL   2C16
07B94:  MOVLW  4C
07B96:  MOVLB  B
07B98:  MOVWF  x32
07B9A:  MOVLB  0
07B9C:  CALL   2630
....................         glcd_text57(40,20,Pgeneral 2, 1); 
07BA0:  MOVLW  28
07BA2:  MOVLB  B
07BA4:  MOVWF  x25
07BA6:  MOVLW  14
07BA8:  MOVWF  x26
07BAA:  MOVLW  05
07BAC:  MOVWF  x28
07BAE:  MOVLW  A0
07BB0:  MOVWF  x27
07BB2:  MOVLW  02
07BB4:  MOVWF  x29
07BB6:  MOVLW  01
07BB8:  MOVWF  x2A
07BBA:  MOVLB  0
07BBC:  CALL   229A
....................     } 
....................         
....................     if (s > 60 && s < 90){ 
07BC0:  MOVF   26,W
07BC2:  SUBLW  3C
07BC4:  BC    7C1C
07BC6:  MOVF   26,W
07BC8:  SUBLW  59
07BCA:  BNC   7C1C
....................         L_ahorro = L_ahorro-50; 
07BCC:  MOVLW  32
07BCE:  SUBWF  38,F
07BD0:  MOVLW  00
07BD2:  SUBWFB 39,F
....................         sprintf(Pgeneral,"%luL", L_ahorro); 
07BD4:  MOVLW  05
07BD6:  MOVLB  B
07BD8:  MOVWF  x24
07BDA:  MOVLW  A0
07BDC:  MOVWF  x23
07BDE:  MOVLW  10
07BE0:  MOVWF  FE9
07BE2:  MOVFF  39,B26
07BE6:  MOVFF  38,B25
07BEA:  MOVLB  0
07BEC:  CALL   2C16
07BF0:  MOVLW  4C
07BF2:  MOVLB  B
07BF4:  MOVWF  x32
07BF6:  MOVLB  0
07BF8:  CALL   2630
....................         glcd_text57(40,20,Pgeneral 2, 1); 
07BFC:  MOVLW  28
07BFE:  MOVLB  B
07C00:  MOVWF  x25
07C02:  MOVLW  14
07C04:  MOVWF  x26
07C06:  MOVLW  05
07C08:  MOVWF  x28
07C0A:  MOVLW  A0
07C0C:  MOVWF  x27
07C0E:  MOVLW  02
07C10:  MOVWF  x29
07C12:  MOVLW  01
07C14:  MOVWF  x2A
07C16:  MOVLB  0
07C18:  CALL   229A
....................     } 
....................     goto Loop3;     
07C1C:  BRA    7B04
....................    
....................      
....................      
.................... //=====================================================   
....................    SISTEMA3: 
....................     glcd_fillScreen(0); 
07C1E:  MOVLB  B
07C20:  CLRF   x26
07C22:  MOVLB  0
07C24:  CALL   1BC8
....................     glcd_rect(0,0,127,63,NO,ON); 
07C28:  MOVLB  B
07C2A:  CLRF   x25
07C2C:  CLRF   x26
07C2E:  MOVLW  7F
07C30:  MOVWF  x27
07C32:  MOVLW  3F
07C34:  MOVWF  x28
07C36:  CLRF   x29
07C38:  MOVLW  01
07C3A:  MOVWF  x2A
07C3C:  MOVLB  0
07C3E:  CALL   21D8
....................     glcd_rect(1,1,126,62,NO,ON); 
07C42:  MOVLW  01
07C44:  MOVLB  B
07C46:  MOVWF  x25
07C48:  MOVWF  x26
07C4A:  MOVLW  7E
07C4C:  MOVWF  x27
07C4E:  MOVLW  3E
07C50:  MOVWF  x28
07C52:  CLRF   x29
07C54:  MOVLW  01
07C56:  MOVWF  x2A
07C58:  MOVLB  0
07C5A:  CALL   21D8
....................     glcd_text57(5,5,MENSAJE1, 1, 1); 
07C5E:  MOVLW  05
07C60:  MOVLB  B
07C62:  MOVWF  x25
07C64:  MOVWF  x26
07C66:  CLRF   x28
07C68:  MOVLW  81
07C6A:  MOVWF  x27
07C6C:  MOVLW  01
07C6E:  MOVWF  x29
07C70:  MOVWF  x2A
07C72:  MOVLB  0
07C74:  CALL   229A
....................     glcd_text57(20,23,READY, 1, 1); 
07C78:  MOVLW  14
07C7A:  MOVLB  B
07C7C:  MOVWF  x25
07C7E:  MOVLW  17
07C80:  MOVWF  x26
07C82:  MOVLW  04
07C84:  MOVWF  x28
07C86:  MOVLW  40
07C88:  MOVWF  x27
07C8A:  MOVLW  01
07C8C:  MOVWF  x29
07C8E:  MOVWF  x2A
07C90:  MOVLB  0
07C92:  CALL   229A
....................      
....................     glcd_rect(8,40,119,58,YES,ON); 
07C96:  MOVLW  08
07C98:  MOVLB  B
07C9A:  MOVWF  x25
07C9C:  MOVLW  28
07C9E:  MOVWF  x26
07CA0:  MOVLW  77
07CA2:  MOVWF  x27
07CA4:  MOVLW  3A
07CA6:  MOVWF  x28
07CA8:  MOVLW  01
07CAA:  MOVWF  x29
07CAC:  MOVWF  x2A
07CAE:  MOVLB  0
07CB0:  CALL   21D8
....................     glcd_rect(9,41,118,57,NO,OFF); 
07CB4:  MOVLW  09
07CB6:  MOVLB  B
07CB8:  MOVWF  x25
07CBA:  MOVLW  29
07CBC:  MOVWF  x26
07CBE:  MOVLW  76
07CC0:  MOVWF  x27
07CC2:  MOVLW  39
07CC4:  MOVWF  x28
07CC6:  CLRF   x29
07CC8:  CLRF   x2A
07CCA:  MOVLB  0
07CCC:  CALL   21D8
....................     glcd_text57(24,46,COMENZARS, 1, 0); 
07CD0:  MOVLW  18
07CD2:  MOVLB  B
07CD4:  MOVWF  x25
07CD6:  MOVLW  2E
07CD8:  MOVWF  x26
07CDA:  MOVLW  04
07CDC:  MOVWF  x28
07CDE:  MOVLW  65
07CE0:  MOVWF  x27
07CE2:  MOVLW  01
07CE4:  MOVWF  x29
07CE6:  CLRF   x2A
07CE8:  MOVLB  0
07CEA:  CALL   229A
....................      
....................     START13: 
....................     delay_ms(200); 
07CEE:  MOVLW  C8
07CF0:  MOVLB  B
07CF2:  MOVWF  x2D
07CF4:  MOVLB  0
07CF6:  CALL   1EEA
....................     s = read_adc(); 
07CFA:  BSF    FC2.1
07CFC:  BTFSC  FC2.1
07CFE:  BRA    7CFC
07D00:  MOVFF  FC4,26
....................     delay_us(40); 
07D04:  MOVLW  1A
07D06:  MOVWF  00
07D08:  DECFSZ 00,F
07D0A:  BRA    7D08
07D0C:  NOP   
....................     while(s > 240){ 
07D0E:  MOVF   26,W
07D10:  SUBLW  F0
07D12:  BC    7D38
....................      s = read_adc(); 
07D14:  BSF    FC2.1
07D16:  BTFSC  FC2.1
07D18:  BRA    7D16
07D1A:  MOVFF  FC4,26
....................      delay_ms(50); 
07D1E:  MOVLW  32
07D20:  MOVLB  B
07D22:  MOVWF  x2D
07D24:  MOVLB  0
07D26:  CALL   1EEA
....................      set_timer0(0); 
07D2A:  CLRF   FD7
07D2C:  CLRF   FD6
....................      set_timer1(0); 
07D2E:  CLRF   FCF
07D30:  CLRF   FCE
....................      set_timer3(0); 
07D32:  CLRF   FB3
07D34:  CLRF   FB2
07D36:  BRA    7D0E
....................     } 
....................     if(s > 195 && s < 225) 
07D38:  MOVF   26,W
07D3A:  SUBLW  C3
07D3C:  BC    7D48
07D3E:  MOVF   26,W
07D40:  SUBLW  E0
07D42:  BNC   7D48
....................         goto EMPEZAR; 
07D44:  BRA    7D4A
07D46:  BRA    7D4A
....................     else 
....................         goto START13; 
07D48:  BRA    7CEE
....................      
....................     EMPEZAR: 
.................... //    L_ahorro = 500; 
.................... //    set_timer0(0); 
.................... //    set_timer1(0); 
....................     glcd_fillScreen(0); 
07D4A:  MOVLB  B
07D4C:  CLRF   x26
07D4E:  MOVLB  0
07D50:  CALL   1BC8
....................     glcd_interfaz(); 
07D54:  CALL   4194
....................     while(TRUE){ 
....................     leerRTC(); 
07D58:  CALL   247E
.................... //    leernivel(); 
....................     delay_us(200); 
07D5C:  MOVLW  84
07D5E:  MOVWF  00
07D60:  DECFSZ 00,F
07D62:  BRA    7D60
07D64:  BRA    7D66
07D66:  NOP   
.................... //===============================    
....................     if( c == 0 || c == 1){ 
07D68:  MOVF   16,F
07D6A:  BZ    7D70
07D6C:  DECFSZ 16,W
07D6E:  BRA    7E22
....................        if(L_ahorro <= L_wasted){ 
07D70:  MOVF   39,W
07D72:  SUBWF  37,W
07D74:  BNC   7E1E
07D76:  BNZ   7D7E
07D78:  MOVF   38,W
07D7A:  SUBWF  36,W
07D7C:  BNC   7E1E
....................           glcd_fillScreen(0); 
07D7E:  MOVLB  B
07D80:  CLRF   x26
07D82:  MOVLB  0
07D84:  CALL   1BC8
....................           glcd_rect(0,0,127,63,NO,ON); 
07D88:  MOVLB  B
07D8A:  CLRF   x25
07D8C:  CLRF   x26
07D8E:  MOVLW  7F
07D90:  MOVWF  x27
07D92:  MOVLW  3F
07D94:  MOVWF  x28
07D96:  CLRF   x29
07D98:  MOVLW  01
07D9A:  MOVWF  x2A
07D9C:  MOVLB  0
07D9E:  CALL   21D8
....................           glcd_rect(1,1,126,62,NO,ON); 
07DA2:  MOVLW  01
07DA4:  MOVLB  B
07DA6:  MOVWF  x25
07DA8:  MOVWF  x26
07DAA:  MOVLW  7E
07DAC:  MOVWF  x27
07DAE:  MOVLW  3E
07DB0:  MOVWF  x28
07DB2:  CLRF   x29
07DB4:  MOVLW  01
07DB6:  MOVWF  x2A
07DB8:  MOVLB  0
07DBA:  CALL   21D8
....................           glcd_text57(15,30,LIMITE_ALC, 1, 1); 
07DBE:  MOVLW  0F
07DC0:  MOVLB  B
07DC2:  MOVWF  x25
07DC4:  MOVLW  1E
07DC6:  MOVWF  x26
07DC8:  MOVLW  05
07DCA:  MOVWF  x28
07DCC:  MOVLW  85
07DCE:  MOVWF  x27
07DD0:  MOVLW  01
07DD2:  MOVWF  x29
07DD4:  MOVWF  x2A
07DD6:  MOVLB  0
07DD8:  CALL   229A
....................           s = read_adc(); 
07DDC:  BSF    FC2.1
07DDE:  BTFSC  FC2.1
07DE0:  BRA    7DDE
07DE2:  MOVFF  FC4,26
....................           delay_ms(200); 
07DE6:  MOVLW  C8
07DE8:  MOVLB  B
07DEA:  MOVWF  x2D
07DEC:  MOVLB  0
07DEE:  CALL   1EEA
....................           while(s>240){ 
07DF2:  MOVF   26,W
07DF4:  SUBLW  F0
07DF6:  BC    7E10
....................           s = read_adc(); 
07DF8:  BSF    FC2.1
07DFA:  BTFSC  FC2.1
07DFC:  BRA    7DFA
07DFE:  MOVFF  FC4,26
....................           delay_ms(200); 
07E02:  MOVLW  C8
07E04:  MOVLB  B
07E06:  MOVWF  x2D
07E08:  MOVLB  0
07E0A:  CALL   1EEA
07E0E:  BRA    7DF2
....................           } 
....................           if(s < 240) 
07E10:  MOVF   26,W
07E12:  SUBLW  EF
07E14:  BNC   7E1E
....................               goto REBOOT; 
07E16:  MOVLB  B
07E18:  GOTO   51E0
07E1C:  MOVLB  0
....................       } 
....................         controlador(); 
07E1E:  GOTO   42E4
....................     }   
.................... //================================     
....................     sprintf(Pgeneral,"\%02d/\%02d/\%02d", dia,mes,yr); 
07E22:  MOVLW  05
07E24:  MOVLB  B
07E26:  MOVWF  x24
07E28:  MOVLW  A0
07E2A:  MOVWF  x23
07E2C:  MOVFF  22,B25
07E30:  MOVLW  01
07E32:  MOVWF  x26
07E34:  MOVLB  0
07E36:  CALL   2650
07E3A:  MOVLW  2F
07E3C:  MOVLB  B
07E3E:  MOVWF  x32
07E40:  MOVLB  0
07E42:  CALL   2630
07E46:  MOVFF  23,B25
07E4A:  MOVLW  01
07E4C:  MOVLB  B
07E4E:  MOVWF  x26
07E50:  MOVLB  0
07E52:  CALL   2650
07E56:  MOVLW  2F
07E58:  MOVLB  B
07E5A:  MOVWF  x32
07E5C:  MOVLB  0
07E5E:  CALL   2630
07E62:  MOVFF  25,B25
07E66:  MOVLW  01
07E68:  MOVLB  B
07E6A:  MOVWF  x26
07E6C:  MOVLB  0
07E6E:  CALL   2650
....................     glcd_text57(76,53,Pgeneral, 1, 1); 
07E72:  MOVLW  4C
07E74:  MOVLB  B
07E76:  MOVWF  x25
07E78:  MOVLW  35
07E7A:  MOVWF  x26
07E7C:  MOVLW  05
07E7E:  MOVWF  x28
07E80:  MOVLW  A0
07E82:  MOVWF  x27
07E84:  MOVLW  01
07E86:  MOVWF  x29
07E88:  MOVWF  x2A
07E8A:  MOVLB  0
07E8C:  CALL   229A
....................      
....................     if(oldnivel != nivel){ 
07E90:  MOVFF  5F,B28
07E94:  MOVFF  5E,B27
07E98:  MOVFF  5D,B26
07E9C:  MOVFF  5C,B25
07EA0:  MOVFF  5B,B2C
07EA4:  MOVFF  5A,B2B
07EA8:  MOVFF  59,B2A
07EAC:  MOVFF  58,B29
07EB0:  CALL   2B9C
07EB4:  BZ    7F42
....................     glcd_text57(15,53,Pgeneral5, 1, 0); 
07EB6:  MOVLW  0F
07EB8:  MOVLB  B
07EBA:  MOVWF  x25
07EBC:  MOVLW  35
07EBE:  MOVWF  x26
07EC0:  MOVLW  06
07EC2:  MOVWF  x28
07EC4:  MOVLW  B0
07EC6:  MOVWF  x27
07EC8:  MOVLW  01
07ECA:  MOVWF  x29
07ECC:  CLRF   x2A
07ECE:  MOVLB  0
07ED0:  CALL   229A
....................     sprintf(Pgeneral5,"%.1fCm", nivel); 
07ED4:  MOVLW  06
07ED6:  MOVLB  B
07ED8:  MOVWF  x24
07EDA:  MOVLW  B0
07EDC:  MOVWF  x23
07EDE:  MOVLW  89
07EE0:  MOVWF  FE9
07EE2:  MOVFF  5B,B28
07EE6:  MOVFF  5A,B27
07EEA:  MOVFF  59,B26
07EEE:  MOVFF  58,B25
07EF2:  MOVLW  01
07EF4:  MOVWF  x29
07EF6:  MOVLB  0
07EF8:  CALL   36AE
07EFC:  MOVLW  43
07EFE:  MOVLB  B
07F00:  MOVWF  x32
07F02:  MOVLB  0
07F04:  CALL   2630
07F08:  MOVLW  6D
07F0A:  MOVLB  B
07F0C:  MOVWF  x32
07F0E:  MOVLB  0
07F10:  CALL   2630
....................     glcd_text57(15,53,Pgeneral5, 1, 1); 
07F14:  MOVLW  0F
07F16:  MOVLB  B
07F18:  MOVWF  x25
07F1A:  MOVLW  35
07F1C:  MOVWF  x26
07F1E:  MOVLW  06
07F20:  MOVWF  x28
07F22:  MOVLW  B0
07F24:  MOVWF  x27
07F26:  MOVLW  01
07F28:  MOVWF  x29
07F2A:  MOVWF  x2A
07F2C:  MOVLB  0
07F2E:  CALL   229A
....................     oldnivel = nivel; 
07F32:  MOVFF  5B,5F
07F36:  MOVFF  5A,5E
07F3A:  MOVFF  59,5D
07F3E:  MOVFF  58,5C
....................     } 
....................      
.................... //    sprintf(Pgeneral,"\%02d:\%02d:\%02d", hr,min,sec); 
.................... //    glcd_text57(70,53,Pgeneral, 1, 1); 
.................... //    hrswitch++; 
.................... //    cyclechange = 1; 
....................  
.................... //    sprintf(Pgeneral,"\%02d:\%02d:\%02d", hr,min,sec); 
.................... //    glcd_text57(70,53,Pgeneral, 1, 0); 
.................... //    sprintf(Pgeneral,"\%02d/\%02d/\%02d", dia,mes,yr); 
.................... //    glcd_text57(70,53,Pgeneral, 1, 1); 
.................... //    dateswitch++; 
.................... //    cyclechange = 1; 
.................... //    
....................  
....................        
....................  //===================================================== 
....................   //  ESPACIO PARA LAS ESCUACIONES 
....................   //  MAGNITUD DE VARIABLE Y ACUMULACIN 
....................   //  EN LITROS 
....................   disable_interrupts(GLOBAL);  
07F42:  BCF    FF2.6
07F44:  BCF    FF2.7
07F46:  BTFSC  FF2.7
07F48:  BRA    7F44
....................   set_timer0(0); 
07F4A:  CLRF   FD7
07F4C:  CLRF   FD6
....................   set_timer1(0); 
07F4E:  CLRF   FCF
07F50:  CLRF   FCE
....................   delay_ms(500);//========================================= 
07F52:  MOVLW  02
07F54:  MOVLB  B
07F56:  MOVWF  x25
07F58:  MOVLW  FA
07F5A:  MOVWF  x2D
07F5C:  MOVLB  0
07F5E:  CALL   1EEA
07F62:  MOVLB  B
07F64:  DECFSZ x25,F
07F66:  BRA    7F58
....................  
....................   pulsos_ducha = get_timer0(); 
07F68:  MOVF   FD6,W
07F6A:  MOVWF  2C
07F6C:  MOVFF  FD7,2D
....................   pulsos_lavamanos = get_timer1(); 
07F70:  MOVF   FCE,W
07F72:  MOVWF  2E
07F74:  MOVFF  FCF,2F
.................... //  t0count = get_timer0(); 
.................... //  t1count = get_timer1(); 
....................   //========VARIABLES POR UNIDAD DE TIEMPO================== 
....................  
....................   //t0count = (pulsos_ducha*0.00225)*2; // litros por segundo 
....................   //t0count = t0count*60; // Litros por minuto 
....................   t0count=get_timer0(); 
07F78:  MOVF   FD6,W
07F7A:  MOVFF  FD7,03
07F7E:  MOVWF  x25
07F80:  MOVFF  FD7,B26
07F84:  MOVLB  0
07F86:  CALL   2B66
07F8A:  MOVFF  03,63
07F8E:  MOVFF  02,62
07F92:  MOVFF  01,61
07F96:  MOVFF  00,60
....................  
....................      if(oldt0count != t0count){ 
07F9A:  MOVFF  67,B28
07F9E:  MOVFF  66,B27
07FA2:  MOVFF  65,B26
07FA6:  MOVFF  64,B25
07FAA:  MOVFF  63,B2C
07FAE:  MOVFF  62,B2B
07FB2:  MOVFF  61,B2A
07FB6:  MOVFF  60,B29
07FBA:  CALL   2B9C
07FBE:  BZ    803A
....................         glcd_text57(20,25,Pgeneral2, 1, 0); 
07FC0:  MOVLW  14
07FC2:  MOVLB  B
07FC4:  MOVWF  x25
07FC6:  MOVLW  19
07FC8:  MOVWF  x26
07FCA:  MOVLW  06
07FCC:  MOVWF  x28
07FCE:  CLRF   x27
07FD0:  MOVLW  01
07FD2:  MOVWF  x29
07FD4:  CLRF   x2A
07FD6:  MOVLB  0
07FD8:  CALL   229A
....................         sprintf(Pgeneral2,"%.2fL",t0count); 
07FDC:  MOVLW  06
07FDE:  MOVLB  B
07FE0:  MOVWF  x24
07FE2:  CLRF   x23
07FE4:  MOVLW  89
07FE6:  MOVWF  FE9
07FE8:  MOVFF  63,B28
07FEC:  MOVFF  62,B27
07FF0:  MOVFF  61,B26
07FF4:  MOVFF  60,B25
07FF8:  MOVLW  02
07FFA:  MOVWF  x29
07FFC:  MOVLB  0
07FFE:  CALL   36AE
08002:  MOVLW  4C
08004:  MOVLB  B
08006:  MOVWF  x32
08008:  MOVLB  0
0800A:  CALL   2630
....................         glcd_text57(20,25,Pgeneral2, 1, 1); 
0800E:  MOVLW  14
08010:  MOVLB  B
08012:  MOVWF  x25
08014:  MOVLW  19
08016:  MOVWF  x26
08018:  MOVLW  06
0801A:  MOVWF  x28
0801C:  CLRF   x27
0801E:  MOVLW  01
08020:  MOVWF  x29
08022:  MOVWF  x2A
08024:  MOVLB  0
08026:  CALL   229A
....................         oldt0count = t0count; 
0802A:  MOVFF  63,67
0802E:  MOVFF  62,66
08032:  MOVFF  61,65
08036:  MOVFF  60,64
....................       } 
.................... // 
.................... //      if(oldt1count != t1count){ 
.................... //        glcd_text57(20,25,Pgeneral2, 1, 0); 
.................... //        sprintf(Pgeneral2,"%.2f",t1count); 
.................... //        glcd_text57(20,25,Pgeneral2, 1, 1); 
.................... //        oldt1count = t1count; 
.................... //      } 
....................   litros_ducha = litros_ducha + t0count; 
0803A:  BCF    FD8.1
0803C:  MOVFF  4B,B28
08040:  MOVFF  4A,B27
08044:  MOVFF  49,B26
08048:  MOVFF  48,B25
0804C:  MOVFF  63,B2C
08050:  MOVFF  62,B2B
08054:  MOVFF  61,B2A
08058:  MOVFF  60,B29
0805C:  CALL   3268
08060:  MOVFF  03,4B
08064:  MOVFF  02,4A
08068:  MOVFF  01,49
0806C:  MOVFF  00,48
....................   sum_ducha = t0count + sum_ducha ; 
08070:  BCF    FD8.1
08072:  MOVFF  63,B28
08076:  MOVFF  62,B27
0807A:  MOVFF  61,B26
0807E:  MOVFF  60,B25
08082:  MOVFF  7F,B2C
08086:  MOVFF  7E,B2B
0808A:  MOVFF  7D,B2A
0808E:  MOVFF  7C,B29
08092:  CALL   3268
08096:  MOVFF  03,7F
0809A:  MOVFF  02,7E
0809E:  MOVFF  01,7D
080A2:  MOVFF  00,7C
....................   set_timer0(0); 
080A6:  CLRF   FD7
080A8:  CLRF   FD6
.................... //  ===================================================== 
....................     t1count = (pulsos_lavamanos*0.00225)*2; // litros por segundo 
080AA:  MOVFF  2F,B26
080AE:  MOVFF  2E,B25
080B2:  CALL   2B66
080B6:  MOVFF  03,B35
080BA:  MOVFF  02,B34
080BE:  MOVFF  01,B33
080C2:  MOVFF  00,B32
080C6:  MOVLW  BC
080C8:  MOVLB  B
080CA:  MOVWF  x39
080CC:  MOVLW  74
080CE:  MOVWF  x38
080D0:  MOVLW  13
080D2:  MOVWF  x37
080D4:  MOVLW  76
080D6:  MOVWF  x36
080D8:  MOVLB  0
080DA:  CALL   34E0
080DE:  MOVFF  03,B28
080E2:  MOVFF  02,B27
080E6:  MOVFF  01,B26
080EA:  MOVFF  00,B25
080EE:  MOVFF  03,B35
080F2:  MOVFF  02,B34
080F6:  MOVFF  01,B33
080FA:  MOVFF  00,B32
080FE:  MOVLB  B
08100:  CLRF   x39
08102:  CLRF   x38
08104:  CLRF   x37
08106:  MOVLW  80
08108:  MOVWF  x36
0810A:  MOVLB  0
0810C:  CALL   34E0
08110:  MOVFF  03,6B
08114:  MOVFF  02,6A
08118:  MOVFF  01,69
0811C:  MOVFF  00,68
....................     t1count = t1count*60; // Litros por minuto 
08120:  MOVFF  6B,B35
08124:  MOVFF  6A,B34
08128:  MOVFF  69,B33
0812C:  MOVFF  68,B32
08130:  MOVLB  B
08132:  CLRF   x39
08134:  CLRF   x38
08136:  MOVLW  70
08138:  MOVWF  x37
0813A:  MOVLW  84
0813C:  MOVWF  x36
0813E:  MOVLB  0
08140:  CALL   34E0
08144:  MOVFF  03,6B
08148:  MOVFF  02,6A
0814C:  MOVFF  01,69
08150:  MOVFF  00,68
....................  
....................         if(oldt1count != t1count){ 
08154:  MOVFF  6F,B28
08158:  MOVFF  6E,B27
0815C:  MOVFF  6D,B26
08160:  MOVFF  6C,B25
08164:  MOVFF  6B,B2C
08168:  MOVFF  6A,B2B
0816C:  MOVFF  69,B2A
08170:  MOVFF  68,B29
08174:  CALL   2B9C
08178:  BZ    81FA
....................         glcd_text57(20,39,Pgeneral3, 1, 0); 
0817A:  MOVLW  14
0817C:  MOVLB  B
0817E:  MOVWF  x25
08180:  MOVLW  27
08182:  MOVWF  x26
08184:  MOVLW  06
08186:  MOVWF  x28
08188:  MOVLW  40
0818A:  MOVWF  x27
0818C:  MOVLW  01
0818E:  MOVWF  x29
08190:  CLRF   x2A
08192:  MOVLB  0
08194:  CALL   229A
....................         sprintf(Pgeneral3,"%.2fL",t1count); 
08198:  MOVLW  06
0819A:  MOVLB  B
0819C:  MOVWF  x24
0819E:  MOVLW  40
081A0:  MOVWF  x23
081A2:  MOVLW  89
081A4:  MOVWF  FE9
081A6:  MOVFF  6B,B28
081AA:  MOVFF  6A,B27
081AE:  MOVFF  69,B26
081B2:  MOVFF  68,B25
081B6:  MOVLW  02
081B8:  MOVWF  x29
081BA:  MOVLB  0
081BC:  CALL   36AE
081C0:  MOVLW  4C
081C2:  MOVLB  B
081C4:  MOVWF  x32
081C6:  MOVLB  0
081C8:  CALL   2630
....................         glcd_text57(20,39,Pgeneral3, 1, 1); 
081CC:  MOVLW  14
081CE:  MOVLB  B
081D0:  MOVWF  x25
081D2:  MOVLW  27
081D4:  MOVWF  x26
081D6:  MOVLW  06
081D8:  MOVWF  x28
081DA:  MOVLW  40
081DC:  MOVWF  x27
081DE:  MOVLW  01
081E0:  MOVWF  x29
081E2:  MOVWF  x2A
081E4:  MOVLB  0
081E6:  CALL   229A
....................         oldt1count = t1count; 
081EA:  MOVFF  6B,6F
081EE:  MOVFF  6A,6E
081F2:  MOVFF  69,6D
081F6:  MOVFF  68,6C
....................       } 
....................     litros_lavamanos = litros_lavamanos + t1count; 
081FA:  BCF    FD8.1
081FC:  MOVFF  4F,B28
08200:  MOVFF  4E,B27
08204:  MOVFF  4D,B26
08208:  MOVFF  4C,B25
0820C:  MOVFF  6B,B2C
08210:  MOVFF  6A,B2B
08214:  MOVFF  69,B2A
08218:  MOVFF  68,B29
0821C:  CALL   3268
08220:  MOVFF  03,4F
08224:  MOVFF  02,4E
08228:  MOVFF  01,4D
0822C:  MOVFF  00,4C
....................     sum_lav = t1count + sum_lav; 
08230:  BCF    FD8.1
08232:  MOVFF  6B,B28
08236:  MOVFF  6A,B27
0823A:  MOVFF  69,B26
0823E:  MOVFF  68,B25
08242:  MOVFF  7B,B2C
08246:  MOVFF  7A,B2B
0824A:  MOVFF  79,B2A
0824E:  MOVFF  78,B29
08252:  CALL   3268
08256:  MOVFF  03,7B
0825A:  MOVFF  02,7A
0825E:  MOVFF  01,79
08262:  MOVFF  00,78
....................     set_timer1(0); 
08266:  CLRF   FCF
08268:  CLRF   FCE
....................   //========CONSUMO EN LITROS Y SUMATORIA=================== 
....................   //====================================================== 
....................  
....................      totalwater= sum_lav + sum_ducha; 
0826A:  BCF    FD8.1
0826C:  MOVFF  7B,B28
08270:  MOVFF  7A,B27
08274:  MOVFF  79,B26
08278:  MOVFF  78,B25
0827C:  MOVFF  7F,B2C
08280:  MOVFF  7E,B2B
08284:  MOVFF  7D,B2A
08288:  MOVFF  7C,B29
0828C:  CALL   3268
08290:  MOVFF  03,73
08294:  MOVFF  02,72
08298:  MOVFF  01,71
0829C:  MOVFF  00,70
....................      L_wasted = totalwater; 
082A0:  MOVFF  73,B2A
082A4:  MOVFF  72,B29
082A8:  MOVFF  71,B28
082AC:  MOVFF  70,B27
082B0:  CALL   4284
082B4:  MOVFF  02,37
082B8:  MOVFF  01,36
....................        
....................      if(oldtotalwater != totalwater){ 
082BC:  MOVFF  77,B28
082C0:  MOVFF  76,B27
082C4:  MOVFF  75,B26
082C8:  MOVFF  74,B25
082CC:  MOVFF  73,B2C
082D0:  MOVFF  72,B2B
082D4:  MOVFF  71,B2A
082D8:  MOVFF  70,B29
082DC:  CALL   2B9C
082E0:  BZ    8362
....................         glcd_text57(76,25,Pgeneral4, 1, 0); 
082E2:  MOVLW  4C
082E4:  MOVLB  B
082E6:  MOVWF  x25
082E8:  MOVLW  19
082EA:  MOVWF  x26
082EC:  MOVLW  06
082EE:  MOVWF  x28
082F0:  MOVLW  80
082F2:  MOVWF  x27
082F4:  MOVLW  01
082F6:  MOVWF  x29
082F8:  CLRF   x2A
082FA:  MOVLB  0
082FC:  CALL   229A
....................         sprintf(Pgeneral4,"%.2fL",totalwater); 
08300:  MOVLW  06
08302:  MOVLB  B
08304:  MOVWF  x24
08306:  MOVLW  80
08308:  MOVWF  x23
0830A:  MOVLW  89
0830C:  MOVWF  FE9
0830E:  MOVFF  73,B28
08312:  MOVFF  72,B27
08316:  MOVFF  71,B26
0831A:  MOVFF  70,B25
0831E:  MOVLW  02
08320:  MOVWF  x29
08322:  MOVLB  0
08324:  CALL   36AE
08328:  MOVLW  4C
0832A:  MOVLB  B
0832C:  MOVWF  x32
0832E:  MOVLB  0
08330:  CALL   2630
....................         glcd_text57(76,25,Pgeneral4, 1, 1); 
08334:  MOVLW  4C
08336:  MOVLB  B
08338:  MOVWF  x25
0833A:  MOVLW  19
0833C:  MOVWF  x26
0833E:  MOVLW  06
08340:  MOVWF  x28
08342:  MOVLW  80
08344:  MOVWF  x27
08346:  MOVLW  01
08348:  MOVWF  x29
0834A:  MOVWF  x2A
0834C:  MOVLB  0
0834E:  CALL   229A
....................         oldtotalwater = totalwater; 
08352:  MOVFF  73,77
08356:  MOVFF  72,76
0835A:  MOVFF  71,75
0835E:  MOVFF  70,74
....................       }  
....................       
....................       enable_interrupts(GLOBAL);  
08362:  MOVLW  C0
08364:  IORWF  FF2,F
....................        
....................       if(lavamanos == 1){ 
08366:  BTFSS  27.1
08368:  BRA    838A
....................           glcd_circle(115,42,3,1,1); 
0836A:  MOVLW  73
0836C:  MOVLB  B
0836E:  MOVWF  x25
08370:  MOVLW  2A
08372:  MOVWF  x26
08374:  MOVLW  03
08376:  MOVWF  x27
08378:  MOVLW  01
0837A:  MOVWF  x28
0837C:  MOVWF  x29
0837E:  MOVLB  0
08380:  CALL   4612
....................           output_high(PIN_C1); 
08384:  BCF    F94.1
08386:  BSF    F8B.1
....................           lavamanos = 0; 
08388:  BCF    27.1
....................       } 
....................       if (input_state(PIN_B0) == 0){ 
0838A:  BTFSC  F81.0
0838C:  BRA    83AC
....................           glcd_circle(115,42,3,1,0); 
0838E:  MOVLW  73
08390:  MOVLB  B
08392:  MOVWF  x25
08394:  MOVLW  2A
08396:  MOVWF  x26
08398:  MOVLW  03
0839A:  MOVWF  x27
0839C:  MOVLW  01
0839E:  MOVWF  x28
083A0:  CLRF   x29
083A2:  MOVLB  0
083A4:  CALL   4612
....................           output_low(PIN_C1); 
083A8:  BCF    F94.1
083AA:  BCF    F8B.1
....................       } 
.................... //      if (input_state(PIN_A3) == 0 && input_state(PIN_B1) == 0){ 
.................... //          leernivel(); 
.................... //          if(nivel > 3) 
.................... //              output_high(PIN_C2); 
.................... //      } 
....................        
....................       if(tanquelleno == 1){ 
083AC:  BTFSS  27.2
083AE:  BRA    83B6
....................           tanquelleno = 0; 
083B0:  BCF    27.2
....................           output_low(PIN_C2); 
083B2:  BCF    F94.2
083B4:  BCF    F8B.2
....................       } 
....................        
....................  
....................       ds1307_get_time(hr,am_pm,min,sec); 
....................     if ((sec == 59 || sec==0 ||sec == 1) && min==0  && (hr==2 || hr==4 || hr==6 || hr==8 || hr==10 || hr ==12)){ 
*
08474:  MOVF   20,W
08476:  SUBLW  3B
08478:  BZ    8482
0847A:  MOVF   20,F
0847C:  BZ    8482
0847E:  DECFSZ 20,W
08480:  BRA    855C
08482:  MOVF   1F,F
08484:  BNZ   855C
08486:  MOVF   1E,W
08488:  SUBLW  02
0848A:  BZ    84AA
0848C:  MOVF   1E,W
0848E:  SUBLW  04
08490:  BZ    84AA
08492:  MOVF   1E,W
08494:  SUBLW  06
08496:  BZ    84AA
08498:  MOVF   1E,W
0849A:  SUBLW  08
0849C:  BZ    84AA
0849E:  MOVF   1E,W
084A0:  SUBLW  0A
084A2:  BZ    84AA
084A4:  MOVF   1E,W
084A6:  SUBLW  0C
084A8:  BNZ   855C
....................       //if(sec==0 || sec==10 || sec==20  || sec==30  || sec==40  || sec==50){ 
....................           storeDATA(); 
084AA:  GOTO   48E6
....................           glcd_fillScreen(0); 
084AE:  MOVLB  B
084B0:  CLRF   x26
084B2:  MOVLB  0
084B4:  CALL   1BC8
....................           glcd_interfaz(); 
084B8:  CALL   4194
....................           sprintf(Pgeneral2,"%.2fL",t0count); 
084BC:  MOVLW  06
084BE:  MOVLB  B
084C0:  MOVWF  x24
084C2:  CLRF   x23
084C4:  MOVLW  89
084C6:  MOVWF  FE9
084C8:  MOVFF  63,B28
084CC:  MOVFF  62,B27
084D0:  MOVFF  61,B26
084D4:  MOVFF  60,B25
084D8:  MOVLW  02
084DA:  MOVWF  x29
084DC:  MOVLB  0
084DE:  CALL   36AE
084E2:  MOVLW  4C
084E4:  MOVLB  B
084E6:  MOVWF  x32
084E8:  MOVLB  0
084EA:  CALL   2630
....................           glcd_text57(20,25,Pgeneral2, 1, 1); 
084EE:  MOVLW  14
084F0:  MOVLB  B
084F2:  MOVWF  x25
084F4:  MOVLW  19
084F6:  MOVWF  x26
084F8:  MOVLW  06
084FA:  MOVWF  x28
084FC:  CLRF   x27
084FE:  MOVLW  01
08500:  MOVWF  x29
08502:  MOVWF  x2A
08504:  MOVLB  0
08506:  CALL   229A
....................           sprintf(Pgeneral3,"%.2fL",t1count); 
0850A:  MOVLW  06
0850C:  MOVLB  B
0850E:  MOVWF  x24
08510:  MOVLW  40
08512:  MOVWF  x23
08514:  MOVLW  89
08516:  MOVWF  FE9
08518:  MOVFF  6B,B28
0851C:  MOVFF  6A,B27
08520:  MOVFF  69,B26
08524:  MOVFF  68,B25
08528:  MOVLW  02
0852A:  MOVWF  x29
0852C:  MOVLB  0
0852E:  CALL   36AE
08532:  MOVLW  4C
08534:  MOVLB  B
08536:  MOVWF  x32
08538:  MOVLB  0
0853A:  CALL   2630
....................           glcd_text57(20,39,Pgeneral3, 1, 1); 
0853E:  MOVLW  14
08540:  MOVLB  B
08542:  MOVWF  x25
08544:  MOVLW  27
08546:  MOVWF  x26
08548:  MOVLW  06
0854A:  MOVWF  x28
0854C:  MOVLW  40
0854E:  MOVWF  x27
08550:  MOVLW  01
08552:  MOVWF  x29
08554:  MOVWF  x2A
08556:  MOVLB  0
08558:  CALL   229A
....................  
....................       } 
0855C:  GOTO   7D58
....................  
....................     } 
.................... } 
08560:  SLEEP 

Configuration Fuses:
   Word  1: C800   INTRC_IO FCMEN IESO
   Word  2: 0E18   PUT NOBROWNOUT BORV21 NOWDT WDT128
   Word  3: 8700   CCP2C1 PBADEN LPT1OSC MCLR
   Word  4: 0081   STVREN NOLVP NOXINST NODEBUG
   Word  5: C00F   NOPROTECT NOCPB NOCPD
   Word  6: E00F   NOWRT NOWRTC NOWRTB NOWRTD
   Word  7: 400F   NOEBTR NOEBTRB
